

Microchip MPLAB XC8 Assembler V2.10 build 88905656 
                                                                                               Tue Mar 31 16:32:49 2020

Microchip MPLAB XC8 C Compiler v2.10 (Free license) build 20190730164152 Og1 
     1                           	processor	16F877A
     2                           	opt	pw 120
     3                           	opt	flic
     4                           	psect	idataBANK3,global,class=CODE,delta=2
     5                           	psect	strings,global,class=STRING,delta=2
     6                           	psect	cinit,global,class=CODE,merge=1,delta=2
     7                           	psect	bssBANK1,global,class=BANK1,space=1,delta=1
     8                           	psect	bssBANK3,global,class=BANK3,space=1,delta=1
     9                           	psect	dataBANK3,global,class=BANK3,space=1,delta=1
    10                           	psect	cstackBANK1,global,class=BANK1,space=1,delta=1
    11                           	psect	cstackCOMMON,global,class=COMMON,space=1,delta=1
    12                           	psect	cstackBANK0,global,class=BANK0,space=1,delta=1
    13                           	psect	maintext,global,class=CODE,split=1,delta=2
    14                           	psect	text1,local,class=CODE,merge=1,delta=2
    15                           	psect	text2,local,class=CODE,merge=1,delta=2
    16                           	psect	text3,local,class=CODE,merge=1,delta=2
    17                           	psect	text4,local,class=CODE,merge=1,delta=2
    18                           	psect	text5,local,class=CODE,merge=1,delta=2
    19                           	psect	text6,local,class=CODE,merge=1,delta=2
    20                           	psect	text7,local,class=CODE,merge=1,delta=2
    21                           	psect	text8,local,class=CODE,merge=1,delta=2,group=2
    22                           	psect	text9,local,class=CODE,merge=1,delta=2,group=2
    23                           	psect	text10,local,class=CODE,merge=1,delta=2,group=2
    24                           	psect	text11,local,class=CODE,merge=1,delta=2,group=2
    25                           	psect	text12,local,class=CODE,merge=1,delta=2,group=2
    26                           	psect	text13,local,class=CODE,merge=1,delta=2,group=2
    27                           	psect	text14,local,class=CODE,merge=1,delta=2,group=1
    28                           	psect	text15,local,class=CODE,merge=1,delta=2,group=1
    29                           	psect	text16,local,class=CODE,merge=1,delta=2,group=1
    30                           	psect	text17,local,class=CODE,merge=1,delta=2,group=1
    31                           	psect	text18,local,class=CODE,merge=1,delta=2,group=2
    32                           	psect	text19,local,class=CODE,merge=1,delta=2,group=1
    33                           	psect	text20,local,class=CODE,merge=1,delta=2,group=1
    34                           	psect	text21,local,class=CODE,merge=1,delta=2,group=1
    35                           	psect	text22,local,class=CODE,merge=1,delta=2,group=1
    36                           	psect	text23,local,class=CODE,merge=1,delta=2,group=1
    37                           	psect	text24,local,class=CODE,merge=1,delta=2,group=1
    38                           	psect	text25,local,class=CODE,merge=1,delta=2,group=1
    39                           	psect	text26,local,class=CODE,merge=1,delta=2,group=1
    40                           	psect	text27,local,class=CODE,merge=1,delta=2
    41                           	psect	text28,local,class=CODE,merge=1,delta=2
    42                           	psect	text29,local,class=CODE,merge=1,delta=2
    43                           	psect	text30,local,class=CODE,merge=1,delta=2
    44                           	psect	text31,local,class=CODE,merge=1,delta=2
    45                           	psect	text32,local,class=CODE,merge=1,delta=2
    46                           	psect	text33,local,class=CODE,merge=1,delta=2
    47                           	psect	text34,local,class=CODE,merge=1,delta=2
    48                           	psect	text35,local,class=CODE,merge=1,delta=2
    49                           	psect	text36,local,class=CODE,merge=1,delta=2
    50                           	dabs	1,0x7E,2
    51  0000                     
    52                           ; Version 2.10
    53                           ; Generated 31/07/2019 GMT
    54                           ; 
    55                           ; Copyright © 2019, Microchip Technology Inc. and its subsidiaries ("Microchip")
    56                           ; All rights reserved.
    57                           ; 
    58                           ; This software is developed by Microchip Technology Inc. and its subsidiaries ("Microch
      +                          ip").
    59                           ; 
    60                           ; Redistribution and use in source and binary forms, with or without modification, are
    61                           ; permitted provided that the following conditions are met:
    62                           ; 
    63                           ;     1. Redistributions of source code must retain the above copyright notice, this lis
      +                          t of
    64                           ;        conditions and the following disclaimer.
    65                           ; 
    66                           ;     2. Redistributions in binary form must reproduce the above copyright notice, this 
      +                          list
    67                           ;        of conditions and the following disclaimer in the documentation and/or other
    68                           ;        materials provided with the distribution.
    69                           ; 
    70                           ;     3. Microchip's name may not be used to endorse or promote products derived from th
      +                          is
    71                           ;        software without specific prior written permission.
    72                           ; 
    73                           ; THIS SOFTWARE IS PROVIDED BY MICROCHIP "AS IS" AND ANY EXPRESS OR IMPLIED WARRANTIES,
    74                           ; INCLUDING, BUT NOT LIMITED TO, THE IMPLIED WARRANTIES OF MERCHANTABILITY AND FITNESS F
      +                          OR
    75                           ; PURPOSE ARE DISCLAIMED.  IN NO EVENT SHALL MICROCHIP BE LIABLE FOR ANY DIRECT, INDIREC
      +                          T,
    76                           ; INCIDENTAL, SPECIAL, EXEMPLARY, OR CONSEQUENTIAL DAMAGES (INCLUDING BUT NOT LIMITED TO
    77                           ; PROCUREMENT OF SUBSTITUTE GOODS OR SERVICES; LOSS OF USE, DATA OR PROFITS; OR BUSINESS
    78                           ; INTERRUPTION) HOWSOEVER CAUSED AND ON ANY THEORY OF LIABILITY, WHETHER IN CONTRACT, ST
      +                          RICT
    79                           ; LIABILITY, OR TORT (INCLUDING NEGLIGENCE OR OTHERWISE) ARISING IN ANY WAY OUT OF THE U
      +                          SE OF
    80                           ; THIS SOFTWARE, EVEN IF ADVISED OF THE POSSIBILITY OF SUCH DAMAGE.
    81                           ; 
    82                           ; 
    83                           ; Code-generator required, PIC16F877A Definitions
    84                           ; 
    85                           ; SFR Addresses
    86  0000                     	;# 
    87  0001                     	;# 
    88  0002                     	;# 
    89  0003                     	;# 
    90  0004                     	;# 
    91  0005                     	;# 
    92  0006                     	;# 
    93  0007                     	;# 
    94  0008                     	;# 
    95  0009                     	;# 
    96  000A                     	;# 
    97  000B                     	;# 
    98  000C                     	;# 
    99  000D                     	;# 
   100  000E                     	;# 
   101  000E                     	;# 
   102  000F                     	;# 
   103  0010                     	;# 
   104  0011                     	;# 
   105  0012                     	;# 
   106  0013                     	;# 
   107  0014                     	;# 
   108  0015                     	;# 
   109  0015                     	;# 
   110  0016                     	;# 
   111  0017                     	;# 
   112  0018                     	;# 
   113  0019                     	;# 
   114  001A                     	;# 
   115  001B                     	;# 
   116  001B                     	;# 
   117  001C                     	;# 
   118  001D                     	;# 
   119  001E                     	;# 
   120  001F                     	;# 
   121  0081                     	;# 
   122  0085                     	;# 
   123  0086                     	;# 
   124  0087                     	;# 
   125  0088                     	;# 
   126  0089                     	;# 
   127  008C                     	;# 
   128  008D                     	;# 
   129  008E                     	;# 
   130  0091                     	;# 
   131  0092                     	;# 
   132  0093                     	;# 
   133  0094                     	;# 
   134  0098                     	;# 
   135  0099                     	;# 
   136  009C                     	;# 
   137  009D                     	;# 
   138  009E                     	;# 
   139  009F                     	;# 
   140  010C                     	;# 
   141  010D                     	;# 
   142  010E                     	;# 
   143  010F                     	;# 
   144  018C                     	;# 
   145  018D                     	;# 
   146  0000                     	;# 
   147  0001                     	;# 
   148  0002                     	;# 
   149  0003                     	;# 
   150  0004                     	;# 
   151  0005                     	;# 
   152  0006                     	;# 
   153  0007                     	;# 
   154  0008                     	;# 
   155  0009                     	;# 
   156  000A                     	;# 
   157  000B                     	;# 
   158  000C                     	;# 
   159  000D                     	;# 
   160  000E                     	;# 
   161  000E                     	;# 
   162  000F                     	;# 
   163  0010                     	;# 
   164  0011                     	;# 
   165  0012                     	;# 
   166  0013                     	;# 
   167  0014                     	;# 
   168  0015                     	;# 
   169  0015                     	;# 
   170  0016                     	;# 
   171  0017                     	;# 
   172  0018                     	;# 
   173  0019                     	;# 
   174  001A                     	;# 
   175  001B                     	;# 
   176  001B                     	;# 
   177  001C                     	;# 
   178  001D                     	;# 
   179  001E                     	;# 
   180  001F                     	;# 
   181  0081                     	;# 
   182  0085                     	;# 
   183  0086                     	;# 
   184  0087                     	;# 
   185  0088                     	;# 
   186  0089                     	;# 
   187  008C                     	;# 
   188  008D                     	;# 
   189  008E                     	;# 
   190  0091                     	;# 
   191  0092                     	;# 
   192  0093                     	;# 
   193  0094                     	;# 
   194  0098                     	;# 
   195  0099                     	;# 
   196  009C                     	;# 
   197  009D                     	;# 
   198  009E                     	;# 
   199  009F                     	;# 
   200  010C                     	;# 
   201  010D                     	;# 
   202  010E                     	;# 
   203  010F                     	;# 
   204  018C                     	;# 
   205  018D                     	;# 
   206                           
   207                           	psect	idataBANK3
   208  0806                     __pidataBANK3:	
   209                           
   210                           ;initializer for _row
   211  0806  3401               	retlw	1
   212                           
   213                           ;initializer for _col
   214  0807  340A               	retlw	10
   215                           
   216                           	psect	strings
   217  1800                     __pstrings:	
   218  1800                     stringtab:	
   219  1800                     __stringtab:	
   220  1800                     stringcode:	
   221                           ;	String table - string pointers are 1 byte each
   222                           
   223  1800                     stringdir:	
   224  1800  3018               	movlw	high stringdir
   225  1801  008A               	movwf	10
   226  1802  0804               	movf	4,w
   227  1803  0A84               	incf	4,f
   228  1804  0782               	addwf	2,f
   229  1805                     __stringbase:	
   230  1805  3400               	retlw	0
   231  1806                     __end_of__stringtab:	
   232  1806                     exp@coeff:	
   233  1806  3400               	retlw	0
   234  1807  3400               	retlw	0
   235  1808  3480               	retlw	128
   236  1809  343F               	retlw	63
   237  180A  3418               	retlw	24
   238  180B  3472               	retlw	114
   239  180C  3431               	retlw	49
   240  180D  343F               	retlw	63
   241  180E  34F0               	retlw	240
   242  180F  34FD               	retlw	253
   243  1810  3475               	retlw	117
   244  1811  343E               	retlw	62
   245  1812  3447               	retlw	71
   246  1813  3458               	retlw	88
   247  1814  3463               	retlw	99
   248  1815  343D               	retlw	61
   249  1816  3458               	retlw	88
   250  1817  3495               	retlw	149
   251  1818  341D               	retlw	29
   252  1819  343C               	retlw	60
   253  181A  3482               	retlw	130
   254  181B  34C4               	retlw	196
   255  181C  34AE               	retlw	174
   256  181D  343A               	retlw	58
   257  181E  34A8               	retlw	168
   258  181F  3478               	retlw	120
   259  1820  3421               	retlw	33
   260  1821  3439               	retlw	57
   261  1822  34EF               	retlw	239
   262  1823  3493               	retlw	147
   263  1824  3480               	retlw	128
   264  1825  3437               	retlw	55
   265  1826  34A0               	retlw	160
   266  1827  3492               	retlw	146
   267  1828  34A7               	retlw	167
   268  1829  3435               	retlw	53
   269  182A  3446               	retlw	70
   270  182B  3456               	retlw	86
   271  182C  3415               	retlw	21
   272  182D  3434               	retlw	52
   273  182E                     __end_ofexp@coeff:	
   274  182E                     log@coeff:	
   275  182E  3400               	retlw	0
   276  182F  3400               	retlw	0
   277  1830  3400               	retlw	0
   278  1831  3400               	retlw	0
   279  1832  34C4               	retlw	196
   280  1833  34FF               	retlw	255
   281  1834  347F               	retlw	127
   282  1835  343F               	retlw	63
   283  1836  3480               	retlw	128
   284  1837  34EF               	retlw	239
   285  1838  34FF               	retlw	255
   286  1839  34BE               	retlw	190
   287  183A  3490               	retlw	144
   288  183B  34E1               	retlw	225
   289  183C  34A9               	retlw	169
   290  183D  343E               	retlw	62
   291  183E  34EC               	retlw	236
   292  183F  3482               	retlw	130
   293  1840  3476               	retlw	118
   294  1841  34BE               	retlw	190
   295  1842  3482               	retlw	130
   296  1843  34AD               	retlw	173
   297  1844  342B               	retlw	43
   298  1845  343E               	retlw	62
   299  1846  340E               	retlw	14
   300  1847  343C               	retlw	60
   301  1848  34C3               	retlw	195
   302  1849  34BD               	retlw	189
   303  184A  3487               	retlw	135
   304  184B  34D1               	retlw	209
   305  184C  3413               	retlw	19
   306  184D  343D               	retlw	61
   307  184E  3441               	retlw	65
   308  184F  3478               	retlw	120
   309  1850  34D3               	retlw	211
   310  1851  34BB               	retlw	187
   311  1852                     __end_oflog@coeff:	
   312  0009                     _PORTE	set	9
   313  0008                     _PORTD	set	8
   314  0007                     _PORTC	set	7
   315  0006                     _PORTB	set	6
   316  0005                     _PORTA	set	5
   317  0030                     _RB0	set	48
   318  003F                     _RC7	set	63
   319  003E                     _RC6	set	62
   320  003D                     _RC5	set	61
   321  003C                     _RC4	set	60
   322  0044                     _RD4	set	68
   323  0043                     _RD3	set	67
   324  0042                     _RD2	set	66
   325  0041                     _RD1	set	65
   326  0040                     _RD0	set	64
   327  0045                     _RD5	set	69
   328  005F                     _GIE	set	95
   329  0087                     _TRISC	set	135
   330  0086                     _TRISB	set	134
   331  0085                     _TRISA	set	133
   332  0088                     _TRISD	set	136
   333  0445                     _TRISD5	set	1093
   334  0444                     _TRISD4	set	1092
   335  010C                     _EEDATA	set	268
   336  010D                     _EEADR	set	269
   337  018D                     _EECON2	set	397
   338  018C                     _EECON1bits	set	396
   339  0C62                     _WREN	set	3170
   340  1852                     STR_10:	
   341  1852  3450               	retlw	80	;'P'
   342  1853  3472               	retlw	114	;'r'
   343  1854  3465               	retlw	101	;'e'
   344  1855  3473               	retlw	115	;'s'
   345  1856  3473               	retlw	115	;'s'
   346  1857  3420               	retlw	32	;' '
   347  1858  342B               	retlw	43	;'+'
   348  1859  3420               	retlw	32	;' '
   349  185A  3474               	retlw	116	;'t'
   350  185B  346F               	retlw	111	;'o'
   351  185C  3420               	retlw	32	;' '
   352  185D  3463               	retlw	99	;'c'
   353  185E  3468               	retlw	104	;'h'
   354  185F  3461               	retlw	97	;'a'
   355  1860  346E               	retlw	110	;'n'
   356  1861  3467               	retlw	103	;'g'
   357  1862  3465               	retlw	101	;'e'
   358  1863  3420               	retlw	32	;' '
   359  1864  3479               	retlw	121	;'y'
   360  1865  346F               	retlw	111	;'o'
   361  1866  3475               	retlw	117	;'u'
   362  1867  3472               	retlw	114	;'r'
   363  1868  3420               	retlw	32	;' '
   364  1869  3470               	retlw	112	;'p'
   365  186A  3461               	retlw	97	;'a'
   366  186B  3473               	retlw	115	;'s'
   367  186C  3473               	retlw	115	;'s'
   368  186D  3477               	retlw	119	;'w'
   369  186E  346F               	retlw	111	;'o'
   370  186F  3472               	retlw	114	;'r'
   371  1870  3464               	retlw	100	;'d'
   372  1871  3400               	retlw	0
   373  1872                     STR_8:	
   374  1872  3450               	retlw	80	;'P'
   375  1873  3461               	retlw	97	;'a'
   376  1874  3473               	retlw	115	;'s'
   377  1875  3473               	retlw	115	;'s'
   378  1876  3477               	retlw	119	;'w'
   379  1877  346F               	retlw	111	;'o'
   380  1878  3472               	retlw	114	;'r'
   381  1879  3464               	retlw	100	;'d'
   382  187A  3420               	retlw	32	;' '
   383  187B  3463               	retlw	99	;'c'
   384  187C  3468               	retlw	104	;'h'
   385  187D  3461               	retlw	97	;'a'
   386  187E  346E               	retlw	110	;'n'
   387  187F  3467               	retlw	103	;'g'
   388  1880  3465               	retlw	101	;'e'
   389  1881  3464               	retlw	100	;'d'
   390  1882  342E               	retlw	46	;'.'
   391  1883  3400               	retlw	0
   392  1884                     STR_9:	
   393  1884  3459               	retlw	89	;'Y'
   394  1885  346F               	retlw	111	;'o'
   395  1886  3475               	retlw	117	;'u'
   396  1887  3420               	retlw	32	;' '
   397  1888  3463               	retlw	99	;'c'
   398  1889  3461               	retlw	97	;'a'
   399  188A  346E               	retlw	110	;'n'
   400  188B  3420               	retlw	32	;' '
   401  188C  3465               	retlw	101	;'e'
   402  188D  346E               	retlw	110	;'n'
   403  188E  3474               	retlw	116	;'t'
   404  188F  3465               	retlw	101	;'e'
   405  1890  3472               	retlw	114	;'r'
   406  1891  342E               	retlw	46	;'.'
   407  1892  342E               	retlw	46	;'.'
   408  1893  342E               	retlw	46	;'.'
   409  1894  3400               	retlw	0
   410  1895                     STR_6:	
   411  1895  3444               	retlw	68	;'D'
   412  1896  344F               	retlw	79	;'O'
   413  1897  3442               	retlw	66	;'B'
   414  1898  345B               	retlw	91	;'['
   415  1899  3464               	retlw	100	;'d'
   416  189A  3464               	retlw	100	;'d'
   417  189B  342F               	retlw	47	;'/'
   418  189C  346D               	retlw	109	;'m'
   419  189D  346D               	retlw	109	;'m'
   420  189E  342F               	retlw	47	;'/'
   421  189F  3479               	retlw	121	;'y'
   422  18A0  3479               	retlw	121	;'y'
   423  18A1  345D               	retlw	93	;']'
   424  18A2  343A               	retlw	58	;':'
   425  18A3  3400               	retlw	0
   426  18A4                     STR_16:	
   427  18A4  3457               	retlw	87	;'W'
   428  18A5  3472               	retlw	114	;'r'
   429  18A6  346F               	retlw	111	;'o'
   430  18A7  346E               	retlw	110	;'n'
   431  18A8  3467               	retlw	103	;'g'
   432  18A9  3420               	retlw	32	;' '
   433  18AA  3450               	retlw	80	;'P'
   434  18AB  3461               	retlw	97	;'a'
   435  18AC  3473               	retlw	115	;'s'
   436  18AD  3473               	retlw	115	;'s'
   437  18AE  3477               	retlw	119	;'w'
   438  18AF  346F               	retlw	111	;'o'
   439  18B0  3472               	retlw	114	;'r'
   440  18B1  3464               	retlw	100	;'d'
   441  18B2  3400               	retlw	0
   442  18B3                     STR_7:	
   443  18B3  344E               	retlw	78	;'N'
   444  18B4  3465               	retlw	101	;'e'
   445  18B5  3477               	retlw	119	;'w'
   446  18B6  3420               	retlw	32	;' '
   447  18B7  3450               	retlw	80	;'P'
   448  18B8  3461               	retlw	97	;'a'
   449  18B9  3473               	retlw	115	;'s'
   450  18BA  3473               	retlw	115	;'s'
   451  18BB  3477               	retlw	119	;'w'
   452  18BC  346F               	retlw	111	;'o'
   453  18BD  3472               	retlw	114	;'r'
   454  18BE  3464               	retlw	100	;'d'
   455  18BF  343A               	retlw	58	;':'
   456  18C0  3400               	retlw	0
   457  18C1                     STR_11:	
   458  18C1  3446               	retlw	70	;'F'
   459  18C2  346F               	retlw	111	;'o'
   460  18C3  3472               	retlw	114	;'r'
   461  18C4  3467               	retlw	103	;'g'
   462  18C5  346F               	retlw	111	;'o'
   463  18C6  3474               	retlw	116	;'t'
   464  18C7  3420               	retlw	32	;' '
   465  18C8  3450               	retlw	80	;'P'
   466  18C9  3461               	retlw	97	;'a'
   467  18CA  3473               	retlw	115	;'s'
   468  18CB  3473               	retlw	115	;'s'
   469  18CC  343F               	retlw	63	;'?'
   470  18CD  3400               	retlw	0
   471  18CE                     STR_4:	
   472  18CE  3457               	retlw	87	;'W'
   473  18CF  3465               	retlw	101	;'e'
   474  18D0  346C               	retlw	108	;'l'
   475  18D1  3463               	retlw	99	;'c'
   476  18D2  346F               	retlw	111	;'o'
   477  18D3  346D               	retlw	109	;'m'
   478  18D4  3465               	retlw	101	;'e'
   479  18D5  3400               	retlw	0
   480  18D6                     STR_2:	
   481  18D6  3420               	retlw	32	;' '
   482  18D7  3400               	retlw	0
   483  18D8                     STR_1:	
   484  18D8  342A               	retlw	42	;'*'
   485  18D9  3400               	retlw	0
   486  1872                     
   487                           ; #config settings
   488  0000                     
   489                           	psect	cinit
   490  07DB                     start_initialization:	
   491  07DB                     __initialization:	
   492                           
   493                           ; Initialize objects allocated to BANK3
   494  07DB  1683               	bsf	3,5	;RP0=1, select bank3
   495  07DC  1703               	bsf	3,6	;RP1=1, select bank3
   496  07DD  120A  158A  2006  120A  118A  	fcall	__pidataBANK3	;fetch initializer
   497  07E2  009F               	movwf	__pdataBANK3& (0+127)
   498  07E3  120A  158A  2007  120A  118A  	fcall	__pidataBANK3+1	;fetch initializer
   499  07E8  00A0               	movwf	(__pdataBANK3+1)& (0+127)
   500                           
   501                           ; Clear objects allocated to BANK3
   502  07E9  0190               	clrf	__pbssBANK3& (0+127)
   503  07EA  0191               	clrf	(__pbssBANK3+1)& (0+127)
   504  07EB  0192               	clrf	(__pbssBANK3+2)& (0+127)
   505  07EC  0193               	clrf	(__pbssBANK3+3)& (0+127)
   506  07ED  0194               	clrf	(__pbssBANK3+4)& (0+127)
   507  07EE  0195               	clrf	(__pbssBANK3+5)& (0+127)
   508  07EF  0196               	clrf	(__pbssBANK3+6)& (0+127)
   509  07F0  0197               	clrf	(__pbssBANK3+7)& (0+127)
   510  07F1  0198               	clrf	(__pbssBANK3+8)& (0+127)
   511  07F2  0199               	clrf	(__pbssBANK3+9)& (0+127)
   512  07F3  019A               	clrf	(__pbssBANK3+10)& (0+127)
   513  07F4  019B               	clrf	(__pbssBANK3+11)& (0+127)
   514  07F5  019C               	clrf	(__pbssBANK3+12)& (0+127)
   515  07F6  019D               	clrf	(__pbssBANK3+13)& (0+127)
   516  07F7  019E               	clrf	(__pbssBANK3+14)& (0+127)
   517                           
   518                           ; Clear objects allocated to BANK1
   519  07F8  1683               	bsf	3,5	;RP0=1, select bank1
   520  07F9  1303               	bcf	3,6	;RP1=0, select bank1
   521  07FA  01ED               	clrf	__pbssBANK1& (0+127)
   522  07FB  01EE               	clrf	(__pbssBANK1+1)& (0+127)
   523  07FC                     end_of_initialization:	
   524                           ;End of C runtime variable initialization code
   525                           
   526  07FC                     __end_of__initialization:	
   527  07FC  0183               	clrf	3
   528  07FD  120A  118A  2C13   	ljmp	_main	;jump to C main() function
   529                           
   530                           	psect	bssBANK1
   531  00ED                     __pbssBANK1:	
   532  00ED                     _i:	
   533  00ED                     	ds	1
   534  00EE                     _key:	
   535  00EE                     	ds	1
   536                           
   537                           	psect	bssBANK3
   538  0190                     __pbssBANK3:	
   539  0190                     _errno:	
   540  0190                     	ds	2
   541  0192                     _safe:	
   542  0192                     	ds	1
   543  0193                     _dob:	
   544  0193                     	ds	6
   545  0199                     _pass:	
   546  0199                     	ds	6
   547                           
   548                           	psect	dataBANK3
   549  019F                     __pdataBANK3:	
   550  019F                     _row:	
   551  019F                     	ds	1
   552  01A0                     _col:	
   553  01A0                     	ds	1
   554                           
   555                           	psect	cstackBANK1
   556  00A0                     __pcstackBANK1:	
   557  00A0                     eval_poly@res:	
   558                           
   559                           ; 4 bytes @ 0x0
   560  00A0                     	ds	4
   561  00A4                     ?_log:	
   562  00A4                     ?_ldexp:	
   563                           ; 4 bytes @ 0x4
   564                           
   565  00A4                     ldexp@value:	
   566                           ; 4 bytes @ 0x4
   567                           
   568  00A4                     log@x:	
   569                           ; 4 bytes @ 0x4
   570                           
   571                           
   572                           ; 4 bytes @ 0x4
   573  00A4                     	ds	4
   574  00A8                     ldexp@newexp:	
   575                           
   576                           ; 2 bytes @ 0x8
   577  00A8                     	ds	2
   578  00AA                     ?_exp:	
   579  00AA                     exp@x:	
   580                           ; 4 bytes @ 0xA
   581                           
   582                           
   583                           ; 4 bytes @ 0xA
   584  00AA                     	ds	4
   585  00AE                     ??_exp:	
   586                           
   587                           ; 1 bytes @ 0xE
   588  00AE                     	ds	1
   589  00AF                     _exp$903:	
   590                           
   591                           ; 4 bytes @ 0xF
   592  00AF                     	ds	4
   593  00B3                     exp@exponent:	
   594                           
   595                           ; 2 bytes @ 0x13
   596  00B3                     	ds	2
   597  00B5                     exp@sign:	
   598                           
   599                           ; 1 bytes @ 0x15
   600  00B5                     	ds	1
   601  00B6                     ?_pow:	
   602  00B6                     pow@x:	
   603                           ; 4 bytes @ 0x16
   604                           
   605                           
   606                           ; 4 bytes @ 0x16
   607  00B6                     	ds	4
   608  00BA                     pow@y:	
   609                           
   610                           ; 4 bytes @ 0x1A
   611  00BA                     	ds	4
   612  00BE                     ??_pow:	
   613                           
   614                           ; 1 bytes @ 0x1E
   615  00BE                     	ds	1
   616  00BF                     _pow$901:	
   617                           
   618                           ; 4 bytes @ 0x1F
   619  00BF                     	ds	4
   620  00C3                     _pow$902:	
   621                           
   622                           ; 4 bytes @ 0x23
   623  00C3                     	ds	4
   624  00C7                     pow@sign:	
   625                           
   626                           ; 1 bytes @ 0x27
   627  00C7                     	ds	1
   628  00C8                     pow@yi:	
   629                           
   630                           ; 4 bytes @ 0x28
   631  00C8                     	ds	4
   632  00CC                     ?_LCD_WRITE_NUM:	
   633  00CC                     LCD_WRITE_NUM@i:	
   634                           ; 1 bytes @ 0x2C
   635                           
   636                           
   637                           ; 4 bytes @ 0x2C
   638  00CC                     	ds	4
   639  00D0                     _LCD_WRITE_NUM$899:	
   640                           
   641                           ; 4 bytes @ 0x30
   642  00D0                     	ds	4
   643  00D4                     _LCD_WRITE_NUM$900:	
   644                           
   645                           ; 4 bytes @ 0x34
   646  00D4                     	ds	4
   647  00D8                     LCD_WRITE_NUM@k:	
   648                           
   649                           ; 2 bytes @ 0x38
   650  00D8                     	ds	2
   651  00DA                     LCD_WRITE_NUM@l:	
   652                           
   653                           ; 2 bytes @ 0x3A
   654  00DA                     	ds	2
   655  00DC                     LCD_WRITE_NUM@m:	
   656                           
   657                           ; 2 bytes @ 0x3C
   658  00DC                     	ds	2
   659  00DE                     LCD_WRITE_NUM@j:	
   660                           
   661                           ; 4 bytes @ 0x3E
   662  00DE                     	ds	4
   663  00E2                     LCD_WRITE_NUM@n:	
   664                           
   665                           ; 2 bytes @ 0x42
   666  00E2                     	ds	2
   667  00E4                     ??_disp:	
   668                           
   669                           ; 1 bytes @ 0x44
   670  00E4                     	ds	4
   671  00E8                     disp@keyp:	
   672                           
   673                           ; 1 bytes @ 0x48
   674  00E8                     	ds	1
   675  00E9                     ??_main:	
   676                           
   677                           ; 1 bytes @ 0x49
   678  00E9                     	ds	3
   679  00EC                     main@j:	
   680                           
   681                           ; 1 bytes @ 0x4C
   682  00EC                     	ds	1
   683                           
   684                           	psect	cstackCOMMON
   685  0070                     __pcstackCOMMON:	
   686  0070                     ?___flge:	
   687  0070                     ?_read_eeprom:	
   688                           ; 1 bit 
   689                           
   690  0070                     ??_read_eeprom:	
   691                           ; 1 bytes @ 0x0
   692                           
   693  0070                     ?_write_eeprom:	
   694                           ; 1 bytes @ 0x0
   695                           
   696  0070                     ?_clock:	
   697                           ; 1 bytes @ 0x0
   698                           
   699  0070                     ??_clock:	
   700                           ; 1 bytes @ 0x0
   701                           
   702  0070                     ?_lcd_port:	
   703                           ; 1 bytes @ 0x0
   704                           
   705  0070                     ??_lcd_port:	
   706                           ; 1 bytes @ 0x0
   707                           
   708  0070                     ?_lcd_cmd:	
   709                           ; 1 bytes @ 0x0
   710                           
   711  0070                     ?_LCD_CLR:	
   712                           ; 1 bytes @ 0x0
   713                           
   714  0070                     ?_LCD_INIT:	
   715                           ; 1 bytes @ 0x0
   716                           
   717  0070                     ?_LCD_WRITE_CHAR:	
   718                           ; 1 bytes @ 0x0
   719                           
   720  0070                     ?_LCD_WRITE_STRING:	
   721                           ; 1 bytes @ 0x0
   722                           
   723  0070                     ?_keypadscan:	
   724                           ; 1 bytes @ 0x0
   725                           
   726  0070                     ??_keypadscan:	
   727                           ; 1 bytes @ 0x0
   728                           
   729  0070                     ?_disp:	
   730                           ; 1 bytes @ 0x0
   731                           
   732  0070                     ?_reset:	
   733                           ; 1 bytes @ 0x0
   734                           
   735  0070                     ?_main:	
   736                           ; 1 bytes @ 0x0
   737                           
   738  0070                     ?__Umul8_16:	
   739                           ; 1 bytes @ 0x0
   740                           
   741  0070                     ?___awmod:	
   742                           ; 2 bytes @ 0x0
   743                           
   744  0070                     ?___aldiv:	
   745                           ; 2 bytes @ 0x0
   746                           
   747  0070                     ?___flneg:	
   748                           ; 4 bytes @ 0x0
   749                           
   750  0070                     ?___fldiv:	
   751                           ; 4 bytes @ 0x0
   752                           
   753  0070                     ?___xxtofl:	
   754                           ; 4 bytes @ 0x0
   755                           
   756  0070                     read_eeprom@addr:	
   757                           ; 4 bytes @ 0x0
   758                           
   759  0070                     lcd_port@DATA:	
   760                           ; 1 bytes @ 0x0
   761                           
   762  0070                     __Umul8_16@multiplicand:	
   763                           ; 1 bytes @ 0x0
   764                           
   765  0070                     write_eeprom@addr:	
   766                           ; 1 bytes @ 0x0
   767                           
   768  0070                     ___awmod@divisor:	
   769                           ; 2 bytes @ 0x0
   770                           
   771  0070                     ___aldiv@divisor:	
   772                           ; 2 bytes @ 0x0
   773                           
   774  0070                     ___flge@ff1:	
   775                           ; 4 bytes @ 0x0
   776                           
   777  0070                     ___flneg@f1:	
   778                           ; 4 bytes @ 0x0
   779                           
   780  0070                     ___fldiv@a:	
   781                           ; 4 bytes @ 0x0
   782                           
   783  0070                     ___xxtofl@val:	
   784                           ; 4 bytes @ 0x0
   785                           
   786                           
   787                           ; 4 bytes @ 0x0
   788  0070                     	ds	1
   789  0071                     ?_checkPass:	
   790  0071                     checkPass@start:	
   791                           ; 1 bytes @ 0x1
   792                           
   793                           
   794                           ; 1 bytes @ 0x1
   795  0071                     	ds	1
   796  0072                     ??__Umul8_16:	
   797  0072                     ??_lcd_cmd:	
   798                           ; 1 bytes @ 0x2
   799                           
   800  0072                     ??_LCD_WRITE_CHAR:	
   801                           ; 1 bytes @ 0x2
   802                           
   803  0072                     ??_checkPass:	
   804                           ; 1 bytes @ 0x2
   805                           
   806  0072                     write_eeprom@data:	
   807                           ; 1 bytes @ 0x2
   808                           
   809  0072                     lcd_cmd@DATA:	
   810                           ; 1 bytes @ 0x2
   811                           
   812  0072                     ___awmod@dividend:	
   813                           ; 1 bytes @ 0x2
   814                           
   815                           
   816                           ; 2 bytes @ 0x2
   817  0072                     	ds	1
   818  0073                     ??_write_eeprom:	
   819  0073                     ??_LCD_CLR:	
   820                           ; 1 bytes @ 0x3
   821                           
   822  0073                     ?_LCD_CURSOR:	
   823                           ; 1 bytes @ 0x3
   824                           
   825  0073                     ??_LCD_INIT:	
   826                           ; 1 bytes @ 0x3
   827                           
   828  0073                     ?_LCD_SCROLL:	
   829                           ; 1 bytes @ 0x3
   830                           
   831  0073                     LCD_CURSOR@c:	
   832                           ; 1 bytes @ 0x3
   833                           
   834  0073                     LCD_WRITE_CHAR@Low4:	
   835                           ; 1 bytes @ 0x3
   836                           
   837  0073                     LCD_SCROLL@spd:	
   838                           ; 1 bytes @ 0x3
   839                           
   840  0073                     keypadscan@keypressed:	
   841                           ; 1 bytes @ 0x3
   842                           
   843  0073                     checkPass@checker:	
   844                           ; 1 bytes @ 0x3
   845                           
   846                           
   847                           ; 1 bytes @ 0x3
   848  0073                     	ds	1
   849  0074                     ??_LCD_CURSOR:	
   850  0074                     ??___awmod:	
   851                           ; 1 bytes @ 0x4
   852                           
   853  0074                     ??___flneg:	
   854                           ; 1 bytes @ 0x4
   855                           
   856  0074                     ??___xxtofl:	
   857                           ; 1 bytes @ 0x4
   858                           
   859  0074                     LCD_WRITE_CHAR@High4:	
   860                           ; 1 bytes @ 0x4
   861                           
   862  0074                     checkPass@val:	
   863                           ; 1 bytes @ 0x4
   864                           
   865  0074                     LCD_SCROLL@ti:	
   866                           ; 1 bytes @ 0x4
   867                           
   868  0074                     __Umul8_16@product:	
   869                           ; 2 bytes @ 0x4
   870                           
   871  0074                     ___aldiv@dividend:	
   872                           ; 2 bytes @ 0x4
   873                           
   874  0074                     ___flge@ff2:	
   875                           ; 4 bytes @ 0x4
   876                           
   877  0074                     ___fldiv@b:	
   878                           ; 4 bytes @ 0x4
   879                           
   880                           
   881                           ; 4 bytes @ 0x4
   882  0074                     	ds	1
   883  0075                     LCD_WRITE_CHAR@Data:	
   884  0075                     checkPass@k:	
   885                           ; 1 bytes @ 0x5
   886                           
   887  0075                     ___awmod@counter:	
   888                           ; 1 bytes @ 0x5
   889                           
   890  0075                     write_eeprom@gie_status:	
   891                           ; 1 bytes @ 0x5
   892                           
   893                           
   894                           ; 2 bytes @ 0x5
   895  0075                     	ds	1
   896  0076                     ??_LCD_WRITE_STRING:	
   897  0076                     ??_LCD_SCROLL:	
   898                           ; 1 bytes @ 0x6
   899                           
   900  0076                     LCD_CURSOR@r:	
   901                           ; 1 bytes @ 0x6
   902                           
   903  0076                     ___awmod@sign:	
   904                           ; 1 bytes @ 0x6
   905                           
   906  0076                     __Umul8_16@word_mpld:	
   907                           ; 1 bytes @ 0x6
   908                           
   909                           
   910                           ; 2 bytes @ 0x6
   911  0076                     	ds	1
   912  0077                     ?_changePass:	
   913  0077                     LCD_CURSOR@high4:	
   914                           ; 1 bytes @ 0x7
   915                           
   916  0077                     LCD_WRITE_STRING@j:	
   917                           ; 1 bytes @ 0x7
   918                           
   919  0077                     changePass@start:	
   920                           ; 1 bytes @ 0x7
   921                           
   922                           
   923                           ; 1 bytes @ 0x7
   924  0077                     	ds	1
   925  0078                     ??_changePass:	
   926  0078                     ??___aldiv:	
   927                           ; 1 bytes @ 0x8
   928                           
   929  0078                     ??___flge:	
   930                           ; 1 bytes @ 0x8
   931                           
   932  0078                     ??___fldiv:	
   933                           ; 1 bytes @ 0x8
   934                           
   935  0078                     LCD_CURSOR@low4:	
   936                           ; 1 bytes @ 0x8
   937                           
   938  0078                     LCD_WRITE_STRING@stringy:	
   939                           ; 1 bytes @ 0x8
   940                           
   941  0078                     ___xxtofl@sign:	
   942                           ; 1 bytes @ 0x8
   943                           
   944  0078                     __Umul8_16@multiplier:	
   945                           ; 1 bytes @ 0x8
   946                           
   947                           
   948                           ; 1 bytes @ 0x8
   949  0078                     	ds	1
   950  0079                     LCD_CURSOR@temp:	
   951  0079                     LCD_SCROLL@dir:	
   952                           ; 1 bytes @ 0x9
   953                           
   954  0079                     ___xxtofl@exp:	
   955                           ; 1 bytes @ 0x9
   956                           
   957                           
   958                           ; 1 bytes @ 0x9
   959  0079                     	ds	1
   960  007A                     ??_reset:	
   961  007A                     LCD_SCROLL@i:	
   962                           ; 1 bytes @ 0xA
   963                           
   964  007A                     ___xxtofl@arg:	
   965                           ; 1 bytes @ 0xA
   966                           
   967                           
   968                           ; 4 bytes @ 0xA
   969  007A                     	ds	1
   970  007B                     LCD_SCROLL@j:	
   971                           
   972                           ; 1 bytes @ 0xB
   973  007B                     	ds	3
   974  007E                     ??_LCD_WRITE_NUM:	
   975  007E                     ??___flsub:	
   976                           ; 1 bytes @ 0xE
   977                           
   978                           
   979                           	psect	cstackBANK0
   980  0020                     __pcstackBANK0:	
   981                           ; 1 bytes @ 0xE
   982                           
   983  0020                     ?___fleq:	
   984  0020                     ?___fltol:	
   985                           ; 1 bit 
   986                           
   987  0020                     changePass@j:	
   988                           ; 4 bytes @ 0x0
   989                           
   990  0020                     ___aldiv@counter:	
   991                           ; 1 bytes @ 0x0
   992                           
   993  0020                     ___fleq@ff1:	
   994                           ; 1 bytes @ 0x0
   995                           
   996  0020                     ___fltol@f1:	
   997                           ; 4 bytes @ 0x0
   998                           
   999  0020                     ___fldiv@rem:	
  1000                           ; 4 bytes @ 0x0
  1001                           
  1002                           
  1003                           ; 4 bytes @ 0x0
  1004  0020                     	ds	1
  1005  0021                     changePass@k:	
  1006  0021                     ___aldiv@sign:	
  1007                           ; 1 bytes @ 0x1
  1008                           
  1009                           
  1010                           ; 1 bytes @ 0x1
  1011  0021                     	ds	1
  1012  0022                     changePass@newPass:	
  1013  0022                     ___aldiv@quotient:	
  1014                           ; 1 bytes @ 0x2
  1015                           
  1016                           
  1017                           ; 4 bytes @ 0x2
  1018  0022                     	ds	2
  1019  0024                     ??___fltol:	
  1020  0024                     ___fldiv@sign:	
  1021                           ; 1 bytes @ 0x4
  1022                           
  1023  0024                     ___fleq@ff2:	
  1024                           ; 1 bytes @ 0x4
  1025                           
  1026                           
  1027                           ; 4 bytes @ 0x4
  1028  0024                     	ds	1
  1029  0025                     ___fldiv@new_exp:	
  1030                           
  1031                           ; 2 bytes @ 0x5
  1032  0025                     	ds	2
  1033  0027                     ___fldiv@grs:	
  1034                           
  1035                           ; 4 bytes @ 0x7
  1036  0027                     	ds	1
  1037  0028                     ??___fleq:	
  1038                           
  1039                           ; 1 bytes @ 0x8
  1040  0028                     	ds	1
  1041  0029                     ___fltol@sign1:	
  1042                           
  1043                           ; 1 bytes @ 0x9
  1044  0029                     	ds	1
  1045  002A                     ___fltol@exp1:	
  1046                           
  1047                           ; 1 bytes @ 0xA
  1048  002A                     	ds	1
  1049  002B                     ___fldiv@bexp:	
  1050                           
  1051                           ; 1 bytes @ 0xB
  1052  002B                     	ds	1
  1053  002C                     ?_frexp:	
  1054  002C                     ___fldiv@aexp:	
  1055                           ; 4 bytes @ 0xC
  1056                           
  1057  002C                     frexp@value:	
  1058                           ; 1 bytes @ 0xC
  1059                           
  1060                           
  1061                           ; 4 bytes @ 0xC
  1062  002C                     	ds	4
  1063  0030                     frexp@eptr:	
  1064                           
  1065                           ; 1 bytes @ 0x10
  1066  0030                     	ds	1
  1067  0031                     ??_frexp:	
  1068                           
  1069                           ; 1 bytes @ 0x11
  1070  0031                     	ds	2
  1071  0033                     ?___flmul:	
  1072  0033                     ___flmul@b:	
  1073                           ; 4 bytes @ 0x13
  1074                           
  1075                           
  1076                           ; 4 bytes @ 0x13
  1077  0033                     	ds	4
  1078  0037                     ___flmul@a:	
  1079                           
  1080                           ; 4 bytes @ 0x17
  1081  0037                     	ds	4
  1082  003B                     ??___flmul:	
  1083                           
  1084                           ; 1 bytes @ 0x1B
  1085  003B                     	ds	5
  1086  0040                     ___flmul@sign:	
  1087                           
  1088                           ; 1 bytes @ 0x20
  1089  0040                     	ds	1
  1090  0041                     ___flmul@aexp:	
  1091                           
  1092                           ; 1 bytes @ 0x21
  1093  0041                     	ds	1
  1094  0042                     ___flmul@grs:	
  1095                           
  1096                           ; 4 bytes @ 0x22
  1097  0042                     	ds	4
  1098  0046                     ___flmul@bexp:	
  1099                           
  1100                           ; 1 bytes @ 0x26
  1101  0046                     	ds	1
  1102  0047                     ___flmul@prod:	
  1103                           
  1104                           ; 4 bytes @ 0x27
  1105  0047                     	ds	4
  1106  004B                     ___flmul@temp:	
  1107                           
  1108                           ; 2 bytes @ 0x2B
  1109  004B                     	ds	2
  1110  004D                     ?___fladd:	
  1111  004D                     ___fladd@b:	
  1112                           ; 4 bytes @ 0x2D
  1113                           
  1114                           
  1115                           ; 4 bytes @ 0x2D
  1116  004D                     	ds	4
  1117  0051                     ___fladd@a:	
  1118                           
  1119                           ; 4 bytes @ 0x31
  1120  0051                     	ds	4
  1121  0055                     ??___fladd:	
  1122                           
  1123                           ; 1 bytes @ 0x35
  1124  0055                     	ds	8
  1125  005D                     ___fladd@signs:	
  1126                           
  1127                           ; 1 bytes @ 0x3D
  1128  005D                     	ds	1
  1129  005E                     ___fladd@aexp:	
  1130                           
  1131                           ; 1 bytes @ 0x3E
  1132  005E                     	ds	1
  1133  005F                     ___fladd@bexp:	
  1134                           
  1135                           ; 1 bytes @ 0x3F
  1136  005F                     	ds	1
  1137  0060                     ___fladd@grs:	
  1138                           
  1139                           ; 1 bytes @ 0x40
  1140  0060                     	ds	1
  1141  0061                     ?_floor:	
  1142  0061                     ?_eval_poly:	
  1143                           ; 4 bytes @ 0x41
  1144                           
  1145  0061                     ?___flsub:	
  1146                           ; 4 bytes @ 0x41
  1147                           
  1148  0061                     ___flsub@a:	
  1149                           ; 4 bytes @ 0x41
  1150                           
  1151  0061                     floor@x:	
  1152                           ; 4 bytes @ 0x41
  1153                           
  1154  0061                     eval_poly@x:	
  1155                           ; 4 bytes @ 0x41
  1156                           
  1157                           
  1158                           ; 4 bytes @ 0x41
  1159  0061                     	ds	4
  1160  0065                     ??_floor:	
  1161  0065                     eval_poly@d:	
  1162                           ; 1 bytes @ 0x45
  1163                           
  1164  0065                     ___flsub@b:	
  1165                           ; 1 bytes @ 0x45
  1166                           
  1167                           
  1168                           ; 4 bytes @ 0x45
  1169  0065                     	ds	1
  1170  0066                     eval_poly@n:	
  1171  0066                     floor@i:	
  1172                           ; 2 bytes @ 0x46
  1173                           
  1174                           
  1175                           ; 4 bytes @ 0x46
  1176  0066                     	ds	2
  1177  0068                     ??_eval_poly:	
  1178                           
  1179                           ; 1 bytes @ 0x48
  1180  0068                     	ds	2
  1181  006A                     floor@expon:	
  1182                           
  1183                           ; 2 bytes @ 0x4A
  1184  006A                     	ds	3
  1185  006D                     ??_log:	
  1186  006D                     ??_ldexp:	
  1187                           ; 1 bytes @ 0x4D
  1188                           
  1189                           
  1190                           ; 1 bytes @ 0x4D
  1191  006D                     	ds	1
  1192  006E                     log@exponent:	
  1193                           
  1194                           ; 2 bytes @ 0x4E
  1195  006E                     	ds	2
  1196                           
  1197                           	psect	maintext
  1198  0413                     __pmaintext:	
  1199 ;;
  1200 ;;Main: autosize = 0, tempsize = 3, incstack = 0, save=0
  1201 ;;
  1202 ;; *************** function _main *****************
  1203 ;; Defined at:
  1204 ;;		line 203 in file "loady.c"
  1205 ;; Parameters:    Size  Location     Type
  1206 ;;		None
  1207 ;; Auto vars:     Size  Location     Type
  1208 ;;  j               1   76[BANK1 ] char 
  1209 ;; Return value:  Size  Location     Type
  1210 ;;                  1    wreg      void 
  1211 ;; Registers used:
  1212 ;;		wreg, fsr0l, fsr0h, status,2, status,0, btemp+1, pclath, cstack
  1213 ;; Tracked objects:
  1214 ;;		On entry : B00/0
  1215 ;;		On exit  : 0/0
  1216 ;;		Unchanged: 0/0
  1217 ;; Data sizes:     COMMON   BANK0   BANK1   BANK3   BANK2
  1218 ;;      Params:         0       0       0       0       0
  1219 ;;      Locals:         0       0       1       0       0
  1220 ;;      Temps:          0       0       3       0       0
  1221 ;;      Totals:         0       0       4       0       0
  1222 ;;Total ram usage:        4 bytes
  1223 ;; Hardware stack levels required when called:    7
  1224 ;; This function calls:
  1225 ;;		_LCD_CLR
  1226 ;;		_LCD_CURSOR
  1227 ;;		_LCD_INIT
  1228 ;;		_LCD_SCROLL
  1229 ;;		_LCD_WRITE_STRING
  1230 ;;		_changePass
  1231 ;;		_checkPass
  1232 ;;		_disp
  1233 ;;		_keypadscan
  1234 ;;		_read_eeprom
  1235 ;;		_reset
  1236 ;; This function is called by:
  1237 ;;		Startup code after reset
  1238 ;; This function uses a non-reentrant model
  1239 ;;
  1240                           
  1241                           
  1242                           ;psect for function _main
  1243  0413                     _main:	
  1244  0413                     l5251:	
  1245                           ;incstack = 0
  1246                           ; Regs used in _main: [wreg-fsr0h+status,2+status,0+btemp+1+pclath+cstack]
  1247                           
  1248                           
  1249                           ;loady.c: 204:     if(!(read_eeprom(6)==1)){
  1250  0413  1283               	bcf	3,5	;RP0=0, select bank0
  1251  0414  1303               	bcf	3,6	;RP1=0, select bank0
  1252  0415  0189               	clrf	9	;volatile
  1253  0416  0188               	clrf	8	;volatile
  1254  0417  0187               	clrf	7	;volatile
  1255  0418  0186               	clrf	6	;volatile
  1256  0419  0185               	clrf	5	;volatile
  1257                           
  1258                           ;loady.c: 205:         for(signed char j =0; j<6;j++){
  1259  041A  1683               	bsf	3,5	;RP0=1, select bank1
  1260  041B  1303               	bcf	3,6	;RP1=0, select bank1
  1261  041C  0188               	clrf	8	;volatile
  1262                           
  1263                           ;loady.c: 206:             pass[j]=9;
  1264  041D  0185               	clrf	5	;volatile
  1265                           
  1266                           ;loady.c: 207:         }
  1267  041E  0186               	clrf	6	;volatile
  1268  041F                     l5253:	
  1269                           
  1270                           ;loady.c: 208:         changePass(pass,0);
  1271  041F  30F0               	movlw	240
  1272  0420  0087               	movwf	7	;volatile
  1273  0421                     l5255:	
  1274                           
  1275                           ;loady.c: 209:     }
  1276  0421  160A  158A  2461  120A  118A  	fcall	_LCD_INIT
  1277  0426                     l5257:	
  1278                           
  1279                           ;loady.c: 210: 
  1280  0426  300D               	movlw	13
  1281  0427  1683               	bsf	3,5	;RP0=1, select bank1
  1282  0428  1303               	bcf	3,6	;RP1=0, select bank1
  1283  0429  00EB               	movwf	(??_main^(0+128)+2)
  1284  042A  30AF               	movlw	175
  1285  042B  00EA               	movwf	(??_main^(0+128)+1)
  1286  042C  30B5               	movlw	181
  1287  042D  00E9               	movwf	??_main^(0+128)
  1288  042E                     u8057:	
  1289  042E  0BE9               	decfsz	??_main^(0+128),f
  1290  042F  2C2E               	goto	u8057
  1291  0430  0BEA               	decfsz	(??_main^(0+128)+1),f
  1292  0431  2C2E               	goto	u8057
  1293  0432  0BEB               	decfsz	(??_main^(0+128)+2),f
  1294  0433  2C2E               	goto	u8057
  1295  0434  2C35               	nop2
  1296  0435                     l5259:	
  1297                           
  1298                           ;loady.c: 211:     while(1){
  1299  0435  120A  118A  2003  120A  118A  	fcall	_LCD_CLR
  1300  043A                     l5261:	
  1301                           
  1302                           ;loady.c: 212:     key = keypadscan();
  1303  043A  30C9               	movlw	(low ((STR_4-__stringbase)| (0+32768)))& (0+255)
  1304  043B  160A  158A  21A3  120A  118A  	fcall	_LCD_WRITE_STRING
  1305  0440                     l5263:	
  1306                           
  1307                           ;loady.c: 213: 
  1308  0440  3014               	movlw	20
  1309  0441  1683               	bsf	3,5	;RP0=1, select bank1
  1310  0442  1303               	bcf	3,6	;RP1=0, select bank1
  1311  0443  00EB               	movwf	(??_main^(0+128)+2)
  1312  0444  3007               	movlw	7
  1313  0445  00EA               	movwf	(??_main^(0+128)+1)
  1314  0446  3011               	movlw	17
  1315  0447  00E9               	movwf	??_main^(0+128)
  1316  0448                     u8067:	
  1317  0448  0BE9               	decfsz	??_main^(0+128),f
  1318  0449  2C48               	goto	u8067
  1319  044A  0BEA               	decfsz	(??_main^(0+128)+1),f
  1320  044B  2C48               	goto	u8067
  1321  044C  0BEB               	decfsz	(??_main^(0+128)+2),f
  1322  044D  2C48               	goto	u8067
  1323  044E                     l5265:	
  1324                           
  1325                           ;loady.c: 214:     if(i<6 && safe!=1){
  1326  044E  01F3               	clrf	LCD_CURSOR@c
  1327  044F  0AF3               	incf	LCD_CURSOR@c,f
  1328  0450  3001               	movlw	1
  1329  0451  160A  158A  2359  120A  118A  	fcall	_LCD_CURSOR
  1330  0456                     l5267:	
  1331                           
  1332                           ;loady.c: 215:         pass[i]=key;
  1333  0456  30B2               	movlw	(low (((STR_7+4)-__stringbase)| (0+32768)))& (0+255)
  1334  0457  160A  158A  21A3  120A  118A  	fcall	_LCD_WRITE_STRING
  1335  045C                     l5269:	
  1336                           
  1337                           ;loady.c: 216:         disp(key);
  1338  045C  300A               	movlw	10
  1339  045D  1683               	bsf	3,5	;RP0=1, select bank1
  1340  045E  1303               	bcf	3,6	;RP1=0, select bank1
  1341  045F  00E9               	movwf	??_main^(0+128)
  1342  0460  0869               	movf	??_main^(0+128),w
  1343  0461  00F3               	movwf	LCD_CURSOR@c
  1344  0462  3001               	movlw	1
  1345  0463  160A  158A  2359  120A  118A  	fcall	_LCD_CURSOR
  1346  0468                     l5271:	
  1347                           
  1348                           ;loady.c: 218:     }
  1349  0468  3006               	movlw	6
  1350  0469  160A  158A  2151  120A  118A  	fcall	_read_eeprom
  1351  046E  3A01               	xorlw	1
  1352  046F  1903               	skipnz
  1353  0470  2C72               	goto	u7851
  1354  0471  2C73               	goto	u7850
  1355  0472                     u7851:	
  1356  0472  2C90               	goto	l5287
  1357  0473                     u7850:	
  1358  0473                     l5273:	
  1359                           
  1360                           ;loady.c: 219:     if(key==16 && safe==1){
  1361  0473  1683               	bsf	3,5	;RP0=1, select bank1
  1362  0474  1303               	bcf	3,6	;RP1=0, select bank1
  1363  0475  01EC               	clrf	main@j^(0+128)
  1364  0476                     l5279:	
  1365                           
  1366                           ;loady.c: 220:     LCD_CLR();
  1367  0476  3009               	movlw	9
  1368  0477  00E9               	movwf	??_main^(0+128)
  1369  0478  086C               	movf	main@j^(0+128),w
  1370  0479  3E99               	addlw	(low (_pass| (0+256)))& (0+255)
  1371  047A  0084               	movwf	4
  1372  047B  0869               	movf	??_main^(0+128),w
  1373  047C  1783               	bsf	3,7	;select IRP bank3
  1374  047D  0080               	movwf	0
  1375  047E                     l5281:	
  1376                           
  1377                           ;loady.c: 221:     LCD_CURSOR(2,1);
  1378  047E  3001               	movlw	1
  1379  047F  00E9               	movwf	??_main^(0+128)
  1380  0480  0869               	movf	??_main^(0+128),w
  1381  0481  07EC               	addwf	main@j^(0+128),f
  1382  0482                     l5283:	
  1383  0482  086C               	movf	main@j^(0+128),w
  1384  0483  3A80               	xorlw	128
  1385  0484  3E7A               	addlw	-134
  1386  0485  1C03               	skipc
  1387  0486  2C88               	goto	u7861
  1388  0487  2C89               	goto	u7860
  1389  0488                     u7861:	
  1390  0488  2C76               	goto	l5279
  1391  0489                     u7860:	
  1392  0489                     l5285:	
  1393                           
  1394                           ;loady.c: 222:     LCD_WRITE_STRING("DOB[dd/mm/yy]:");
  1395  0489  01F7               	clrf	changePass@start
  1396  048A  3099               	movlw	(low (_pass| (0+256)))& (0+255)
  1397  048B  160A  158A  22CE  120A  118A  	fcall	_changePass
  1398  0490                     l5287:	
  1399                           
  1400                           ;loady.c: 226:     row=1;
  1401  0490  120A  158A  2302  120A  118A  	fcall	_keypadscan
  1402  0495  1683               	bsf	3,5	;RP0=1, select bank1
  1403  0496  1303               	bcf	3,6	;RP1=0, select bank1
  1404  0497  00E9               	movwf	??_main^(0+128)
  1405  0498  0869               	movf	??_main^(0+128),w
  1406  0499  00EE               	movwf	_key^(0+128)
  1407  049A                     l5289:	
  1408                           
  1409                           ;loady.c: 228:         if(col>16){
  1410  049A  3006               	movlw	6
  1411  049B  026D               	subwf	_i^(0+128),w
  1412  049C  1803               	skipnc
  1413  049D  2C9F               	goto	u7871
  1414  049E  2CA0               	goto	u7870
  1415  049F                     u7871:	
  1416  049F  2CBD               	goto	l5299
  1417  04A0                     u7870:	
  1418  04A0                     l5291:	
  1419  04A0  1683               	bsf	3,5	;RP0=1, select bank3
  1420  04A1  1703               	bsf	3,6	;RP1=1, select bank3
  1421  04A2  0312               	decf	_safe^(0+384),w
  1422  04A3  1903               	btfsc	3,2
  1423  04A4  2CA6               	goto	u7881
  1424  04A5  2CA7               	goto	u7880
  1425  04A6                     u7881:	
  1426  04A6  2CBD               	goto	l5299
  1427  04A7                     u7880:	
  1428  04A7                     l5293:	
  1429                           
  1430                           ;loady.c: 229:         LCD_SCROLL(1,10,0);
  1431  04A7  1683               	bsf	3,5	;RP0=1, select bank1
  1432  04A8  1303               	bcf	3,6	;RP1=0, select bank1
  1433  04A9  086E               	movf	_key^(0+128),w
  1434  04AA  00E9               	movwf	??_main^(0+128)
  1435  04AB  086D               	movf	_i^(0+128),w
  1436  04AC  3E99               	addlw	(low (_pass| (0+256)))& (0+255)
  1437  04AD  0084               	movwf	4
  1438  04AE  0869               	movf	??_main^(0+128),w
  1439  04AF  1783               	bsf	3,7	;select IRP bank3
  1440  04B0  0080               	movwf	0
  1441  04B1                     l5295:	
  1442                           
  1443                           ;loady.c: 230:         }
  1444  04B1  086E               	movf	_key^(0+128),w
  1445  04B2  160A  158A  2550  120A  118A  	fcall	_disp
  1446  04B7                     l5297:	
  1447                           
  1448                           ;loady.c: 231:         key = keypadscan();
  1449  04B7  3001               	movlw	1
  1450  04B8  1683               	bsf	3,5	;RP0=1, select bank1
  1451  04B9  1303               	bcf	3,6	;RP1=0, select bank1
  1452  04BA  00E9               	movwf	??_main^(0+128)
  1453  04BB  0869               	movf	??_main^(0+128),w
  1454  04BC  07ED               	addwf	_i^(0+128),f
  1455  04BD                     l5299:	
  1456                           
  1457                           ;loady.c: 233:         disp(key);
  1458  04BD  3010               	movlw	16
  1459  04BE  1303               	bcf	3,6	;RP1=0, select bank1
  1460  04BF  066E               	xorwf	_key^(0+128),w
  1461  04C0  1D03               	btfss	3,2
  1462  04C1  2CC3               	goto	u7891
  1463  04C2  2CC4               	goto	u7890
  1464  04C3                     u7891:	
  1465  04C3  2DD5               	goto	l5357
  1466  04C4                     u7890:	
  1467  04C4                     l5301:	
  1468  04C4  1683               	bsf	3,5	;RP0=1, select bank3
  1469  04C5  1703               	bsf	3,6	;RP1=1, select bank3
  1470  04C6  0312               	decf	_safe^(0+384),w
  1471  04C7  1D03               	btfss	3,2
  1472  04C8  2CCA               	goto	u7901
  1473  04C9  2CCB               	goto	u7900
  1474  04CA                     u7901:	
  1475  04CA  2DD5               	goto	l5357
  1476  04CB                     u7900:	
  1477  04CB                     l5303:	
  1478                           
  1479                           ;loady.c: 234:         i++;
  1480  04CB  120A  118A  2003  120A  118A  	fcall	_LCD_CLR
  1481                           
  1482                           ;loady.c: 235:     }
  1483  04D0  01F3               	clrf	LCD_CURSOR@c
  1484  04D1  0AF3               	incf	LCD_CURSOR@c,f
  1485  04D2  3002               	movlw	2
  1486  04D3  160A  158A  2359  120A  118A  	fcall	_LCD_CURSOR
  1487  04D8                     l5305:	
  1488                           
  1489                           ;loady.c: 236:     i=0;
  1490  04D8  3090               	movlw	(low ((STR_6-__stringbase)| (0+32768)))& (0+255)
  1491  04D9  160A  158A  21A3  120A  118A  	fcall	_LCD_WRITE_STRING
  1492  04DE                     l5307:	
  1493                           
  1494                           ;loady.c: 237:     LCD_CURSOR(2,15);
  1495  04DE  01F3               	clrf	LCD_CURSOR@c
  1496  04DF  0AF3               	incf	LCD_CURSOR@c,f
  1497  04E0  3001               	movlw	1
  1498  04E1  160A  158A  2359  120A  118A  	fcall	_LCD_CURSOR
  1499                           
  1500                           ;loady.c: 238:     col = 15;
  1501  04E6  30AE               	movlw	(low ((STR_7-__stringbase)| (0+32768)))& (0+255)
  1502  04E7  160A  158A  21A3  120A  118A  	fcall	_LCD_WRITE_STRING
  1503  04EC                     l5309:	
  1504                           
  1505                           ;loady.c: 239:     row=2;
  1506  04EC  300E               	movlw	14
  1507  04ED  1683               	bsf	3,5	;RP0=1, select bank1
  1508  04EE  1303               	bcf	3,6	;RP1=0, select bank1
  1509  04EF  00E9               	movwf	??_main^(0+128)
  1510  04F0  0869               	movf	??_main^(0+128),w
  1511  04F1  1683               	bsf	3,5	;RP0=1, select bank3
  1512  04F2  1703               	bsf	3,6	;RP1=1, select bank3
  1513  04F3  00A0               	movwf	_col^(0+384)
  1514  04F4                     l5311:	
  1515                           
  1516                           ;loady.c: 240:     LCD_SCROLL(0,9,1);
  1517  04F4  019F               	clrf	_row^(0+384)
  1518  04F5  0A9F               	incf	_row^(0+384),f
  1519                           
  1520                           ;loady.c: 241:     while(i<6){
  1521  04F6  2D2C               	goto	l5323
  1522  04F7                     l5313:	
  1523                           
  1524                           ;loady.c: 242:         if(col>16){
  1525  04F7  3011               	movlw	17
  1526  04F8  1683               	bsf	3,5	;RP0=1, select bank3
  1527  04F9  1703               	bsf	3,6	;RP1=1, select bank3
  1528  04FA  0220               	subwf	_col^(0+384),w
  1529  04FB  1C03               	skipc
  1530  04FC  2CFE               	goto	u7911
  1531  04FD  2CFF               	goto	u7910
  1532  04FE                     u7911:	
  1533  04FE  2D0E               	goto	l257
  1534  04FF                     u7910:	
  1535  04FF                     l5315:	
  1536                           
  1537                           ;loady.c: 243:         LCD_SCROLL(1,10,0);
  1538  04FF  300A               	movlw	10
  1539  0500  1683               	bsf	3,5	;RP0=1, select bank1
  1540  0501  1303               	bcf	3,6	;RP1=0, select bank1
  1541  0502  00E9               	movwf	??_main^(0+128)
  1542  0503  0869               	movf	??_main^(0+128),w
  1543  0504  00F3               	movwf	LCD_SCROLL@spd
  1544  0505  3000               	movlw	0
  1545  0506  00F4               	movwf	LCD_SCROLL@ti
  1546  0507  00F5               	movwf	LCD_SCROLL@ti+1
  1547  0508  3001               	movlw	1
  1548  0509  160A  158A  25D4  120A  118A  	fcall	_LCD_SCROLL
  1549  050E                     l257:	
  1550                           ;loady.c: 244:         }
  1551                           
  1552                           
  1553                           ;loady.c: 245:         key = keypadscan();
  1554  050E  120A  158A  2302  120A  118A  	fcall	_keypadscan
  1555  0513  1683               	bsf	3,5	;RP0=1, select bank1
  1556  0514  1303               	bcf	3,6	;RP1=0, select bank1
  1557  0515  00E9               	movwf	??_main^(0+128)
  1558  0516  0869               	movf	??_main^(0+128),w
  1559  0517  00EE               	movwf	_key^(0+128)
  1560  0518                     l5317:	
  1561                           
  1562                           ;loady.c: 246:         dob[i]=key;
  1563  0518  086E               	movf	_key^(0+128),w
  1564  0519  00E9               	movwf	??_main^(0+128)
  1565  051A  086D               	movf	_i^(0+128),w
  1566  051B  3E99               	addlw	(low (_pass| (0+256)))& (0+255)
  1567  051C  0084               	movwf	4
  1568  051D  0869               	movf	??_main^(0+128),w
  1569  051E  1783               	bsf	3,7	;select IRP bank3
  1570  051F  0080               	movwf	0
  1571  0520                     l5319:	
  1572                           
  1573                           ;loady.c: 247:         disp(key);
  1574  0520  086E               	movf	_key^(0+128),w
  1575  0521  160A  158A  2550  120A  118A  	fcall	_disp
  1576  0526                     l5321:	
  1577                           
  1578                           ;loady.c: 248:         i++;
  1579  0526  3001               	movlw	1
  1580  0527  1683               	bsf	3,5	;RP0=1, select bank1
  1581  0528  1303               	bcf	3,6	;RP1=0, select bank1
  1582  0529  00E9               	movwf	??_main^(0+128)
  1583  052A  0869               	movf	??_main^(0+128),w
  1584  052B  07ED               	addwf	_i^(0+128),f
  1585  052C                     l5323:	
  1586                           
  1587                           ;loady.c: 241:     while(i<6){
  1588  052C  3006               	movlw	6
  1589  052D  1303               	bcf	3,6	;RP1=0, select bank1
  1590  052E  026D               	subwf	_i^(0+128),w
  1591  052F  1C03               	skipc
  1592  0530  2D32               	goto	u7921
  1593  0531  2D33               	goto	u7920
  1594  0532                     u7921:	
  1595  0532  2CF7               	goto	l5313
  1596  0533                     u7920:	
  1597  0533                     l5325:	
  1598                           
  1599                           ;loady.c: 250: 
  1600  0533  01ED               	clrf	_i^(0+128)
  1601  0534                     l5327:	
  1602                           
  1603                           ;loady.c: 251:     changePass(pass,0);
  1604  0534  300F               	movlw	15
  1605  0535  00E9               	movwf	??_main^(0+128)
  1606  0536  0869               	movf	??_main^(0+128),w
  1607  0537  00F3               	movwf	LCD_CURSOR@c
  1608  0538  3002               	movlw	2
  1609  0539  160A  158A  2359  120A  118A  	fcall	_LCD_CURSOR
  1610  053E                     l5329:	
  1611                           
  1612                           ;loady.c: 252:     changePass(dob,7);
  1613  053E  300F               	movlw	15
  1614  053F  1683               	bsf	3,5	;RP0=1, select bank1
  1615  0540  1303               	bcf	3,6	;RP1=0, select bank1
  1616  0541  00E9               	movwf	??_main^(0+128)
  1617  0542  0869               	movf	??_main^(0+128),w
  1618  0543  1683               	bsf	3,5	;RP0=1, select bank3
  1619  0544  1703               	bsf	3,6	;RP1=1, select bank3
  1620  0545  00A0               	movwf	_col^(0+384)
  1621  0546                     l5331:	
  1622                           
  1623                           ;loady.c: 253:     LCD_CURSOR(1,1);
  1624  0546  3002               	movlw	2
  1625  0547  1683               	bsf	3,5	;RP0=1, select bank1
  1626  0548  1303               	bcf	3,6	;RP1=0, select bank1
  1627  0549  00E9               	movwf	??_main^(0+128)
  1628  054A  0869               	movf	??_main^(0+128),w
  1629  054B  1683               	bsf	3,5	;RP0=1, select bank3
  1630  054C  1703               	bsf	3,6	;RP1=1, select bank3
  1631  054D  009F               	movwf	_row^(0+384)
  1632  054E                     l5333:	
  1633                           
  1634                           ;loady.c: 254:     LCD_CLR();
  1635  054E  3009               	movlw	9
  1636  054F  1683               	bsf	3,5	;RP0=1, select bank1
  1637  0550  1303               	bcf	3,6	;RP1=0, select bank1
  1638  0551  00E9               	movwf	??_main^(0+128)
  1639  0552  0869               	movf	??_main^(0+128),w
  1640  0553  00F3               	movwf	LCD_SCROLL@spd
  1641  0554  3001               	movlw	1
  1642  0555  00F4               	movwf	LCD_SCROLL@ti
  1643  0556  3000               	movlw	0
  1644  0557  00F5               	movwf	LCD_SCROLL@ti+1
  1645  0558  3000               	movlw	0
  1646  0559  160A  158A  25D4  120A  118A  	fcall	_LCD_SCROLL
  1647                           
  1648                           ;loady.c: 255:     LCD_WRITE_STRING("Password changed.");
  1649  055E  2D94               	goto	l5345
  1650  055F                     l5335:	
  1651                           
  1652                           ;loady.c: 256:     _delay((unsigned long)((100)*(20000000/4000.0)));
  1653  055F  3011               	movlw	17
  1654  0560  1683               	bsf	3,5	;RP0=1, select bank3
  1655  0561  1703               	bsf	3,6	;RP1=1, select bank3
  1656  0562  0220               	subwf	_col^(0+384),w
  1657  0563  1C03               	skipc
  1658  0564  2D66               	goto	u7931
  1659  0565  2D67               	goto	u7930
  1660  0566                     u7931:	
  1661  0566  2D76               	goto	l261
  1662  0567                     u7930:	
  1663  0567                     l5337:	
  1664                           
  1665                           ;loady.c: 257:     reset();
  1666  0567  300A               	movlw	10
  1667  0568  1683               	bsf	3,5	;RP0=1, select bank1
  1668  0569  1303               	bcf	3,6	;RP1=0, select bank1
  1669  056A  00E9               	movwf	??_main^(0+128)
  1670  056B  0869               	movf	??_main^(0+128),w
  1671  056C  00F3               	movwf	LCD_SCROLL@spd
  1672  056D  3000               	movlw	0
  1673  056E  00F4               	movwf	LCD_SCROLL@ti
  1674  056F  00F5               	movwf	LCD_SCROLL@ti+1
  1675  0570  3001               	movlw	1
  1676  0571  160A  158A  25D4  120A  118A  	fcall	_LCD_SCROLL
  1677  0576                     l261:	
  1678                           ;loady.c: 258:     }
  1679                           
  1680                           
  1681                           ;loady.c: 259: 
  1682  0576  120A  158A  2302  120A  118A  	fcall	_keypadscan
  1683  057B  1683               	bsf	3,5	;RP0=1, select bank1
  1684  057C  1303               	bcf	3,6	;RP1=0, select bank1
  1685  057D  00E9               	movwf	??_main^(0+128)
  1686  057E  0869               	movf	??_main^(0+128),w
  1687  057F  00EE               	movwf	_key^(0+128)
  1688  0580                     l5339:	
  1689                           
  1690                           ;loady.c: 260:     if(i==6){
  1691  0580  086E               	movf	_key^(0+128),w
  1692  0581  00E9               	movwf	??_main^(0+128)
  1693  0582  086D               	movf	_i^(0+128),w
  1694  0583  3E93               	addlw	(low (_dob| (0+256)))& (0+255)
  1695  0584  0084               	movwf	4
  1696  0585  0869               	movf	??_main^(0+128),w
  1697  0586  1783               	bsf	3,7	;select IRP bank3
  1698  0587  0080               	movwf	0
  1699  0588                     l5341:	
  1700                           
  1701                           ;loady.c: 261:         if(checkPass(pass,0)){
  1702  0588  086E               	movf	_key^(0+128),w
  1703  0589  160A  158A  2550  120A  118A  	fcall	_disp
  1704  058E                     l5343:	
  1705                           
  1706                           ;loady.c: 262:             i=0;
  1707  058E  3001               	movlw	1
  1708  058F  1683               	bsf	3,5	;RP0=1, select bank1
  1709  0590  1303               	bcf	3,6	;RP1=0, select bank1
  1710  0591  00E9               	movwf	??_main^(0+128)
  1711  0592  0869               	movf	??_main^(0+128),w
  1712  0593  07ED               	addwf	_i^(0+128),f
  1713  0594                     l5345:	
  1714                           
  1715                           ;loady.c: 255:     LCD_WRITE_STRING("Password changed.");
  1716  0594  3006               	movlw	6
  1717  0595  1683               	bsf	3,5	;RP0=1, select bank1
  1718  0596  1303               	bcf	3,6	;RP1=0, select bank1
  1719  0597  026D               	subwf	_i^(0+128),w
  1720  0598  1C03               	skipc
  1721  0599  2D9B               	goto	u7941
  1722  059A  2D9C               	goto	u7940
  1723  059B                     u7941:	
  1724  059B  2D5F               	goto	l5335
  1725  059C                     u7940:	
  1726  059C                     l5347:	
  1727                           
  1728                           ;loady.c: 265:             LCD_CURSOR(1,1);
  1729  059C  01F7               	clrf	changePass@start
  1730  059D  3099               	movlw	(low (_pass| (0+256)))& (0+255)
  1731  059E  160A  158A  22CE  120A  118A  	fcall	_changePass
  1732                           
  1733                           ;loady.c: 266:             LCD_WRITE_STRING("You can enter...");
  1734  05A3  3007               	movlw	7
  1735  05A4  1683               	bsf	3,5	;RP0=1, select bank1
  1736  05A5  1303               	bcf	3,6	;RP1=0, select bank1
  1737  05A6  00E9               	movwf	??_main^(0+128)
  1738  05A7  0869               	movf	??_main^(0+128),w
  1739  05A8  00F7               	movwf	changePass@start
  1740  05A9  3093               	movlw	(low (_dob| (0+256)))& (0+255)
  1741  05AA  160A  158A  22CE  120A  118A  	fcall	_changePass
  1742  05AF                     l5349:	
  1743                           
  1744                           ;loady.c: 267:             LCD_CURSOR(2,1);
  1745  05AF  01F3               	clrf	LCD_CURSOR@c
  1746  05B0  0AF3               	incf	LCD_CURSOR@c,f
  1747  05B1  3001               	movlw	1
  1748  05B2  160A  158A  2359  120A  118A  	fcall	_LCD_CURSOR
  1749  05B7                     l5351:	
  1750                           
  1751                           ;loady.c: 268:             LCD_WRITE_STRING("Press + to change your password");
  1752  05B7  120A  118A  2003  120A  118A  	fcall	_LCD_CLR
  1753                           
  1754                           ;loady.c: 269:             LCD_SCROLL(1,9,16);
  1755  05BC  306D               	movlw	(low ((STR_8-__stringbase)| (0+32768)))& (0+255)
  1756  05BD  160A  158A  21A3  120A  118A  	fcall	_LCD_WRITE_STRING
  1757  05C2                     l5353:	
  1758                           
  1759                           ;loady.c: 270:             }
  1760  05C2  3003               	movlw	3
  1761  05C3  1683               	bsf	3,5	;RP0=1, select bank1
  1762  05C4  1303               	bcf	3,6	;RP1=0, select bank1
  1763  05C5  00EB               	movwf	(??_main^(0+128)+2)
  1764  05C6  308A               	movlw	138
  1765  05C7  00EA               	movwf	(??_main^(0+128)+1)
  1766  05C8  3055               	movlw	85
  1767  05C9  00E9               	movwf	??_main^(0+128)
  1768  05CA                     u8077:	
  1769  05CA  0BE9               	decfsz	??_main^(0+128),f
  1770  05CB  2DCA               	goto	u8077
  1771  05CC  0BEA               	decfsz	(??_main^(0+128)+1),f
  1772  05CD  2DCA               	goto	u8077
  1773  05CE  0BEB               	decfsz	(??_main^(0+128)+2),f
  1774  05CF  2DCA               	goto	u8077
  1775  05D0                     l5355:	
  1776                           
  1777                           ;loady.c: 271:         else{
  1778  05D0  160A  158A  229A  120A  118A  	fcall	_reset
  1779  05D5                     l5357:	
  1780                           
  1781                           ;loady.c: 274:             LCD_WRITE_STRING("Forgot Pass?");
  1782  05D5  3006               	movlw	6
  1783  05D6  1683               	bsf	3,5	;RP0=1, select bank1
  1784  05D7  1303               	bcf	3,6	;RP1=0, select bank1
  1785  05D8  066D               	xorwf	_i^(0+128),w
  1786  05D9  1D03               	btfss	3,2
  1787  05DA  2DDC               	goto	u7951
  1788  05DB  2DDD               	goto	u7950
  1789  05DC                     u7951:	
  1790  05DC  2C90               	goto	l5287
  1791  05DD                     u7950:	
  1792  05DD                     l5359:	
  1793                           
  1794                           ;loady.c: 275:             LCD_CURSOR(2,1);
  1795  05DD  01F1               	clrf	checkPass@start
  1796  05DE  3099               	movlw	(low (_pass| (0+256)))& (0+255)
  1797  05DF  160A  158A  2269  120A  118A  	fcall	_checkPass
  1798  05E4  3A00               	xorlw	0
  1799  05E5  1903               	skipnz
  1800  05E6  2DE8               	goto	u7961
  1801  05E7  2DE9               	goto	u7960
  1802  05E8                     u7961:	
  1803  05E8  2E20               	goto	l5377
  1804  05E9                     u7960:	
  1805  05E9                     l5361:	
  1806                           
  1807                           ;loady.c: 276:             LCD_WRITE_STRING("DOB[dd/mm/yy]:");
  1808  05E9  1683               	bsf	3,5	;RP0=1, select bank1
  1809  05EA  1303               	bcf	3,6	;RP1=0, select bank1
  1810  05EB  01ED               	clrf	_i^(0+128)
  1811  05EC                     l5363:	
  1812                           
  1813                           ;loady.c: 277:             i=0;
  1814  05EC  1283               	bcf	3,5	;RP0=0, select bank0
  1815  05ED  1303               	bcf	3,6	;RP1=0, select bank0
  1816  05EE  1406               	bsf	6,0	;volatile
  1817  05EF                     l5365:	
  1818                           
  1819                           ;loady.c: 278:             LCD_CURSOR(2,15);
  1820  05EF  1683               	bsf	3,5	;RP0=1, select bank3
  1821  05F0  1703               	bsf	3,6	;RP1=1, select bank3
  1822  05F1  0192               	clrf	_safe^(0+384)
  1823  05F2  0A92               	incf	_safe^(0+384),f
  1824  05F3                     l5367:	
  1825                           
  1826                           ;loady.c: 279:             col = 15;
  1827  05F3  01F3               	clrf	LCD_CURSOR@c
  1828  05F4  0AF3               	incf	LCD_CURSOR@c,f
  1829  05F5  3001               	movlw	1
  1830  05F6  160A  158A  2359  120A  118A  	fcall	_LCD_CURSOR
  1831  05FB                     l5369:	
  1832                           
  1833                           ;loady.c: 280:             row=2;
  1834  05FB  307F               	movlw	(low ((STR_9-__stringbase)| (0+32768)))& (0+255)
  1835  05FC  160A  158A  21A3  120A  118A  	fcall	_LCD_WRITE_STRING
  1836  0601                     l5371:	
  1837                           
  1838                           ;loady.c: 281:         while(i<6){
  1839  0601  01F3               	clrf	LCD_CURSOR@c
  1840  0602  0AF3               	incf	LCD_CURSOR@c,f
  1841  0603  3002               	movlw	2
  1842  0604  160A  158A  2359  120A  118A  	fcall	_LCD_CURSOR
  1843  0609                     l5373:	
  1844                           
  1845                           ;loady.c: 282:             if(col>16){
  1846  0609  304D               	movlw	(low ((STR_10-__stringbase)| (0+32768)))& (0+255)
  1847  060A  160A  158A  21A3  120A  118A  	fcall	_LCD_WRITE_STRING
  1848  060F                     l5375:	
  1849                           
  1850                           ;loady.c: 283:                 LCD_SCROLL(1,10,0);
  1851  060F  3009               	movlw	9
  1852  0610  1683               	bsf	3,5	;RP0=1, select bank1
  1853  0611  1303               	bcf	3,6	;RP1=0, select bank1
  1854  0612  00E9               	movwf	??_main^(0+128)
  1855  0613  0869               	movf	??_main^(0+128),w
  1856  0614  00F3               	movwf	LCD_SCROLL@spd
  1857  0615  3010               	movlw	16
  1858  0616  00F4               	movwf	LCD_SCROLL@ti
  1859  0617  3000               	movlw	0
  1860  0618  00F5               	movwf	LCD_SCROLL@ti+1
  1861  0619  3001               	movlw	1
  1862  061A  160A  158A  25D4  120A  118A  	fcall	_LCD_SCROLL
  1863                           
  1864                           ;loady.c: 284:             }
  1865  061F  2C90               	goto	l5287
  1866  0620                     l5377:	
  1867                           
  1868                           ;loady.c: 286:             dob[i]=key;
  1869  0620  3004               	movlw	4
  1870  0621  1683               	bsf	3,5	;RP0=1, select bank3
  1871  0622  1703               	bsf	3,6	;RP1=1, select bank3
  1872  0623  0612               	xorwf	_safe^(0+384),w
  1873  0624  1D03               	btfss	3,2
  1874  0625  2E27               	goto	u7971
  1875  0626  2E28               	goto	u7970
  1876  0627                     u7971:	
  1877  0627  2FB7               	goto	l5461
  1878  0628                     u7970:	
  1879  0628                     l5379:	
  1880                           
  1881                           ;loady.c: 287:             disp(key);
  1882  0628  01F3               	clrf	LCD_CURSOR@c
  1883  0629  0AF3               	incf	LCD_CURSOR@c,f
  1884  062A  3001               	movlw	1
  1885  062B  160A  158A  2359  120A  118A  	fcall	_LCD_CURSOR
  1886  0630                     l5381:	
  1887                           
  1888                           ;loady.c: 288:             i++;
  1889  0630  30BC               	movlw	(low ((STR_11-__stringbase)| (0+32768)))& (0+255)
  1890  0631  160A  158A  21A3  120A  118A  	fcall	_LCD_WRITE_STRING
  1891  0636                     l5383:	
  1892                           
  1893                           ;loady.c: 289:             }
  1894  0636  01F3               	clrf	LCD_CURSOR@c
  1895  0637  0AF3               	incf	LCD_CURSOR@c,f
  1896  0638  3002               	movlw	2
  1897  0639  160A  158A  2359  120A  118A  	fcall	_LCD_CURSOR
  1898                           
  1899                           ;loady.c: 290:             if(checkPass(dob,7)){
  1900  063E  3090               	movlw	(low ((STR_6-__stringbase)| (0+32768)))& (0+255)
  1901  063F  160A  158A  21A3  120A  118A  	fcall	_LCD_WRITE_STRING
  1902  0644                     l5385:	
  1903                           
  1904                           ;loady.c: 291:                 LCD_CLR();
  1905  0644  1683               	bsf	3,5	;RP0=1, select bank1
  1906  0645  1303               	bcf	3,6	;RP1=0, select bank1
  1907  0646  01ED               	clrf	_i^(0+128)
  1908  0647                     l5387:	
  1909                           
  1910                           ;loady.c: 292:     LCD_CURSOR(2,1);
  1911  0647  300F               	movlw	15
  1912  0648  00E9               	movwf	??_main^(0+128)
  1913  0649  0869               	movf	??_main^(0+128),w
  1914  064A  00F3               	movwf	LCD_CURSOR@c
  1915  064B  3002               	movlw	2
  1916  064C  160A  158A  2359  120A  118A  	fcall	_LCD_CURSOR
  1917  0651                     l5389:	
  1918                           
  1919                           ;loady.c: 293:     LCD_WRITE_STRING("DOB[dd/mm/yy]:");
  1920  0651  300F               	movlw	15
  1921  0652  1683               	bsf	3,5	;RP0=1, select bank1
  1922  0653  1303               	bcf	3,6	;RP1=0, select bank1
  1923  0654  00E9               	movwf	??_main^(0+128)
  1924  0655  0869               	movf	??_main^(0+128),w
  1925  0656  1683               	bsf	3,5	;RP0=1, select bank3
  1926  0657  1703               	bsf	3,6	;RP1=1, select bank3
  1927  0658  00A0               	movwf	_col^(0+384)
  1928  0659                     l5391:	
  1929                           
  1930                           ;loady.c: 294:     LCD_CURSOR(1,1);
  1931  0659  3002               	movlw	2
  1932  065A  1683               	bsf	3,5	;RP0=1, select bank1
  1933  065B  1303               	bcf	3,6	;RP1=0, select bank1
  1934  065C  00E9               	movwf	??_main^(0+128)
  1935  065D  0869               	movf	??_main^(0+128),w
  1936  065E  1683               	bsf	3,5	;RP0=1, select bank3
  1937  065F  1703               	bsf	3,6	;RP1=1, select bank3
  1938  0660  009F               	movwf	_row^(0+384)
  1939                           
  1940                           ;loady.c: 295:     LCD_WRITE_STRING("New Password:");
  1941  0661  2E97               	goto	l5403
  1942  0662                     l5393:	
  1943                           
  1944                           ;loady.c: 296:     col = 14;
  1945  0662  3011               	movlw	17
  1946  0663  1683               	bsf	3,5	;RP0=1, select bank3
  1947  0664  1703               	bsf	3,6	;RP1=1, select bank3
  1948  0665  0220               	subwf	_col^(0+384),w
  1949  0666  1C03               	skipc
  1950  0667  2E69               	goto	u7981
  1951  0668  2E6A               	goto	u7980
  1952  0669                     u7981:	
  1953  0669  2E79               	goto	l269
  1954  066A                     u7980:	
  1955  066A                     l5395:	
  1956                           
  1957                           ;loady.c: 297:     row=1;
  1958  066A  300A               	movlw	10
  1959  066B  1683               	bsf	3,5	;RP0=1, select bank1
  1960  066C  1303               	bcf	3,6	;RP1=0, select bank1
  1961  066D  00E9               	movwf	??_main^(0+128)
  1962  066E  0869               	movf	??_main^(0+128),w
  1963  066F  00F3               	movwf	LCD_SCROLL@spd
  1964  0670  3000               	movlw	0
  1965  0671  00F4               	movwf	LCD_SCROLL@ti
  1966  0672  00F5               	movwf	LCD_SCROLL@ti+1
  1967  0673  3001               	movlw	1
  1968  0674  160A  158A  25D4  120A  118A  	fcall	_LCD_SCROLL
  1969  0679                     l269:	
  1970                           ;loady.c: 298:     while(i<6){
  1971                           
  1972                           
  1973                           ;loady.c: 299:         if(col>16){
  1974  0679  120A  158A  2302  120A  118A  	fcall	_keypadscan
  1975  067E  1683               	bsf	3,5	;RP0=1, select bank1
  1976  067F  1303               	bcf	3,6	;RP1=0, select bank1
  1977  0680  00E9               	movwf	??_main^(0+128)
  1978  0681  0869               	movf	??_main^(0+128),w
  1979  0682  00EE               	movwf	_key^(0+128)
  1980  0683                     l5397:	
  1981                           
  1982                           ;loady.c: 300:         LCD_SCROLL(1,10,0);
  1983  0683  086E               	movf	_key^(0+128),w
  1984  0684  00E9               	movwf	??_main^(0+128)
  1985  0685  086D               	movf	_i^(0+128),w
  1986  0686  3E93               	addlw	(low (_dob| (0+256)))& (0+255)
  1987  0687  0084               	movwf	4
  1988  0688  0869               	movf	??_main^(0+128),w
  1989  0689  1783               	bsf	3,7	;select IRP bank3
  1990  068A  0080               	movwf	0
  1991  068B                     l5399:	
  1992                           
  1993                           ;loady.c: 301:         }
  1994  068B  086E               	movf	_key^(0+128),w
  1995  068C  160A  158A  2550  120A  118A  	fcall	_disp
  1996  0691                     l5401:	
  1997                           
  1998                           ;loady.c: 302:         key = keypadscan();
  1999  0691  3001               	movlw	1
  2000  0692  1683               	bsf	3,5	;RP0=1, select bank1
  2001  0693  1303               	bcf	3,6	;RP1=0, select bank1
  2002  0694  00E9               	movwf	??_main^(0+128)
  2003  0695  0869               	movf	??_main^(0+128),w
  2004  0696  07ED               	addwf	_i^(0+128),f
  2005  0697                     l5403:	
  2006                           
  2007                           ;loady.c: 295:     LCD_WRITE_STRING("New Password:");
  2008  0697  3006               	movlw	6
  2009  0698  1303               	bcf	3,6	;RP1=0, select bank1
  2010  0699  026D               	subwf	_i^(0+128),w
  2011  069A  1C03               	skipc
  2012  069B  2E9D               	goto	u7991
  2013  069C  2E9E               	goto	u7990
  2014  069D                     u7991:	
  2015  069D  2E62               	goto	l5393
  2016  069E                     u7990:	
  2017  069E                     l5405:	
  2018                           
  2019                           ;loady.c: 304:         disp(key);
  2020  069E  3007               	movlw	7
  2021  069F  00E9               	movwf	??_main^(0+128)
  2022  06A0  0869               	movf	??_main^(0+128),w
  2023  06A1  00F1               	movwf	checkPass@start
  2024  06A2  3093               	movlw	(low (_dob| (0+256)))& (0+255)
  2025  06A3  160A  158A  2269  120A  118A  	fcall	_checkPass
  2026  06A8  3A00               	xorlw	0
  2027  06A9  1903               	skipnz
  2028  06AA  2EAC               	goto	u8001
  2029  06AB  2EAD               	goto	u8000
  2030  06AC                     u8001:	
  2031  06AC  2FB7               	goto	l5461
  2032  06AD                     u8000:	
  2033  06AD                     l5407:	
  2034                           
  2035                           ;loady.c: 305:         i++;
  2036  06AD  120A  118A  2003  120A  118A  	fcall	_LCD_CLR
  2037                           
  2038                           ;loady.c: 306:     }
  2039  06B2  01F3               	clrf	LCD_CURSOR@c
  2040  06B3  0AF3               	incf	LCD_CURSOR@c,f
  2041  06B4  3002               	movlw	2
  2042  06B5  160A  158A  2359  120A  118A  	fcall	_LCD_CURSOR
  2043  06BA                     l5409:	
  2044                           
  2045                           ;loady.c: 307:     i=0;
  2046  06BA  3090               	movlw	(low ((STR_6-__stringbase)| (0+32768)))& (0+255)
  2047  06BB  160A  158A  21A3  120A  118A  	fcall	_LCD_WRITE_STRING
  2048  06C0                     l5411:	
  2049                           
  2050                           ;loady.c: 308:     LCD_CURSOR(2,15);
  2051  06C0  01F3               	clrf	LCD_CURSOR@c
  2052  06C1  0AF3               	incf	LCD_CURSOR@c,f
  2053  06C2  3001               	movlw	1
  2054  06C3  160A  158A  2359  120A  118A  	fcall	_LCD_CURSOR
  2055                           
  2056                           ;loady.c: 309:     col = 15;
  2057  06C8  30AE               	movlw	(low ((STR_7-__stringbase)| (0+32768)))& (0+255)
  2058  06C9  160A  158A  21A3  120A  118A  	fcall	_LCD_WRITE_STRING
  2059  06CE                     l5413:	
  2060                           
  2061                           ;loady.c: 310:     row=2;
  2062  06CE  300E               	movlw	14
  2063  06CF  1683               	bsf	3,5	;RP0=1, select bank1
  2064  06D0  1303               	bcf	3,6	;RP1=0, select bank1
  2065  06D1  00E9               	movwf	??_main^(0+128)
  2066  06D2  0869               	movf	??_main^(0+128),w
  2067  06D3  1683               	bsf	3,5	;RP0=1, select bank3
  2068  06D4  1703               	bsf	3,6	;RP1=1, select bank3
  2069  06D5  00A0               	movwf	_col^(0+384)
  2070  06D6                     l5415:	
  2071                           
  2072                           ;loady.c: 311:     LCD_SCROLL(0,9,1);
  2073  06D6  019F               	clrf	_row^(0+384)
  2074  06D7  0A9F               	incf	_row^(0+384),f
  2075                           
  2076                           ;loady.c: 312:     while(i<6){
  2077  06D8  2F0E               	goto	l5427
  2078  06D9                     l5417:	
  2079                           
  2080                           ;loady.c: 313:         if(col>16){
  2081  06D9  3011               	movlw	17
  2082  06DA  1683               	bsf	3,5	;RP0=1, select bank3
  2083  06DB  1703               	bsf	3,6	;RP1=1, select bank3
  2084  06DC  0220               	subwf	_col^(0+384),w
  2085  06DD  1C03               	skipc
  2086  06DE  2EE0               	goto	u8011
  2087  06DF  2EE1               	goto	u8010
  2088  06E0                     u8011:	
  2089  06E0  2EF0               	goto	l274
  2090  06E1                     u8010:	
  2091  06E1                     l5419:	
  2092                           
  2093                           ;loady.c: 314:         LCD_SCROLL(1,10,0);
  2094  06E1  300A               	movlw	10
  2095  06E2  1683               	bsf	3,5	;RP0=1, select bank1
  2096  06E3  1303               	bcf	3,6	;RP1=0, select bank1
  2097  06E4  00E9               	movwf	??_main^(0+128)
  2098  06E5  0869               	movf	??_main^(0+128),w
  2099  06E6  00F3               	movwf	LCD_SCROLL@spd
  2100  06E7  3000               	movlw	0
  2101  06E8  00F4               	movwf	LCD_SCROLL@ti
  2102  06E9  00F5               	movwf	LCD_SCROLL@ti+1
  2103  06EA  3001               	movlw	1
  2104  06EB  160A  158A  25D4  120A  118A  	fcall	_LCD_SCROLL
  2105  06F0                     l274:	
  2106                           ;loady.c: 315:         }
  2107                           
  2108                           
  2109                           ;loady.c: 316:         key = keypadscan();
  2110  06F0  120A  158A  2302  120A  118A  	fcall	_keypadscan
  2111  06F5  1683               	bsf	3,5	;RP0=1, select bank1
  2112  06F6  1303               	bcf	3,6	;RP1=0, select bank1
  2113  06F7  00E9               	movwf	??_main^(0+128)
  2114  06F8  0869               	movf	??_main^(0+128),w
  2115  06F9  00EE               	movwf	_key^(0+128)
  2116  06FA                     l5421:	
  2117                           
  2118                           ;loady.c: 317:         dob[i]=key;
  2119  06FA  086E               	movf	_key^(0+128),w
  2120  06FB  00E9               	movwf	??_main^(0+128)
  2121  06FC  086D               	movf	_i^(0+128),w
  2122  06FD  3E99               	addlw	(low (_pass| (0+256)))& (0+255)
  2123  06FE  0084               	movwf	4
  2124  06FF  0869               	movf	??_main^(0+128),w
  2125  0700  1783               	bsf	3,7	;select IRP bank3
  2126  0701  0080               	movwf	0
  2127  0702                     l5423:	
  2128                           
  2129                           ;loady.c: 318:         disp(key);
  2130  0702  086E               	movf	_key^(0+128),w
  2131  0703  160A  158A  2550  120A  118A  	fcall	_disp
  2132  0708                     l5425:	
  2133                           
  2134                           ;loady.c: 319:         i++;
  2135  0708  3001               	movlw	1
  2136  0709  1683               	bsf	3,5	;RP0=1, select bank1
  2137  070A  1303               	bcf	3,6	;RP1=0, select bank1
  2138  070B  00E9               	movwf	??_main^(0+128)
  2139  070C  0869               	movf	??_main^(0+128),w
  2140  070D  07ED               	addwf	_i^(0+128),f
  2141  070E                     l5427:	
  2142                           
  2143                           ;loady.c: 312:     while(i<6){
  2144  070E  3006               	movlw	6
  2145  070F  1303               	bcf	3,6	;RP1=0, select bank1
  2146  0710  026D               	subwf	_i^(0+128),w
  2147  0711  1C03               	skipc
  2148  0712  2F14               	goto	u8021
  2149  0713  2F15               	goto	u8020
  2150  0714                     u8021:	
  2151  0714  2ED9               	goto	l5417
  2152  0715                     u8020:	
  2153  0715                     l5429:	
  2154                           
  2155                           ;loady.c: 321: 
  2156  0715  01ED               	clrf	_i^(0+128)
  2157  0716                     l5431:	
  2158                           
  2159                           ;loady.c: 322:     changePass(pass,0);
  2160  0716  300F               	movlw	15
  2161  0717  00E9               	movwf	??_main^(0+128)
  2162  0718  0869               	movf	??_main^(0+128),w
  2163  0719  00F3               	movwf	LCD_CURSOR@c
  2164  071A  3002               	movlw	2
  2165  071B  160A  158A  2359  120A  118A  	fcall	_LCD_CURSOR
  2166  0720                     l5433:	
  2167                           
  2168                           ;loady.c: 323:     changePass(dob,7);
  2169  0720  300F               	movlw	15
  2170  0721  1683               	bsf	3,5	;RP0=1, select bank1
  2171  0722  1303               	bcf	3,6	;RP1=0, select bank1
  2172  0723  00E9               	movwf	??_main^(0+128)
  2173  0724  0869               	movf	??_main^(0+128),w
  2174  0725  1683               	bsf	3,5	;RP0=1, select bank3
  2175  0726  1703               	bsf	3,6	;RP1=1, select bank3
  2176  0727  00A0               	movwf	_col^(0+384)
  2177  0728                     l5435:	
  2178                           
  2179                           ;loady.c: 324:     LCD_CURSOR(1,1);
  2180  0728  3002               	movlw	2
  2181  0729  1683               	bsf	3,5	;RP0=1, select bank1
  2182  072A  1303               	bcf	3,6	;RP1=0, select bank1
  2183  072B  00E9               	movwf	??_main^(0+128)
  2184  072C  0869               	movf	??_main^(0+128),w
  2185  072D  1683               	bsf	3,5	;RP0=1, select bank3
  2186  072E  1703               	bsf	3,6	;RP1=1, select bank3
  2187  072F  009F               	movwf	_row^(0+384)
  2188  0730                     l5437:	
  2189                           
  2190                           ;loady.c: 325:     LCD_CLR();
  2191  0730  3009               	movlw	9
  2192  0731  1683               	bsf	3,5	;RP0=1, select bank1
  2193  0732  1303               	bcf	3,6	;RP1=0, select bank1
  2194  0733  00E9               	movwf	??_main^(0+128)
  2195  0734  0869               	movf	??_main^(0+128),w
  2196  0735  00F3               	movwf	LCD_SCROLL@spd
  2197  0736  3001               	movlw	1
  2198  0737  00F4               	movwf	LCD_SCROLL@ti
  2199  0738  3000               	movlw	0
  2200  0739  00F5               	movwf	LCD_SCROLL@ti+1
  2201  073A  3000               	movlw	0
  2202  073B  160A  158A  25D4  120A  118A  	fcall	_LCD_SCROLL
  2203                           
  2204                           ;loady.c: 326:     LCD_WRITE_STRING("Password changed.");
  2205  0740  2F76               	goto	l5449
  2206  0741                     l5439:	
  2207                           
  2208                           ;loady.c: 327:     _delay((unsigned long)((100)*(20000000/4000.0)));
  2209  0741  3011               	movlw	17
  2210  0742  1683               	bsf	3,5	;RP0=1, select bank3
  2211  0743  1703               	bsf	3,6	;RP1=1, select bank3
  2212  0744  0220               	subwf	_col^(0+384),w
  2213  0745  1C03               	skipc
  2214  0746  2F48               	goto	u8031
  2215  0747  2F49               	goto	u8030
  2216  0748                     u8031:	
  2217  0748  2F58               	goto	l278
  2218  0749                     u8030:	
  2219  0749                     l5441:	
  2220                           
  2221                           ;loady.c: 328:     reset();
  2222  0749  300A               	movlw	10
  2223  074A  1683               	bsf	3,5	;RP0=1, select bank1
  2224  074B  1303               	bcf	3,6	;RP1=0, select bank1
  2225  074C  00E9               	movwf	??_main^(0+128)
  2226  074D  0869               	movf	??_main^(0+128),w
  2227  074E  00F3               	movwf	LCD_SCROLL@spd
  2228  074F  3000               	movlw	0
  2229  0750  00F4               	movwf	LCD_SCROLL@ti
  2230  0751  00F5               	movwf	LCD_SCROLL@ti+1
  2231  0752  3001               	movlw	1
  2232  0753  160A  158A  25D4  120A  118A  	fcall	_LCD_SCROLL
  2233  0758                     l278:	
  2234                           ;loady.c: 329:             }
  2235                           
  2236                           
  2237                           ;loady.c: 330: 
  2238  0758  120A  158A  2302  120A  118A  	fcall	_keypadscan
  2239  075D  1683               	bsf	3,5	;RP0=1, select bank1
  2240  075E  1303               	bcf	3,6	;RP1=0, select bank1
  2241  075F  00E9               	movwf	??_main^(0+128)
  2242  0760  0869               	movf	??_main^(0+128),w
  2243  0761  00EE               	movwf	_key^(0+128)
  2244  0762                     l5443:	
  2245                           
  2246                           ;loady.c: 331:             }
  2247  0762  086E               	movf	_key^(0+128),w
  2248  0763  00E9               	movwf	??_main^(0+128)
  2249  0764  086D               	movf	_i^(0+128),w
  2250  0765  3E93               	addlw	(low (_dob| (0+256)))& (0+255)
  2251  0766  0084               	movwf	4
  2252  0767  0869               	movf	??_main^(0+128),w
  2253  0768  1783               	bsf	3,7	;select IRP bank3
  2254  0769  0080               	movwf	0
  2255  076A                     l5445:	
  2256                           
  2257                           ;loady.c: 332:         LCD_CLR();
  2258  076A  086E               	movf	_key^(0+128),w
  2259  076B  160A  158A  2550  120A  118A  	fcall	_disp
  2260  0770                     l5447:	
  2261                           
  2262                           ;loady.c: 333:         LCD_CURSOR(1,1);
  2263  0770  3001               	movlw	1
  2264  0771  1683               	bsf	3,5	;RP0=1, select bank1
  2265  0772  1303               	bcf	3,6	;RP1=0, select bank1
  2266  0773  00E9               	movwf	??_main^(0+128)
  2267  0774  0869               	movf	??_main^(0+128),w
  2268  0775  07ED               	addwf	_i^(0+128),f
  2269  0776                     l5449:	
  2270                           
  2271                           ;loady.c: 326:     LCD_WRITE_STRING("Password changed.");
  2272  0776  3006               	movlw	6
  2273  0777  1683               	bsf	3,5	;RP0=1, select bank1
  2274  0778  1303               	bcf	3,6	;RP1=0, select bank1
  2275  0779  026D               	subwf	_i^(0+128),w
  2276  077A  1C03               	skipc
  2277  077B  2F7D               	goto	u8041
  2278  077C  2F7E               	goto	u8040
  2279  077D                     u8041:	
  2280  077D  2F41               	goto	l5439
  2281  077E                     u8040:	
  2282  077E                     l5451:	
  2283                           
  2284                           ;loady.c: 336:         reset();
  2285  077E  01F7               	clrf	changePass@start
  2286  077F  3099               	movlw	(low (_pass| (0+256)))& (0+255)
  2287  0780  160A  158A  22CE  120A  118A  	fcall	_changePass
  2288                           
  2289                           ;loady.c: 337:         safe+=2;
  2290  0785  3007               	movlw	7
  2291  0786  1683               	bsf	3,5	;RP0=1, select bank1
  2292  0787  1303               	bcf	3,6	;RP1=0, select bank1
  2293  0788  00E9               	movwf	??_main^(0+128)
  2294  0789  0869               	movf	??_main^(0+128),w
  2295  078A  00F7               	movwf	changePass@start
  2296  078B  3093               	movlw	(low (_dob| (0+256)))& (0+255)
  2297  078C  160A  158A  22CE  120A  118A  	fcall	_changePass
  2298  0791                     l5453:	
  2299                           
  2300                           ;loady.c: 338:         }
  2301  0791  01F3               	clrf	LCD_CURSOR@c
  2302  0792  0AF3               	incf	LCD_CURSOR@c,f
  2303  0793  3001               	movlw	1
  2304  0794  160A  158A  2359  120A  118A  	fcall	_LCD_CURSOR
  2305  0799                     l5455:	
  2306                           
  2307                           ;loady.c: 339:     }
  2308  0799  120A  118A  2003  120A  118A  	fcall	_LCD_CLR
  2309                           
  2310                           ;loady.c: 340: }
  2311  079E  306D               	movlw	(low ((STR_8-__stringbase)| (0+32768)))& (0+255)
  2312  079F  160A  158A  21A3  120A  118A  	fcall	_LCD_WRITE_STRING
  2313  07A4                     l5457:	
  2314                           
  2315                           ;loady.c: 341:     return;
  2316  07A4  3003               	movlw	3
  2317  07A5  1683               	bsf	3,5	;RP0=1, select bank1
  2318  07A6  1303               	bcf	3,6	;RP1=0, select bank1
  2319  07A7  00EB               	movwf	(??_main^(0+128)+2)
  2320  07A8  308A               	movlw	138
  2321  07A9  00EA               	movwf	(??_main^(0+128)+1)
  2322  07AA  3055               	movlw	85
  2323  07AB  00E9               	movwf	??_main^(0+128)
  2324  07AC                     u8087:	
  2325  07AC  0BE9               	decfsz	??_main^(0+128),f
  2326  07AD  2FAC               	goto	u8087
  2327  07AE  0BEA               	decfsz	(??_main^(0+128)+1),f
  2328  07AF  2FAC               	goto	u8087
  2329  07B0  0BEB               	decfsz	(??_main^(0+128)+2),f
  2330  07B1  2FAC               	goto	u8087
  2331  07B2                     l5459:	
  2332                           
  2333                           ;loady.c: 342: }
  2334  07B2  160A  158A  229A  120A  118A  	fcall	_reset
  2335  07B7                     l5461:	
  2336  07B7  120A  118A  2003  120A  118A  	fcall	_LCD_CLR
  2337  07BC                     l5463:	
  2338  07BC  01F3               	clrf	LCD_CURSOR@c
  2339  07BD  0AF3               	incf	LCD_CURSOR@c,f
  2340  07BE  3001               	movlw	1
  2341  07BF  160A  158A  2359  120A  118A  	fcall	_LCD_CURSOR
  2342  07C4                     l5465:	
  2343  07C4  309F               	movlw	(low ((STR_16-__stringbase)| (0+32768)))& (0+255)
  2344  07C5  160A  158A  21A3  120A  118A  	fcall	_LCD_WRITE_STRING
  2345  07CA                     l5467:	
  2346  07CA  160A  158A  229A  120A  118A  	fcall	_reset
  2347  07CF                     l5469:	
  2348  07CF  3002               	movlw	2
  2349  07D0  1683               	bsf	3,5	;RP0=1, select bank1
  2350  07D1  1303               	bcf	3,6	;RP1=0, select bank1
  2351  07D2  00E9               	movwf	??_main^(0+128)
  2352  07D3  0869               	movf	??_main^(0+128),w
  2353  07D4  1683               	bsf	3,5	;RP0=1, select bank3
  2354  07D5  1703               	bsf	3,6	;RP1=1, select bank3
  2355  07D6  0792               	addwf	_safe^(0+384),f
  2356  07D7  2C90               	goto	l5287
  2357  07D8  120A  118A  2800   	ljmp	start
  2358  07DB                     __end_of_main:	
  2359                           
  2360                           	psect	text1
  2361  1A9A                     __ptext1:	
  2362 ;; *************** function _reset *****************
  2363 ;; Defined at:
  2364 ;;		line 190 in file "loady.c"
  2365 ;; Parameters:    Size  Location     Type
  2366 ;;		None
  2367 ;; Auto vars:     Size  Location     Type
  2368 ;;		None
  2369 ;; Return value:  Size  Location     Type
  2370 ;;                  1    wreg      void 
  2371 ;; Registers used:
  2372 ;;		wreg, fsr0l, fsr0h, status,2, status,0, pclath, cstack
  2373 ;; Tracked objects:
  2374 ;;		On entry : 0/0
  2375 ;;		On exit  : 0/0
  2376 ;;		Unchanged: 0/0
  2377 ;; Data sizes:     COMMON   BANK0   BANK1   BANK3   BANK2
  2378 ;;      Params:         0       0       0       0       0
  2379 ;;      Locals:         0       0       0       0       0
  2380 ;;      Temps:          1       0       0       0       0
  2381 ;;      Totals:         1       0       0       0       0
  2382 ;;Total ram usage:        1 bytes
  2383 ;; Hardware stack levels used:    1
  2384 ;; Hardware stack levels required when called:    3
  2385 ;; This function calls:
  2386 ;;		_LCD_CLR
  2387 ;;		_LCD_CURSOR
  2388 ;;		_LCD_WRITE_STRING
  2389 ;; This function is called by:
  2390 ;;		_main
  2391 ;; This function uses a non-reentrant model
  2392 ;;
  2393                           
  2394                           
  2395                           ;psect for function _reset
  2396  1A9A                     _reset:	
  2397  1A9A                     l5231:	
  2398                           ;incstack = 0
  2399                           ; Regs used in _reset: [wreg-fsr0h+status,2+status,0+pclath+cstack]
  2400                           
  2401                           
  2402                           ;loady.c: 191:     TRISD = 0;
  2403  1A9A  1283               	bcf	3,5	;RP0=0, select bank0
  2404  1A9B  1303               	bcf	3,6	;RP1=0, select bank0
  2405  1A9C  1006               	bcf	6,0	;volatile
  2406  1A9D                     l5233:	
  2407                           
  2408                           ;loady.c: 192:     TRISA = 0;
  2409  1A9D  1683               	bsf	3,5	;RP0=1, select bank1
  2410  1A9E  1303               	bcf	3,6	;RP1=0, select bank1
  2411  1A9F  01ED               	clrf	_i^(0+128)
  2412  1AA0                     l5235:	
  2413                           
  2414                           ;loady.c: 193:     TRISB=0;
  2415  1AA0  300A               	movlw	10
  2416  1AA1  00FA               	movwf	??_reset
  2417  1AA2  087A               	movf	??_reset,w
  2418  1AA3  1683               	bsf	3,5	;RP0=1, select bank3
  2419  1AA4  1703               	bsf	3,6	;RP1=1, select bank3
  2420  1AA5  00A0               	movwf	_col^(0+384)
  2421  1AA6                     l5237:	
  2422                           
  2423                           ;loady.c: 194:     TRISC = 0b11110000;
  2424  1AA6  019F               	clrf	_row^(0+384)
  2425  1AA7  0A9F               	incf	_row^(0+384),f
  2426  1AA8                     l5239:	
  2427                           
  2428                           ;loady.c: 195:     LCD_INIT();
  2429  1AA8  120A  118A  2003  160A  158A  	fcall	_LCD_CLR
  2430  1AAD                     l5241:	
  2431                           
  2432                           ;loady.c: 196:     _delay((unsigned long)((500)*(20000000/4000.0)));
  2433  1AAD  01F3               	clrf	LCD_CURSOR@c
  2434  1AAE  0AF3               	incf	LCD_CURSOR@c,f
  2435  1AAF  3001               	movlw	1
  2436  1AB0  160A  158A  2359  160A  158A  	fcall	_LCD_CURSOR
  2437  1AB5                     l5243:	
  2438                           
  2439                           ;loady.c: 197:     LCD_CLR();
  2440  1AB5  30B2               	movlw	(low (((STR_7+4)-__stringbase)| (0+32768)))& (0+255)
  2441  1AB6  160A  158A  21A3  160A  158A  	fcall	_LCD_WRITE_STRING
  2442  1ABB                     l5245:	
  2443                           
  2444                           ;loady.c: 198:     LCD_WRITE_STRING("Welcome");
  2445  1ABB  300A               	movlw	10
  2446  1ABC  00FA               	movwf	??_reset
  2447  1ABD  087A               	movf	??_reset,w
  2448  1ABE  00F3               	movwf	LCD_CURSOR@c
  2449  1ABF  3001               	movlw	1
  2450  1AC0  160A  158A  2359  160A  158A  	fcall	_LCD_CURSOR
  2451  1AC5                     l5247:	
  2452                           
  2453                           ;loady.c: 199:     _delay((unsigned long)((750)*(20000000/4000.0)));
  2454  1AC5  1683               	bsf	3,5	;RP0=1, select bank3
  2455  1AC6  1703               	bsf	3,6	;RP1=1, select bank3
  2456  1AC7  0312               	decf	_safe^(0+384),w
  2457  1AC8  1D03               	btfss	3,2
  2458  1AC9  2ACB               	goto	u7841
  2459  1ACA  2ACC               	goto	u7840
  2460  1ACB                     u7841:	
  2461  1ACB  2ACD               	goto	l244
  2462  1ACC                     u7840:	
  2463  1ACC                     l5249:	
  2464                           
  2465                           ;loady.c: 200:     LCD_CURSOR(1,1);
  2466  1ACC  0192               	clrf	_safe^(0+384)
  2467  1ACD                     l244:	
  2468  1ACD  0008               	return
  2469  1ACE                     __end_of_reset:	
  2470                           
  2471                           	psect	text2
  2472  0003                     __ptext2:	
  2473 ;; *************** function _LCD_CLR *****************
  2474 ;; Defined at:
  2475 ;;		line 31 in file "./libcd.h"
  2476 ;; Parameters:    Size  Location     Type
  2477 ;;		None
  2478 ;; Auto vars:     Size  Location     Type
  2479 ;;		None
  2480 ;; Return value:  Size  Location     Type
  2481 ;;                  1    wreg      void 
  2482 ;; Registers used:
  2483 ;;		wreg, status,2, status,0, pclath, cstack
  2484 ;; Tracked objects:
  2485 ;;		On entry : 0/0
  2486 ;;		On exit  : 0/0
  2487 ;;		Unchanged: 0/0
  2488 ;; Data sizes:     COMMON   BANK0   BANK1   BANK3   BANK2
  2489 ;;      Params:         0       0       0       0       0
  2490 ;;      Locals:         0       0       0       0       0
  2491 ;;      Temps:          0       0       0       0       0
  2492 ;;      Totals:         0       0       0       0       0
  2493 ;;Total ram usage:        0 bytes
  2494 ;; Hardware stack levels used:    1
  2495 ;; Hardware stack levels required when called:    2
  2496 ;; This function calls:
  2497 ;;		_lcd_cmd
  2498 ;; This function is called by:
  2499 ;;		_reset
  2500 ;;		_main
  2501 ;; This function uses a non-reentrant model
  2502 ;;
  2503                           
  2504                           
  2505                           ;psect for function _LCD_CLR
  2506  0003                     _LCD_CLR:	
  2507  0003                     l5045:	
  2508                           ;incstack = 0
  2509                           ; Regs used in _LCD_CLR: [wreg+status,2+status,0+pclath+cstack]
  2510                           
  2511                           
  2512                           ;./libcd.h: 32:     lcd_cmd(0);
  2513  0003  3000               	movlw	0
  2514  0004  160A  158A  2141  120A  118A  	fcall	_lcd_cmd
  2515                           
  2516                           ;./libcd.h: 33:     lcd_cmd(1);
  2517  0009  3001               	movlw	1
  2518  000A  160A  158A  2141  120A  118A  	fcall	_lcd_cmd
  2519  000F                     l92:	
  2520  000F  0008               	return
  2521  0010                     __end_of_LCD_CLR:	
  2522                           
  2523                           	psect	text3
  2524  0B02                     __ptext3:	
  2525 ;; *************** function _keypadscan *****************
  2526 ;; Defined at:
  2527 ;;		line 19 in file "loady.c"
  2528 ;; Parameters:    Size  Location     Type
  2529 ;;		None
  2530 ;; Auto vars:     Size  Location     Type
  2531 ;;  keypressed      1    3[COMMON] unsigned char 
  2532 ;; Return value:  Size  Location     Type
  2533 ;;                  1    wreg      unsigned char 
  2534 ;; Registers used:
  2535 ;;		wreg, status,2, status,0
  2536 ;; Tracked objects:
  2537 ;;		On entry : 0/0
  2538 ;;		On exit  : 0/0
  2539 ;;		Unchanged: 0/0
  2540 ;; Data sizes:     COMMON   BANK0   BANK1   BANK3   BANK2
  2541 ;;      Params:         0       0       0       0       0
  2542 ;;      Locals:         1       0       0       0       0
  2543 ;;      Temps:          3       0       0       0       0
  2544 ;;      Totals:         4       0       0       0       0
  2545 ;;Total ram usage:        4 bytes
  2546 ;; Hardware stack levels used:    1
  2547 ;; This function calls:
  2548 ;;		Nothing
  2549 ;; This function is called by:
  2550 ;;		_main
  2551 ;; This function uses a non-reentrant model
  2552 ;;
  2553                           
  2554                           
  2555                           ;psect for function _keypadscan
  2556  0B02                     _keypadscan:	
  2557  0B02                     l3679:	
  2558                           ;incstack = 0
  2559                           ; Regs used in _keypadscan: [wreg+status,2+status,0]
  2560                           
  2561                           
  2562                           ;loady.c: 20:             keypressed = 8;
  2563  0B02  3046               	movlw	70
  2564  0B03  00F0               	movwf	??_keypadscan
  2565  0B04  0870               	movf	??_keypadscan,w
  2566  0B05  00F3               	movwf	keypadscan@keypressed
  2567                           
  2568                           ;loady.c: 21:             return keypressed;
  2569  0B06  2D71               	goto	l3799
  2570  0B07                     l3681:	
  2571                           
  2572                           ;loady.c: 22:         }
  2573  0B07  3001               	movlw	1
  2574  0B08  1283               	bcf	3,5	;RP0=0, select bank0
  2575  0B09  1303               	bcf	3,6	;RP1=0, select bank0
  2576  0B0A  0085               	movwf	5	;volatile
  2577  0B0B                     l3683:	
  2578                           
  2579                           ;loady.c: 23:         if(RC6){
  2580  0B0B  1E07               	btfss	7,4	;volatile
  2581  0B0C  2B0E               	goto	u5051
  2582  0B0D  2B0F               	goto	u5050
  2583  0B0E                     u5051:	
  2584  0B0E  2B31               	goto	l155
  2585  0B0F                     u5050:	
  2586  0B0F                     l3685:	
  2587                           
  2588                           ;loady.c: 24:             _delay((unsigned long)((100)*(20000000/4000.0)));
  2589  0B0F  3003               	movlw	3
  2590  0B10  00F2               	movwf	??_keypadscan+2
  2591  0B11  308A               	movlw	138
  2592  0B12  00F1               	movwf	??_keypadscan+1
  2593  0B13  3055               	movlw	85
  2594  0B14  00F0               	movwf	??_keypadscan
  2595  0B15                     u8097:	
  2596  0B15  0BF0               	decfsz	??_keypadscan,f
  2597  0B16  2B15               	goto	u8097
  2598  0B17  0BF1               	decfsz	??_keypadscan+1,f
  2599  0B18  2B15               	goto	u8097
  2600  0B19  0BF2               	decfsz	??_keypadscan+2,f
  2601  0B1A  2B15               	goto	u8097
  2602  0B1B  2B1C               	nop2
  2603  0B1C                     l156:	
  2604                           ;loady.c: 25:             while(RC6);
  2605                           
  2606  0B1C  1283               	bcf	3,5	;RP0=0, select bank0
  2607  0B1D  1303               	bcf	3,6	;RP1=0, select bank0
  2608  0B1E  1A07               	btfsc	7,4	;volatile
  2609  0B1F  2B21               	goto	u5061
  2610  0B20  2B22               	goto	u5060
  2611  0B21                     u5061:	
  2612  0B21  2B1C               	goto	l156
  2613  0B22                     u5060:	
  2614  0B22                     l3687:	
  2615                           
  2616                           ;loady.c: 26:             _delay((unsigned long)((100)*(20000000/4000.0)));
  2617  0B22  3003               	movlw	3
  2618  0B23  00F2               	movwf	??_keypadscan+2
  2619  0B24  308A               	movlw	138
  2620  0B25  00F1               	movwf	??_keypadscan+1
  2621  0B26  3055               	movlw	85
  2622  0B27  00F0               	movwf	??_keypadscan
  2623  0B28                     u8107:	
  2624  0B28  0BF0               	decfsz	??_keypadscan,f
  2625  0B29  2B28               	goto	u8107
  2626  0B2A  0BF1               	decfsz	??_keypadscan+1,f
  2627  0B2B  2B28               	goto	u8107
  2628  0B2C  0BF2               	decfsz	??_keypadscan+2,f
  2629  0B2D  2B28               	goto	u8107
  2630  0B2E  2B2F               	nop2
  2631                           
  2632                           ;loady.c: 28:             return keypressed;
  2633  0B2F  3007               	movlw	7
  2634  0B30  2D77               	goto	l159
  2635  0B31                     l155:	
  2636                           ;loady.c: 29:         }
  2637                           
  2638                           
  2639                           ;loady.c: 30:         if(RC7){
  2640  0B31  1E87               	btfss	7,5	;volatile
  2641  0B32  2B34               	goto	u5071
  2642  0B33  2B35               	goto	u5070
  2643  0B34                     u5071:	
  2644  0B34  2B57               	goto	l160
  2645  0B35                     u5070:	
  2646  0B35                     l3691:	
  2647                           
  2648                           ;loady.c: 31:             _delay((unsigned long)((100)*(20000000/4000.0)));
  2649  0B35  3003               	movlw	3
  2650  0B36  00F2               	movwf	??_keypadscan+2
  2651  0B37  308A               	movlw	138
  2652  0B38  00F1               	movwf	??_keypadscan+1
  2653  0B39  3055               	movlw	85
  2654  0B3A  00F0               	movwf	??_keypadscan
  2655  0B3B                     u8117:	
  2656  0B3B  0BF0               	decfsz	??_keypadscan,f
  2657  0B3C  2B3B               	goto	u8117
  2658  0B3D  0BF1               	decfsz	??_keypadscan+1,f
  2659  0B3E  2B3B               	goto	u8117
  2660  0B3F  0BF2               	decfsz	??_keypadscan+2,f
  2661  0B40  2B3B               	goto	u8117
  2662  0B41  2B42               	nop2
  2663  0B42                     l161:	
  2664                           ;loady.c: 32:             while(RC7);
  2665                           
  2666  0B42  1283               	bcf	3,5	;RP0=0, select bank0
  2667  0B43  1303               	bcf	3,6	;RP1=0, select bank0
  2668  0B44  1A87               	btfsc	7,5	;volatile
  2669  0B45  2B47               	goto	u5081
  2670  0B46  2B48               	goto	u5080
  2671  0B47                     u5081:	
  2672  0B47  2B42               	goto	l161
  2673  0B48                     u5080:	
  2674  0B48                     l3693:	
  2675                           
  2676                           ;loady.c: 33:             _delay((unsigned long)((100)*(20000000/4000.0)));
  2677  0B48  3003               	movlw	3
  2678  0B49  00F2               	movwf	??_keypadscan+2
  2679  0B4A  308A               	movlw	138
  2680  0B4B  00F1               	movwf	??_keypadscan+1
  2681  0B4C  3055               	movlw	85
  2682  0B4D  00F0               	movwf	??_keypadscan
  2683  0B4E                     u8127:	
  2684  0B4E  0BF0               	decfsz	??_keypadscan,f
  2685  0B4F  2B4E               	goto	u8127
  2686  0B50  0BF1               	decfsz	??_keypadscan+1,f
  2687  0B51  2B4E               	goto	u8127
  2688  0B52  0BF2               	decfsz	??_keypadscan+2,f
  2689  0B53  2B4E               	goto	u8127
  2690  0B54  2B55               	nop2
  2691                           
  2692                           ;loady.c: 35:             return keypressed;
  2693  0B55  3008               	movlw	8
  2694  0B56  2D77               	goto	l159
  2695  0B57                     l160:	
  2696                           ;loady.c: 36:         }
  2697                           
  2698                           
  2699                           ;loady.c: 37: 
  2700  0B57  1F07               	btfss	7,6	;volatile
  2701  0B58  2B5A               	goto	u5091
  2702  0B59  2B5B               	goto	u5090
  2703  0B5A                     u5091:	
  2704  0B5A  2B7D               	goto	l164
  2705  0B5B                     u5090:	
  2706  0B5B                     l3697:	
  2707                           
  2708                           ;loady.c: 38: 
  2709  0B5B  3003               	movlw	3
  2710  0B5C  00F2               	movwf	??_keypadscan+2
  2711  0B5D  308A               	movlw	138
  2712  0B5E  00F1               	movwf	??_keypadscan+1
  2713  0B5F  3055               	movlw	85
  2714  0B60  00F0               	movwf	??_keypadscan
  2715  0B61                     u8137:	
  2716  0B61  0BF0               	decfsz	??_keypadscan,f
  2717  0B62  2B61               	goto	u8137
  2718  0B63  0BF1               	decfsz	??_keypadscan+1,f
  2719  0B64  2B61               	goto	u8137
  2720  0B65  0BF2               	decfsz	??_keypadscan+2,f
  2721  0B66  2B61               	goto	u8137
  2722  0B67  2B68               	nop2
  2723  0B68                     l165:	
  2724                           ;loady.c: 39:         PORTA = 0b00000010;
  2725                           
  2726  0B68  1283               	bcf	3,5	;RP0=0, select bank0
  2727  0B69  1303               	bcf	3,6	;RP1=0, select bank0
  2728  0B6A  1B07               	btfsc	7,6	;volatile
  2729  0B6B  2B6D               	goto	u5101
  2730  0B6C  2B6E               	goto	u5100
  2731  0B6D                     u5101:	
  2732  0B6D  2B68               	goto	l165
  2733  0B6E                     u5100:	
  2734  0B6E                     l3699:	
  2735                           
  2736                           ;loady.c: 40:         if(RC4){
  2737  0B6E  3003               	movlw	3
  2738  0B6F  00F2               	movwf	??_keypadscan+2
  2739  0B70  308A               	movlw	138
  2740  0B71  00F1               	movwf	??_keypadscan+1
  2741  0B72  3055               	movlw	85
  2742  0B73  00F0               	movwf	??_keypadscan
  2743  0B74                     u8147:	
  2744  0B74  0BF0               	decfsz	??_keypadscan,f
  2745  0B75  2B74               	goto	u8147
  2746  0B76  0BF1               	decfsz	??_keypadscan+1,f
  2747  0B77  2B74               	goto	u8147
  2748  0B78  0BF2               	decfsz	??_keypadscan+2,f
  2749  0B79  2B74               	goto	u8147
  2750  0B7A  2B7B               	nop2
  2751                           
  2752                           ;loady.c: 42:             while(RC4);
  2753  0B7B  3009               	movlw	9
  2754  0B7C  2D77               	goto	l159
  2755  0B7D                     l164:	
  2756                           ;loady.c: 43:             _delay((unsigned long)((100)*(20000000/4000.0)));
  2757                           
  2758                           
  2759                           ;loady.c: 44:             keypressed = 4;
  2760  0B7D  1F87               	btfss	7,7	;volatile
  2761  0B7E  2B80               	goto	u5111
  2762  0B7F  2B81               	goto	u5110
  2763  0B80                     u5111:	
  2764  0B80  2BA3               	goto	l3709
  2765  0B81                     u5110:	
  2766  0B81                     l3703:	
  2767                           
  2768                           ;loady.c: 45:             return keypressed;
  2769  0B81  3003               	movlw	3
  2770  0B82  00F2               	movwf	??_keypadscan+2
  2771  0B83  308A               	movlw	138
  2772  0B84  00F1               	movwf	??_keypadscan+1
  2773  0B85  3055               	movlw	85
  2774  0B86  00F0               	movwf	??_keypadscan
  2775  0B87                     u8157:	
  2776  0B87  0BF0               	decfsz	??_keypadscan,f
  2777  0B88  2B87               	goto	u8157
  2778  0B89  0BF1               	decfsz	??_keypadscan+1,f
  2779  0B8A  2B87               	goto	u8157
  2780  0B8B  0BF2               	decfsz	??_keypadscan+2,f
  2781  0B8C  2B87               	goto	u8157
  2782  0B8D  2B8E               	nop2
  2783  0B8E                     l169:	
  2784                           ;loady.c: 46:         }
  2785                           
  2786  0B8E  1283               	bcf	3,5	;RP0=0, select bank0
  2787  0B8F  1303               	bcf	3,6	;RP1=0, select bank0
  2788  0B90  1B87               	btfsc	7,7	;volatile
  2789  0B91  2B93               	goto	u5121
  2790  0B92  2B94               	goto	u5120
  2791  0B93                     u5121:	
  2792  0B93  2B8E               	goto	l169
  2793  0B94                     u5120:	
  2794  0B94                     l3705:	
  2795                           
  2796                           ;loady.c: 47:         if(RC5){
  2797  0B94  3003               	movlw	3
  2798  0B95  00F2               	movwf	??_keypadscan+2
  2799  0B96  308A               	movlw	138
  2800  0B97  00F1               	movwf	??_keypadscan+1
  2801  0B98  3055               	movlw	85
  2802  0B99  00F0               	movwf	??_keypadscan
  2803  0B9A                     u8167:	
  2804  0B9A  0BF0               	decfsz	??_keypadscan,f
  2805  0B9B  2B9A               	goto	u8167
  2806  0B9C  0BF1               	decfsz	??_keypadscan+1,f
  2807  0B9D  2B9A               	goto	u8167
  2808  0B9E  0BF2               	decfsz	??_keypadscan+2,f
  2809  0B9F  2B9A               	goto	u8167
  2810  0BA0  2BA1               	nop2
  2811                           
  2812                           ;loady.c: 49:             while(RC5);
  2813  0BA1  3014               	movlw	20
  2814  0BA2  2D77               	goto	l159
  2815  0BA3                     l3709:	
  2816                           
  2817                           ;loady.c: 53:         }
  2818  0BA3  3002               	movlw	2
  2819  0BA4  0085               	movwf	5	;volatile
  2820  0BA5                     l3711:	
  2821                           
  2822                           ;loady.c: 54:         if(RC6){
  2823  0BA5  1E07               	btfss	7,4	;volatile
  2824  0BA6  2BA8               	goto	u5131
  2825  0BA7  2BA9               	goto	u5130
  2826  0BA8                     u5131:	
  2827  0BA8  2BCB               	goto	l172
  2828  0BA9                     u5130:	
  2829  0BA9                     l3713:	
  2830                           
  2831                           ;loady.c: 55:             _delay((unsigned long)((100)*(20000000/4000.0)));
  2832  0BA9  3003               	movlw	3
  2833  0BAA  00F2               	movwf	??_keypadscan+2
  2834  0BAB  308A               	movlw	138
  2835  0BAC  00F1               	movwf	??_keypadscan+1
  2836  0BAD  3055               	movlw	85
  2837  0BAE  00F0               	movwf	??_keypadscan
  2838  0BAF                     u8177:	
  2839  0BAF  0BF0               	decfsz	??_keypadscan,f
  2840  0BB0  2BAF               	goto	u8177
  2841  0BB1  0BF1               	decfsz	??_keypadscan+1,f
  2842  0BB2  2BAF               	goto	u8177
  2843  0BB3  0BF2               	decfsz	??_keypadscan+2,f
  2844  0BB4  2BAF               	goto	u8177
  2845  0BB5  2BB6               	nop2
  2846  0BB6                     l173:	
  2847                           ;loady.c: 56:             while(RC6);
  2848                           
  2849  0BB6  1283               	bcf	3,5	;RP0=0, select bank0
  2850  0BB7  1303               	bcf	3,6	;RP1=0, select bank0
  2851  0BB8  1A07               	btfsc	7,4	;volatile
  2852  0BB9  2BBB               	goto	u5141
  2853  0BBA  2BBC               	goto	u5140
  2854  0BBB                     u5141:	
  2855  0BBB  2BB6               	goto	l173
  2856  0BBC                     u5140:	
  2857  0BBC                     l3715:	
  2858                           
  2859                           ;loady.c: 57:             _delay((unsigned long)((100)*(20000000/4000.0)));
  2860  0BBC  3003               	movlw	3
  2861  0BBD  00F2               	movwf	??_keypadscan+2
  2862  0BBE  308A               	movlw	138
  2863  0BBF  00F1               	movwf	??_keypadscan+1
  2864  0BC0  3055               	movlw	85
  2865  0BC1  00F0               	movwf	??_keypadscan
  2866  0BC2                     u8187:	
  2867  0BC2  0BF0               	decfsz	??_keypadscan,f
  2868  0BC3  2BC2               	goto	u8187
  2869  0BC4  0BF1               	decfsz	??_keypadscan+1,f
  2870  0BC5  2BC2               	goto	u8187
  2871  0BC6  0BF2               	decfsz	??_keypadscan+2,f
  2872  0BC7  2BC2               	goto	u8187
  2873  0BC8  2BC9               	nop2
  2874                           
  2875                           ;loady.c: 59:             return keypressed;
  2876  0BC9  3004               	movlw	4
  2877  0BCA  2D77               	goto	l159
  2878  0BCB                     l172:	
  2879                           ;loady.c: 60:         }
  2880                           
  2881                           
  2882                           ;loady.c: 61:         if(RC7){
  2883  0BCB  1E87               	btfss	7,5	;volatile
  2884  0BCC  2BCE               	goto	u5151
  2885  0BCD  2BCF               	goto	u5150
  2886  0BCE                     u5151:	
  2887  0BCE  2BF1               	goto	l176
  2888  0BCF                     u5150:	
  2889  0BCF                     l3719:	
  2890                           
  2891                           ;loady.c: 62:             _delay((unsigned long)((100)*(20000000/4000.0)));
  2892  0BCF  3003               	movlw	3
  2893  0BD0  00F2               	movwf	??_keypadscan+2
  2894  0BD1  308A               	movlw	138
  2895  0BD2  00F1               	movwf	??_keypadscan+1
  2896  0BD3  3055               	movlw	85
  2897  0BD4  00F0               	movwf	??_keypadscan
  2898  0BD5                     u8197:	
  2899  0BD5  0BF0               	decfsz	??_keypadscan,f
  2900  0BD6  2BD5               	goto	u8197
  2901  0BD7  0BF1               	decfsz	??_keypadscan+1,f
  2902  0BD8  2BD5               	goto	u8197
  2903  0BD9  0BF2               	decfsz	??_keypadscan+2,f
  2904  0BDA  2BD5               	goto	u8197
  2905  0BDB  2BDC               	nop2
  2906  0BDC                     l177:	
  2907                           ;loady.c: 63:             while(RC7);
  2908                           
  2909  0BDC  1283               	bcf	3,5	;RP0=0, select bank0
  2910  0BDD  1303               	bcf	3,6	;RP1=0, select bank0
  2911  0BDE  1A87               	btfsc	7,5	;volatile
  2912  0BDF  2BE1               	goto	u5161
  2913  0BE0  2BE2               	goto	u5160
  2914  0BE1                     u5161:	
  2915  0BE1  2BDC               	goto	l177
  2916  0BE2                     u5160:	
  2917  0BE2                     l3721:	
  2918                           
  2919                           ;loady.c: 64:             _delay((unsigned long)((100)*(20000000/4000.0)));
  2920  0BE2  3003               	movlw	3
  2921  0BE3  00F2               	movwf	??_keypadscan+2
  2922  0BE4  308A               	movlw	138
  2923  0BE5  00F1               	movwf	??_keypadscan+1
  2924  0BE6  3055               	movlw	85
  2925  0BE7  00F0               	movwf	??_keypadscan
  2926  0BE8                     u8207:	
  2927  0BE8  0BF0               	decfsz	??_keypadscan,f
  2928  0BE9  2BE8               	goto	u8207
  2929  0BEA  0BF1               	decfsz	??_keypadscan+1,f
  2930  0BEB  2BE8               	goto	u8207
  2931  0BEC  0BF2               	decfsz	??_keypadscan+2,f
  2932  0BED  2BE8               	goto	u8207
  2933  0BEE  2BEF               	nop2
  2934                           
  2935                           ;loady.c: 66:             return keypressed;
  2936  0BEF  3005               	movlw	5
  2937  0BF0  2D77               	goto	l159
  2938  0BF1                     l176:	
  2939                           ;loady.c: 67:         }
  2940                           
  2941                           
  2942                           ;loady.c: 68: 
  2943  0BF1  1F07               	btfss	7,6	;volatile
  2944  0BF2  2BF4               	goto	u5171
  2945  0BF3  2BF5               	goto	u5170
  2946  0BF4                     u5171:	
  2947  0BF4  2C17               	goto	l180
  2948  0BF5                     u5170:	
  2949  0BF5                     l3725:	
  2950                           
  2951                           ;loady.c: 69:         PORTA = 0b00000100;
  2952  0BF5  3003               	movlw	3
  2953  0BF6  00F2               	movwf	??_keypadscan+2
  2954  0BF7  308A               	movlw	138
  2955  0BF8  00F1               	movwf	??_keypadscan+1
  2956  0BF9  3055               	movlw	85
  2957  0BFA  00F0               	movwf	??_keypadscan
  2958  0BFB                     u8217:	
  2959  0BFB  0BF0               	decfsz	??_keypadscan,f
  2960  0BFC  2BFB               	goto	u8217
  2961  0BFD  0BF1               	decfsz	??_keypadscan+1,f
  2962  0BFE  2BFB               	goto	u8217
  2963  0BFF  0BF2               	decfsz	??_keypadscan+2,f
  2964  0C00  2BFB               	goto	u8217
  2965  0C01  2C02               	nop2
  2966  0C02                     l181:	
  2967                           ;loady.c: 70:         if(RC4){
  2968                           
  2969  0C02  1283               	bcf	3,5	;RP0=0, select bank0
  2970  0C03  1303               	bcf	3,6	;RP1=0, select bank0
  2971  0C04  1B07               	btfsc	7,6	;volatile
  2972  0C05  2C07               	goto	u5181
  2973  0C06  2C08               	goto	u5180
  2974  0C07                     u5181:	
  2975  0C07  2C02               	goto	l181
  2976  0C08                     u5180:	
  2977  0C08                     l3727:	
  2978                           
  2979                           ;loady.c: 71:             _delay((unsigned long)((100)*(20000000/4000.0)));
  2980  0C08  3003               	movlw	3
  2981  0C09  00F2               	movwf	??_keypadscan+2
  2982  0C0A  308A               	movlw	138
  2983  0C0B  00F1               	movwf	??_keypadscan+1
  2984  0C0C  3055               	movlw	85
  2985  0C0D  00F0               	movwf	??_keypadscan
  2986  0C0E                     u8227:	
  2987  0C0E  0BF0               	decfsz	??_keypadscan,f
  2988  0C0F  2C0E               	goto	u8227
  2989  0C10  0BF1               	decfsz	??_keypadscan+1,f
  2990  0C11  2C0E               	goto	u8227
  2991  0C12  0BF2               	decfsz	??_keypadscan+2,f
  2992  0C13  2C0E               	goto	u8227
  2993  0C14  2C15               	nop2
  2994                           
  2995                           ;loady.c: 73:             _delay((unsigned long)((100)*(20000000/4000.0)));
  2996  0C15  3006               	movlw	6
  2997  0C16  2D77               	goto	l159
  2998  0C17                     l180:	
  2999                           ;loady.c: 74:             keypressed = 1;
  3000                           
  3001                           
  3002                           ;loady.c: 75:             return keypressed;
  3003  0C17  1F87               	btfss	7,7	;volatile
  3004  0C18  2C1A               	goto	u5191
  3005  0C19  2C1B               	goto	u5190
  3006  0C1A                     u5191:	
  3007  0C1A  2C3D               	goto	l3737
  3008  0C1B                     u5190:	
  3009  0C1B                     l3731:	
  3010                           
  3011                           ;loady.c: 76:         }
  3012  0C1B  3003               	movlw	3
  3013  0C1C  00F2               	movwf	??_keypadscan+2
  3014  0C1D  308A               	movlw	138
  3015  0C1E  00F1               	movwf	??_keypadscan+1
  3016  0C1F  3055               	movlw	85
  3017  0C20  00F0               	movwf	??_keypadscan
  3018  0C21                     u8237:	
  3019  0C21  0BF0               	decfsz	??_keypadscan,f
  3020  0C22  2C21               	goto	u8237
  3021  0C23  0BF1               	decfsz	??_keypadscan+1,f
  3022  0C24  2C21               	goto	u8237
  3023  0C25  0BF2               	decfsz	??_keypadscan+2,f
  3024  0C26  2C21               	goto	u8237
  3025  0C27  2C28               	nop2
  3026  0C28                     l185:	
  3027                           ;loady.c: 77:         if(RC5){
  3028                           
  3029  0C28  1283               	bcf	3,5	;RP0=0, select bank0
  3030  0C29  1303               	bcf	3,6	;RP1=0, select bank0
  3031  0C2A  1B87               	btfsc	7,7	;volatile
  3032  0C2B  2C2D               	goto	u5201
  3033  0C2C  2C2E               	goto	u5200
  3034  0C2D                     u5201:	
  3035  0C2D  2C28               	goto	l185
  3036  0C2E                     u5200:	
  3037  0C2E                     l3733:	
  3038                           
  3039                           ;loady.c: 78:             _delay((unsigned long)((100)*(20000000/4000.0)));
  3040  0C2E  3003               	movlw	3
  3041  0C2F  00F2               	movwf	??_keypadscan+2
  3042  0C30  308A               	movlw	138
  3043  0C31  00F1               	movwf	??_keypadscan+1
  3044  0C32  3055               	movlw	85
  3045  0C33  00F0               	movwf	??_keypadscan
  3046  0C34                     u8247:	
  3047  0C34  0BF0               	decfsz	??_keypadscan,f
  3048  0C35  2C34               	goto	u8247
  3049  0C36  0BF1               	decfsz	??_keypadscan+1,f
  3050  0C37  2C34               	goto	u8247
  3051  0C38  0BF2               	decfsz	??_keypadscan+2,f
  3052  0C39  2C34               	goto	u8247
  3053  0C3A  2C3B               	nop2
  3054                           
  3055                           ;loady.c: 80:             _delay((unsigned long)((100)*(20000000/4000.0)));
  3056  0C3B  3012               	movlw	18
  3057  0C3C  2D77               	goto	l159
  3058  0C3D                     l3737:	
  3059                           
  3060                           ;loady.c: 83:         }
  3061  0C3D  3004               	movlw	4
  3062  0C3E  0085               	movwf	5	;volatile
  3063  0C3F                     l3739:	
  3064                           
  3065                           ;loady.c: 84:         if(RC6){
  3066  0C3F  1E07               	btfss	7,4	;volatile
  3067  0C40  2C42               	goto	u5211
  3068  0C41  2C43               	goto	u5210
  3069  0C42                     u5211:	
  3070  0C42  2C65               	goto	l188
  3071  0C43                     u5210:	
  3072  0C43                     l3741:	
  3073                           
  3074                           ;loady.c: 85:             _delay((unsigned long)((100)*(20000000/4000.0)));
  3075  0C43  3003               	movlw	3
  3076  0C44  00F2               	movwf	??_keypadscan+2
  3077  0C45  308A               	movlw	138
  3078  0C46  00F1               	movwf	??_keypadscan+1
  3079  0C47  3055               	movlw	85
  3080  0C48  00F0               	movwf	??_keypadscan
  3081  0C49                     u8257:	
  3082  0C49  0BF0               	decfsz	??_keypadscan,f
  3083  0C4A  2C49               	goto	u8257
  3084  0C4B  0BF1               	decfsz	??_keypadscan+1,f
  3085  0C4C  2C49               	goto	u8257
  3086  0C4D  0BF2               	decfsz	??_keypadscan+2,f
  3087  0C4E  2C49               	goto	u8257
  3088  0C4F  2C50               	nop2
  3089  0C50                     l189:	
  3090                           ;loady.c: 86:             while(RC6);
  3091                           
  3092  0C50  1283               	bcf	3,5	;RP0=0, select bank0
  3093  0C51  1303               	bcf	3,6	;RP1=0, select bank0
  3094  0C52  1A07               	btfsc	7,4	;volatile
  3095  0C53  2C55               	goto	u5221
  3096  0C54  2C56               	goto	u5220
  3097  0C55                     u5221:	
  3098  0C55  2C50               	goto	l189
  3099  0C56                     u5220:	
  3100  0C56                     l3743:	
  3101                           
  3102                           ;loady.c: 87:             _delay((unsigned long)((100)*(20000000/4000.0)));
  3103  0C56  3003               	movlw	3
  3104  0C57  00F2               	movwf	??_keypadscan+2
  3105  0C58  308A               	movlw	138
  3106  0C59  00F1               	movwf	??_keypadscan+1
  3107  0C5A  3055               	movlw	85
  3108  0C5B  00F0               	movwf	??_keypadscan
  3109  0C5C                     u8267:	
  3110  0C5C  0BF0               	decfsz	??_keypadscan,f
  3111  0C5D  2C5C               	goto	u8267
  3112  0C5E  0BF1               	decfsz	??_keypadscan+1,f
  3113  0C5F  2C5C               	goto	u8267
  3114  0C60  0BF2               	decfsz	??_keypadscan+2,f
  3115  0C61  2C5C               	goto	u8267
  3116  0C62  2C63               	nop2
  3117  0C63                     l3745:	
  3118                           
  3119                           ;loady.c: 89:             return keypressed;
  3120  0C63  3001               	movlw	1
  3121  0C64  2D77               	goto	l159
  3122  0C65                     l188:	
  3123                           ;loady.c: 90:         }
  3124                           
  3125                           
  3126                           ;loady.c: 91:         if(RC7){
  3127  0C65  1E87               	btfss	7,5	;volatile
  3128  0C66  2C68               	goto	u5231
  3129  0C67  2C69               	goto	u5230
  3130  0C68                     u5231:	
  3131  0C68  2C8B               	goto	l192
  3132  0C69                     u5230:	
  3133  0C69                     l3749:	
  3134                           
  3135                           ;loady.c: 92:             _delay((unsigned long)((100)*(20000000/4000.0)));
  3136  0C69  3003               	movlw	3
  3137  0C6A  00F2               	movwf	??_keypadscan+2
  3138  0C6B  308A               	movlw	138
  3139  0C6C  00F1               	movwf	??_keypadscan+1
  3140  0C6D  3055               	movlw	85
  3141  0C6E  00F0               	movwf	??_keypadscan
  3142  0C6F                     u8277:	
  3143  0C6F  0BF0               	decfsz	??_keypadscan,f
  3144  0C70  2C6F               	goto	u8277
  3145  0C71  0BF1               	decfsz	??_keypadscan+1,f
  3146  0C72  2C6F               	goto	u8277
  3147  0C73  0BF2               	decfsz	??_keypadscan+2,f
  3148  0C74  2C6F               	goto	u8277
  3149  0C75  2C76               	nop2
  3150  0C76                     l193:	
  3151                           ;loady.c: 93:             while(RC7);
  3152                           
  3153  0C76  1283               	bcf	3,5	;RP0=0, select bank0
  3154  0C77  1303               	bcf	3,6	;RP1=0, select bank0
  3155  0C78  1A87               	btfsc	7,5	;volatile
  3156  0C79  2C7B               	goto	u5241
  3157  0C7A  2C7C               	goto	u5240
  3158  0C7B                     u5241:	
  3159  0C7B  2C76               	goto	l193
  3160  0C7C                     u5240:	
  3161  0C7C                     l3751:	
  3162                           
  3163                           ;loady.c: 94:             _delay((unsigned long)((100)*(20000000/4000.0)));
  3164  0C7C  3003               	movlw	3
  3165  0C7D  00F2               	movwf	??_keypadscan+2
  3166  0C7E  308A               	movlw	138
  3167  0C7F  00F1               	movwf	??_keypadscan+1
  3168  0C80  3055               	movlw	85
  3169  0C81  00F0               	movwf	??_keypadscan
  3170  0C82                     u8287:	
  3171  0C82  0BF0               	decfsz	??_keypadscan,f
  3172  0C83  2C82               	goto	u8287
  3173  0C84  0BF1               	decfsz	??_keypadscan+1,f
  3174  0C85  2C82               	goto	u8287
  3175  0C86  0BF2               	decfsz	??_keypadscan+2,f
  3176  0C87  2C82               	goto	u8287
  3177  0C88  2C89               	nop2
  3178                           
  3179                           ;loady.c: 96:             return keypressed;
  3180  0C89  3002               	movlw	2
  3181  0C8A  2D77               	goto	l159
  3182  0C8B                     l192:	
  3183                           ;loady.c: 97:         }
  3184                           
  3185                           
  3186                           ;loady.c: 98: 
  3187  0C8B  1F07               	btfss	7,6	;volatile
  3188  0C8C  2C8E               	goto	u5251
  3189  0C8D  2C8F               	goto	u5250
  3190  0C8E                     u5251:	
  3191  0C8E  2CB1               	goto	l196
  3192  0C8F                     u5250:	
  3193  0C8F                     l3755:	
  3194                           
  3195                           ;loady.c: 99:         PORTA = 0b00001000;
  3196  0C8F  3003               	movlw	3
  3197  0C90  00F2               	movwf	??_keypadscan+2
  3198  0C91  308A               	movlw	138
  3199  0C92  00F1               	movwf	??_keypadscan+1
  3200  0C93  3055               	movlw	85
  3201  0C94  00F0               	movwf	??_keypadscan
  3202  0C95                     u8297:	
  3203  0C95  0BF0               	decfsz	??_keypadscan,f
  3204  0C96  2C95               	goto	u8297
  3205  0C97  0BF1               	decfsz	??_keypadscan+1,f
  3206  0C98  2C95               	goto	u8297
  3207  0C99  0BF2               	decfsz	??_keypadscan+2,f
  3208  0C9A  2C95               	goto	u8297
  3209  0C9B  2C9C               	nop2
  3210  0C9C                     l197:	
  3211                           ;loady.c: 100:         if(RC4){
  3212                           
  3213  0C9C  1283               	bcf	3,5	;RP0=0, select bank0
  3214  0C9D  1303               	bcf	3,6	;RP1=0, select bank0
  3215  0C9E  1B07               	btfsc	7,6	;volatile
  3216  0C9F  2CA1               	goto	u5261
  3217  0CA0  2CA2               	goto	u5260
  3218  0CA1                     u5261:	
  3219  0CA1  2C9C               	goto	l197
  3220  0CA2                     u5260:	
  3221  0CA2                     l3757:	
  3222                           
  3223                           ;loady.c: 101:             _delay((unsigned long)((100)*(20000000/4000.0)));
  3224  0CA2  3003               	movlw	3
  3225  0CA3  00F2               	movwf	??_keypadscan+2
  3226  0CA4  308A               	movlw	138
  3227  0CA5  00F1               	movwf	??_keypadscan+1
  3228  0CA6  3055               	movlw	85
  3229  0CA7  00F0               	movwf	??_keypadscan
  3230  0CA8                     u8307:	
  3231  0CA8  0BF0               	decfsz	??_keypadscan,f
  3232  0CA9  2CA8               	goto	u8307
  3233  0CAA  0BF1               	decfsz	??_keypadscan+1,f
  3234  0CAB  2CA8               	goto	u8307
  3235  0CAC  0BF2               	decfsz	??_keypadscan+2,f
  3236  0CAD  2CA8               	goto	u8307
  3237  0CAE  2CAF               	nop2
  3238                           
  3239                           ;loady.c: 103:             _delay((unsigned long)((100)*(20000000/4000.0)));
  3240  0CAF  3003               	movlw	3
  3241  0CB0  2D77               	goto	l159
  3242  0CB1                     l196:	
  3243                           ;loady.c: 104:             keypressed = 15;
  3244                           
  3245                           
  3246                           ;loady.c: 105:             return keypressed;
  3247  0CB1  1F87               	btfss	7,7	;volatile
  3248  0CB2  2CB4               	goto	u5271
  3249  0CB3  2CB5               	goto	u5270
  3250  0CB4                     u5271:	
  3251  0CB4  2CD7               	goto	l3767
  3252  0CB5                     u5270:	
  3253  0CB5                     l3761:	
  3254                           
  3255                           ;loady.c: 106:         }
  3256  0CB5  3003               	movlw	3
  3257  0CB6  00F2               	movwf	??_keypadscan+2
  3258  0CB7  308A               	movlw	138
  3259  0CB8  00F1               	movwf	??_keypadscan+1
  3260  0CB9  3055               	movlw	85
  3261  0CBA  00F0               	movwf	??_keypadscan
  3262  0CBB                     u8317:	
  3263  0CBB  0BF0               	decfsz	??_keypadscan,f
  3264  0CBC  2CBB               	goto	u8317
  3265  0CBD  0BF1               	decfsz	??_keypadscan+1,f
  3266  0CBE  2CBB               	goto	u8317
  3267  0CBF  0BF2               	decfsz	??_keypadscan+2,f
  3268  0CC0  2CBB               	goto	u8317
  3269  0CC1  2CC2               	nop2
  3270  0CC2                     l201:	
  3271                           ;loady.c: 107:         if(RC5){
  3272                           
  3273  0CC2  1283               	bcf	3,5	;RP0=0, select bank0
  3274  0CC3  1303               	bcf	3,6	;RP1=0, select bank0
  3275  0CC4  1B87               	btfsc	7,7	;volatile
  3276  0CC5  2CC7               	goto	u5281
  3277  0CC6  2CC8               	goto	u5280
  3278  0CC7                     u5281:	
  3279  0CC7  2CC2               	goto	l201
  3280  0CC8                     u5280:	
  3281  0CC8                     l3763:	
  3282                           
  3283                           ;loady.c: 108:             _delay((unsigned long)((100)*(20000000/4000.0)));
  3284  0CC8  3003               	movlw	3
  3285  0CC9  00F2               	movwf	??_keypadscan+2
  3286  0CCA  308A               	movlw	138
  3287  0CCB  00F1               	movwf	??_keypadscan+1
  3288  0CCC  3055               	movlw	85
  3289  0CCD  00F0               	movwf	??_keypadscan
  3290  0CCE                     u8327:	
  3291  0CCE  0BF0               	decfsz	??_keypadscan,f
  3292  0CCF  2CCE               	goto	u8327
  3293  0CD0  0BF1               	decfsz	??_keypadscan+1,f
  3294  0CD1  2CCE               	goto	u8327
  3295  0CD2  0BF2               	decfsz	??_keypadscan+2,f
  3296  0CD3  2CCE               	goto	u8327
  3297  0CD4  2CD5               	nop2
  3298                           
  3299                           ;loady.c: 110:             _delay((unsigned long)((100)*(20000000/4000.0)));
  3300  0CD5  3011               	movlw	17
  3301  0CD6  2D77               	goto	l159
  3302  0CD7                     l3767:	
  3303                           
  3304                           ;loady.c: 113:         }
  3305  0CD7  3008               	movlw	8
  3306  0CD8  0085               	movwf	5	;volatile
  3307  0CD9                     l3769:	
  3308                           
  3309                           ;loady.c: 114:         if(RC6){
  3310  0CD9  1E07               	btfss	7,4	;volatile
  3311  0CDA  2CDC               	goto	u5291
  3312  0CDB  2CDD               	goto	u5290
  3313  0CDC                     u5291:	
  3314  0CDC  2CFF               	goto	l204
  3315  0CDD                     u5290:	
  3316  0CDD                     l3771:	
  3317                           
  3318                           ;loady.c: 115:             _delay((unsigned long)((100)*(20000000/4000.0)));
  3319  0CDD  3003               	movlw	3
  3320  0CDE  00F2               	movwf	??_keypadscan+2
  3321  0CDF  308A               	movlw	138
  3322  0CE0  00F1               	movwf	??_keypadscan+1
  3323  0CE1  3055               	movlw	85
  3324  0CE2  00F0               	movwf	??_keypadscan
  3325  0CE3                     u8337:	
  3326  0CE3  0BF0               	decfsz	??_keypadscan,f
  3327  0CE4  2CE3               	goto	u8337
  3328  0CE5  0BF1               	decfsz	??_keypadscan+1,f
  3329  0CE6  2CE3               	goto	u8337
  3330  0CE7  0BF2               	decfsz	??_keypadscan+2,f
  3331  0CE8  2CE3               	goto	u8337
  3332  0CE9  2CEA               	nop2
  3333  0CEA                     l205:	
  3334                           ;loady.c: 116:             while(RC6);
  3335                           
  3336  0CEA  1283               	bcf	3,5	;RP0=0, select bank0
  3337  0CEB  1303               	bcf	3,6	;RP1=0, select bank0
  3338  0CEC  1A07               	btfsc	7,4	;volatile
  3339  0CED  2CEF               	goto	u5301
  3340  0CEE  2CF0               	goto	u5300
  3341  0CEF                     u5301:	
  3342  0CEF  2CEA               	goto	l205
  3343  0CF0                     u5300:	
  3344  0CF0                     l3773:	
  3345                           
  3346                           ;loady.c: 117:             _delay((unsigned long)((100)*(20000000/4000.0)));
  3347  0CF0  3003               	movlw	3
  3348  0CF1  00F2               	movwf	??_keypadscan+2
  3349  0CF2  308A               	movlw	138
  3350  0CF3  00F1               	movwf	??_keypadscan+1
  3351  0CF4  3055               	movlw	85
  3352  0CF5  00F0               	movwf	??_keypadscan
  3353  0CF6                     u8347:	
  3354  0CF6  0BF0               	decfsz	??_keypadscan,f
  3355  0CF7  2CF6               	goto	u8347
  3356  0CF8  0BF1               	decfsz	??_keypadscan+1,f
  3357  0CF9  2CF6               	goto	u8347
  3358  0CFA  0BF2               	decfsz	??_keypadscan+2,f
  3359  0CFB  2CF6               	goto	u8347
  3360  0CFC  2CFD               	nop2
  3361                           
  3362                           ;loady.c: 119:             return keypressed;
  3363  0CFD  300F               	movlw	15
  3364  0CFE  2D77               	goto	l159
  3365  0CFF                     l204:	
  3366                           ;loady.c: 120:         }
  3367                           
  3368                           
  3369                           ;loady.c: 121:         if(RC7){
  3370  0CFF  1E87               	btfss	7,5	;volatile
  3371  0D00  2D02               	goto	u5311
  3372  0D01  2D03               	goto	u5310
  3373  0D02                     u5311:	
  3374  0D02  2D25               	goto	l208
  3375  0D03                     u5310:	
  3376  0D03                     l3777:	
  3377                           
  3378                           ;loady.c: 122:             _delay((unsigned long)((100)*(20000000/4000.0)));
  3379  0D03  3003               	movlw	3
  3380  0D04  00F2               	movwf	??_keypadscan+2
  3381  0D05  308A               	movlw	138
  3382  0D06  00F1               	movwf	??_keypadscan+1
  3383  0D07  3055               	movlw	85
  3384  0D08  00F0               	movwf	??_keypadscan
  3385  0D09                     u8357:	
  3386  0D09  0BF0               	decfsz	??_keypadscan,f
  3387  0D0A  2D09               	goto	u8357
  3388  0D0B  0BF1               	decfsz	??_keypadscan+1,f
  3389  0D0C  2D09               	goto	u8357
  3390  0D0D  0BF2               	decfsz	??_keypadscan+2,f
  3391  0D0E  2D09               	goto	u8357
  3392  0D0F  2D10               	nop2
  3393  0D10                     l209:	
  3394                           ;loady.c: 123:             while(RC7);
  3395                           
  3396  0D10  1283               	bcf	3,5	;RP0=0, select bank0
  3397  0D11  1303               	bcf	3,6	;RP1=0, select bank0
  3398  0D12  1A87               	btfsc	7,5	;volatile
  3399  0D13  2D15               	goto	u5321
  3400  0D14  2D16               	goto	u5320
  3401  0D15                     u5321:	
  3402  0D15  2D10               	goto	l209
  3403  0D16                     u5320:	
  3404  0D16                     l3779:	
  3405                           
  3406                           ;loady.c: 124:             _delay((unsigned long)((100)*(20000000/4000.0)));
  3407  0D16  3003               	movlw	3
  3408  0D17  00F2               	movwf	??_keypadscan+2
  3409  0D18  308A               	movlw	138
  3410  0D19  00F1               	movwf	??_keypadscan+1
  3411  0D1A  3055               	movlw	85
  3412  0D1B  00F0               	movwf	??_keypadscan
  3413  0D1C                     u8367:	
  3414  0D1C  0BF0               	decfsz	??_keypadscan,f
  3415  0D1D  2D1C               	goto	u8367
  3416  0D1E  0BF1               	decfsz	??_keypadscan+1,f
  3417  0D1F  2D1C               	goto	u8367
  3418  0D20  0BF2               	decfsz	??_keypadscan+2,f
  3419  0D21  2D1C               	goto	u8367
  3420  0D22  2D23               	nop2
  3421  0D23                     l3781:	
  3422  0D23                     l3783:	
  3423                           
  3424                           ;loady.c: 126:             return keypressed;
  3425  0D23  3000               	movlw	0
  3426  0D24  2D77               	goto	l159
  3427  0D25                     l208:	
  3428                           ;loady.c: 127:         }
  3429                           
  3430                           
  3431                           ;loady.c: 128:     }
  3432  0D25  1F07               	btfss	7,6	;volatile
  3433  0D26  2D28               	goto	u5331
  3434  0D27  2D29               	goto	u5330
  3435  0D28                     u5331:	
  3436  0D28  2D4B               	goto	l212
  3437  0D29                     u5330:	
  3438  0D29                     l3787:	
  3439                           
  3440                           ;loady.c: 129: }
  3441  0D29  3003               	movlw	3
  3442  0D2A  00F2               	movwf	??_keypadscan+2
  3443  0D2B  308A               	movlw	138
  3444  0D2C  00F1               	movwf	??_keypadscan+1
  3445  0D2D  3055               	movlw	85
  3446  0D2E  00F0               	movwf	??_keypadscan
  3447  0D2F                     u8377:	
  3448  0D2F  0BF0               	decfsz	??_keypadscan,f
  3449  0D30  2D2F               	goto	u8377
  3450  0D31  0BF1               	decfsz	??_keypadscan+1,f
  3451  0D32  2D2F               	goto	u8377
  3452  0D33  0BF2               	decfsz	??_keypadscan+2,f
  3453  0D34  2D2F               	goto	u8377
  3454  0D35  2D36               	nop2
  3455  0D36                     l213:	
  3456                           ;loady.c: 130: 
  3457                           
  3458  0D36  1283               	bcf	3,5	;RP0=0, select bank0
  3459  0D37  1303               	bcf	3,6	;RP1=0, select bank0
  3460  0D38  1B07               	btfsc	7,6	;volatile
  3461  0D39  2D3B               	goto	u5341
  3462  0D3A  2D3C               	goto	u5340
  3463  0D3B                     u5341:	
  3464  0D3B  2D36               	goto	l213
  3465  0D3C                     u5340:	
  3466  0D3C                     l3789:	
  3467                           
  3468                           ;loady.c: 131: void disp(unsigned char keyp){
  3469  0D3C  3003               	movlw	3
  3470  0D3D  00F2               	movwf	??_keypadscan+2
  3471  0D3E  308A               	movlw	138
  3472  0D3F  00F1               	movwf	??_keypadscan+1
  3473  0D40  3055               	movlw	85
  3474  0D41  00F0               	movwf	??_keypadscan
  3475  0D42                     u8387:	
  3476  0D42  0BF0               	decfsz	??_keypadscan,f
  3477  0D43  2D42               	goto	u8387
  3478  0D44  0BF1               	decfsz	??_keypadscan+1,f
  3479  0D45  2D42               	goto	u8387
  3480  0D46  0BF2               	decfsz	??_keypadscan+2,f
  3481  0D47  2D42               	goto	u8387
  3482  0D48  2D49               	nop2
  3483                           
  3484                           ;loady.c: 133: 
  3485  0D49  3013               	movlw	19
  3486  0D4A  2D77               	goto	l159
  3487  0D4B                     l212:	
  3488                           ;loady.c: 134:         LCD_WRITE_NUM(key);
  3489                           
  3490                           
  3491                           ;loady.c: 135:         LCD_CURSOR(row,col);
  3492  0D4B  1F87               	btfss	7,7	;volatile
  3493  0D4C  2D4E               	goto	u5351
  3494  0D4D  2D4F               	goto	u5350
  3495  0D4E                     u5351:	
  3496  0D4E  2D71               	goto	l3799
  3497  0D4F                     u5350:	
  3498  0D4F                     l3793:	
  3499                           
  3500                           ;loady.c: 136:         _delay((unsigned long)((300)*(20000000/4000.0)));
  3501  0D4F  3003               	movlw	3
  3502  0D50  00F2               	movwf	??_keypadscan+2
  3503  0D51  308A               	movlw	138
  3504  0D52  00F1               	movwf	??_keypadscan+1
  3505  0D53  3055               	movlw	85
  3506  0D54  00F0               	movwf	??_keypadscan
  3507  0D55                     u8397:	
  3508  0D55  0BF0               	decfsz	??_keypadscan,f
  3509  0D56  2D55               	goto	u8397
  3510  0D57  0BF1               	decfsz	??_keypadscan+1,f
  3511  0D58  2D55               	goto	u8397
  3512  0D59  0BF2               	decfsz	??_keypadscan+2,f
  3513  0D5A  2D55               	goto	u8397
  3514  0D5B  2D5C               	nop2
  3515  0D5C                     l217:	
  3516                           ;loady.c: 137:         LCD_WRITE_STRING("*");
  3517                           
  3518  0D5C  1283               	bcf	3,5	;RP0=0, select bank0
  3519  0D5D  1303               	bcf	3,6	;RP1=0, select bank0
  3520  0D5E  1B87               	btfsc	7,7	;volatile
  3521  0D5F  2D61               	goto	u5361
  3522  0D60  2D62               	goto	u5360
  3523  0D61                     u5361:	
  3524  0D61  2D5C               	goto	l217
  3525  0D62                     u5360:	
  3526  0D62                     l3795:	
  3527                           
  3528                           ;loady.c: 138:         col++;
  3529  0D62  3003               	movlw	3
  3530  0D63  00F2               	movwf	??_keypadscan+2
  3531  0D64  308A               	movlw	138
  3532  0D65  00F1               	movwf	??_keypadscan+1
  3533  0D66  3055               	movlw	85
  3534  0D67  00F0               	movwf	??_keypadscan
  3535  0D68                     u8407:	
  3536  0D68  0BF0               	decfsz	??_keypadscan,f
  3537  0D69  2D68               	goto	u8407
  3538  0D6A  0BF1               	decfsz	??_keypadscan+1,f
  3539  0D6B  2D68               	goto	u8407
  3540  0D6C  0BF2               	decfsz	??_keypadscan+2,f
  3541  0D6D  2D68               	goto	u8407
  3542  0D6E  2D6F               	nop2
  3543                           
  3544                           ;loady.c: 140:     else if(key==19){
  3545  0D6F  3010               	movlw	16
  3546  0D70  2D77               	goto	l159
  3547  0D71                     l3799:	
  3548                           
  3549                           ;loady.c: 21:             return keypressed;
  3550  0D71  3046               	movlw	70
  3551  0D72  0673               	xorwf	keypadscan@keypressed,w
  3552  0D73  1903               	btfsc	3,2
  3553  0D74  2D76               	goto	u5371
  3554  0D75  2D77               	goto	u5370
  3555  0D76                     u5371:	
  3556  0D76  2B07               	goto	l3681
  3557  0D77                     u5370:	
  3558  0D77                     l159:	
  3559  0D77  0008               	return
  3560  0D78                     __end_of_keypadscan:	
  3561                           
  3562                           	psect	text4
  3563  1D50                     __ptext4:	
  3564 ;; *************** function _disp *****************
  3565 ;; Defined at:
  3566 ;;		line 145 in file "loady.c"
  3567 ;; Parameters:    Size  Location     Type
  3568 ;;  keyp            1    wreg     unsigned char 
  3569 ;; Auto vars:     Size  Location     Type
  3570 ;;  keyp            1   72[BANK1 ] unsigned char 
  3571 ;; Return value:  Size  Location     Type
  3572 ;;                  1    wreg      void 
  3573 ;; Registers used:
  3574 ;;		wreg, fsr0l, fsr0h, status,2, status,0, btemp+1, pclath, cstack
  3575 ;; Tracked objects:
  3576 ;;		On entry : 0/0
  3577 ;;		On exit  : 0/0
  3578 ;;		Unchanged: 0/0
  3579 ;; Data sizes:     COMMON   BANK0   BANK1   BANK3   BANK2
  3580 ;;      Params:         0       0       0       0       0
  3581 ;;      Locals:         0       0       1       0       0
  3582 ;;      Temps:          0       0       4       0       0
  3583 ;;      Totals:         0       0       5       0       0
  3584 ;;Total ram usage:        5 bytes
  3585 ;; Hardware stack levels used:    1
  3586 ;; Hardware stack levels required when called:    6
  3587 ;; This function calls:
  3588 ;;		_LCD_CURSOR
  3589 ;;		_LCD_WRITE_NUM
  3590 ;;		_LCD_WRITE_STRING
  3591 ;; This function is called by:
  3592 ;;		_main
  3593 ;; This function uses a non-reentrant model
  3594 ;;
  3595                           
  3596                           
  3597                           ;psect for function _disp
  3598  1D50                     _disp:	
  3599                           
  3600                           ;incstack = 0
  3601                           ; Regs used in _disp: [wreg-fsr0h+status,2+status,0+btemp+1+pclath+cstack]
  3602                           ;disp@keyp stored from wreg
  3603  1D50  1683               	bsf	3,5	;RP0=1, select bank1
  3604  1D51  1303               	bcf	3,6	;RP1=0, select bank1
  3605  1D52  00E8               	movwf	disp@keyp^(0+128)
  3606  1D53                     l5205:	
  3607                           
  3608                           ;loady.c: 146:         LCD_WRITE_STRING(" ");
  3609  1D53  300A               	movlw	10
  3610  1D54  0268               	subwf	disp@keyp^(0+128),w
  3611  1D55  1803               	skipnc
  3612  1D56  2D58               	goto	u7821
  3613  1D57  2D59               	goto	u7820
  3614  1D58                     u7821:	
  3615  1D58  2D98               	goto	l5217
  3616  1D59                     u7820:	
  3617  1D59                     l5207:	
  3618                           
  3619                           ;loady.c: 148:     }
  3620  1D59  086E               	movf	_key^(0+128),w
  3621  1D5A  00E4               	movwf	??_disp^(0+128)
  3622  1D5B  01E5               	clrf	(??_disp^(0+128)+1)
  3623  1D5C  01E6               	clrf	(??_disp^(0+128)+2)
  3624  1D5D  01E7               	clrf	(??_disp^(0+128)+3)
  3625  1D5E  0867               	movf	(??_disp+3)^(0+128),w
  3626  1D5F  00CF               	movwf	(LCD_WRITE_NUM@i+3)^(0+128)
  3627  1D60  0866               	movf	(??_disp+2)^(0+128),w
  3628  1D61  00CE               	movwf	(LCD_WRITE_NUM@i+2)^(0+128)
  3629  1D62  0865               	movf	(??_disp+1)^(0+128),w
  3630  1D63  00CD               	movwf	(LCD_WRITE_NUM@i+1)^(0+128)
  3631  1D64  0864               	movf	??_disp^(0+128),w
  3632  1D65  00CC               	movwf	LCD_WRITE_NUM@i^(0+128)
  3633  1D66  160A  118A  21AA  160A  158A  	fcall	_LCD_WRITE_NUM
  3634  1D6B                     l5209:	
  3635                           
  3636                           ;loady.c: 149: 
  3637  1D6B  1683               	bsf	3,5	;RP0=1, select bank3
  3638  1D6C  1703               	bsf	3,6	;RP1=1, select bank3
  3639  1D6D  0820               	movf	_col^(0+384),w
  3640  1D6E  1683               	bsf	3,5	;RP0=1, select bank1
  3641  1D6F  1303               	bcf	3,6	;RP1=0, select bank1
  3642  1D70  00E4               	movwf	??_disp^(0+128)
  3643  1D71  0864               	movf	??_disp^(0+128),w
  3644  1D72  00F3               	movwf	LCD_CURSOR@c
  3645  1D73  1683               	bsf	3,5	;RP0=1, select bank3
  3646  1D74  1703               	bsf	3,6	;RP1=1, select bank3
  3647  1D75  081F               	movf	_row^(0+384),w
  3648  1D76  160A  158A  2359  160A  158A  	fcall	_LCD_CURSOR
  3649  1D7B                     l5211:	
  3650                           
  3651                           ;loady.c: 150: }
  3652  1D7B  3008               	movlw	8
  3653  1D7C  1683               	bsf	3,5	;RP0=1, select bank1
  3654  1D7D  1303               	bcf	3,6	;RP1=0, select bank1
  3655  1D7E  00E6               	movwf	(??_disp^(0+128)+2)
  3656  1D7F  309D               	movlw	157
  3657  1D80  00E5               	movwf	(??_disp^(0+128)+1)
  3658  1D81  3005               	movlw	5
  3659  1D82  00E4               	movwf	??_disp^(0+128)
  3660  1D83                     u8417:	
  3661  1D83  0BE4               	decfsz	??_disp^(0+128),f
  3662  1D84  2D83               	goto	u8417
  3663  1D85  0BE5               	decfsz	(??_disp^(0+128)+1),f
  3664  1D86  2D83               	goto	u8417
  3665  1D87  0BE6               	decfsz	(??_disp^(0+128)+2),f
  3666  1D88  2D83               	goto	u8417
  3667  1D89                     l5213:	
  3668                           
  3669                           ;loady.c: 151: unsigned char checkPass(unsigned char checker[6],unsigned char start){
  3670  1D89  30D3               	movlw	(low ((STR_1-__stringbase)| (0+32768)))& (0+255)
  3671  1D8A  160A  158A  21A3  160A  158A  	fcall	_LCD_WRITE_STRING
  3672  1D8F                     l5215:	
  3673                           
  3674                           ;loady.c: 152:     unsigned char val=0;
  3675  1D8F  3001               	movlw	1
  3676  1D90  1683               	bsf	3,5	;RP0=1, select bank1
  3677  1D91  1303               	bcf	3,6	;RP1=0, select bank1
  3678  1D92  00E4               	movwf	??_disp^(0+128)
  3679  1D93  0864               	movf	??_disp^(0+128),w
  3680  1D94  1683               	bsf	3,5	;RP0=1, select bank3
  3681  1D95  1703               	bsf	3,6	;RP1=1, select bank3
  3682  1D96  07A0               	addwf	_col^(0+384),f
  3683                           
  3684                           ;loady.c: 153:     for(unsigned char k = start; k<6;k++){
  3685  1D97  2DD3               	goto	l226
  3686  1D98                     l5217:	
  3687  1D98  3013               	movlw	19
  3688  1D99  066E               	xorwf	_key^(0+128),w
  3689  1D9A  1D03               	btfss	3,2
  3690  1D9B  2D9D               	goto	u7831
  3691  1D9C  2D9E               	goto	u7830
  3692  1D9D                     u7831:	
  3693  1D9D  2DD3               	goto	l226
  3694  1D9E                     u7830:	
  3695  1D9E                     l5219:	
  3696                           
  3697                           ;loady.c: 155:             val++;
  3698  1D9E  086D               	movf	_i^(0+128),w
  3699  1D9F  3E99               	addlw	(low (_pass| (0+256)))& (0+255)
  3700  1DA0  0084               	movwf	4
  3701  1DA1  1783               	bsf	3,7	;select IRP bank3
  3702  1DA2  0180               	clrf	0
  3703                           
  3704                           ;loady.c: 156:         }
  3705  1DA3  086D               	movf	_i^(0+128),w
  3706  1DA4  3E99               	addlw	(low (_pass| (0+256)))& (0+255)
  3707  1DA5  0084               	movwf	4
  3708  1DA6  0180               	clrf	0
  3709  1DA7                     l5221:	
  3710  1DA7  3001               	movlw	1
  3711  1DA8  02ED               	subwf	_i^(0+128),f
  3712  1DA9                     l5223:	
  3713                           
  3714                           ;loady.c: 157:     }
  3715  1DA9  3001               	movlw	1
  3716  1DAA  02ED               	subwf	_i^(0+128),f
  3717  1DAB                     l5225:	
  3718                           
  3719                           ;loady.c: 158:     if(val == 6){
  3720  1DAB  3001               	movlw	1
  3721  1DAC  1683               	bsf	3,5	;RP0=1, select bank3
  3722  1DAD  1703               	bsf	3,6	;RP1=1, select bank3
  3723  1DAE  02A0               	subwf	_col^(0+384),f
  3724  1DAF                     l5227:	
  3725                           
  3726                           ;loady.c: 159:         return 1;
  3727  1DAF  0820               	movf	_col^(0+384),w
  3728  1DB0  1683               	bsf	3,5	;RP0=1, select bank1
  3729  1DB1  1303               	bcf	3,6	;RP1=0, select bank1
  3730  1DB2  00E4               	movwf	??_disp^(0+128)
  3731  1DB3  0864               	movf	??_disp^(0+128),w
  3732  1DB4  00F3               	movwf	LCD_CURSOR@c
  3733  1DB5  1683               	bsf	3,5	;RP0=1, select bank3
  3734  1DB6  1703               	bsf	3,6	;RP1=1, select bank3
  3735  1DB7  081F               	movf	_row^(0+384),w
  3736  1DB8  160A  158A  2359  160A  158A  	fcall	_LCD_CURSOR
  3737                           
  3738                           ;loady.c: 160:     }else{
  3739  1DBD  30D1               	movlw	(low ((STR_2-__stringbase)| (0+32768)))& (0+255)
  3740  1DBE  160A  158A  21A3  160A  158A  	fcall	_LCD_WRITE_STRING
  3741  1DC3                     l5229:	
  3742                           
  3743                           ;loady.c: 161:         return 0;
  3744  1DC3  1683               	bsf	3,5	;RP0=1, select bank3
  3745  1DC4  1703               	bsf	3,6	;RP1=1, select bank3
  3746  1DC5  0820               	movf	_col^(0+384),w
  3747  1DC6  1683               	bsf	3,5	;RP0=1, select bank1
  3748  1DC7  1303               	bcf	3,6	;RP1=0, select bank1
  3749  1DC8  00E4               	movwf	??_disp^(0+128)
  3750  1DC9  0864               	movf	??_disp^(0+128),w
  3751  1DCA  00F3               	movwf	LCD_CURSOR@c
  3752  1DCB  1683               	bsf	3,5	;RP0=1, select bank3
  3753  1DCC  1703               	bsf	3,6	;RP1=1, select bank3
  3754  1DCD  081F               	movf	_row^(0+384),w
  3755  1DCE  160A  158A  2359  160A  158A  	fcall	_LCD_CURSOR
  3756  1DD3                     l226:	
  3757  1DD3  0008               	return
  3758  1DD4                     __end_of_disp:	
  3759                           
  3760                           	psect	text5
  3761  19A3                     __ptext5:	
  3762 ;; *************** function _LCD_WRITE_STRING *****************
  3763 ;; Defined at:
  3764 ;;		line 85 in file "./libcd.h"
  3765 ;; Parameters:    Size  Location     Type
  3766 ;;  stringy         1    wreg     PTR unsigned char 
  3767 ;;		 -> STR_16(15), STR_15(18), STR_14(14), STR_13(15), 
  3768 ;;		 -> STR_12(15), STR_11(13), STR_10(32), STR_9(17), 
  3769 ;;		 -> STR_8(18), STR_7(14), STR_6(15), STR_5(10), 
  3770 ;;		 -> STR_4(8), STR_3(10), STR_2(2), STR_1(2), 
  3771 ;; Auto vars:     Size  Location     Type
  3772 ;;  stringy         1    8[COMMON] PTR unsigned char 
  3773 ;;		 -> STR_16(15), STR_15(18), STR_14(14), STR_13(15), 
  3774 ;;		 -> STR_12(15), STR_11(13), STR_10(32), STR_9(17), 
  3775 ;;		 -> STR_8(18), STR_7(14), STR_6(15), STR_5(10), 
  3776 ;;		 -> STR_4(8), STR_3(10), STR_2(2), STR_1(2), 
  3777 ;;  j               1    7[COMMON] unsigned char 
  3778 ;; Return value:  Size  Location     Type
  3779 ;;                  1    wreg      void 
  3780 ;; Registers used:
  3781 ;;		wreg, fsr0l, fsr0h, status,2, status,0, pclath, cstack
  3782 ;; Tracked objects:
  3783 ;;		On entry : 0/0
  3784 ;;		On exit  : 0/0
  3785 ;;		Unchanged: 0/0
  3786 ;; Data sizes:     COMMON   BANK0   BANK1   BANK3   BANK2
  3787 ;;      Params:         0       0       0       0       0
  3788 ;;      Locals:         2       0       0       0       0
  3789 ;;      Temps:          1       0       0       0       0
  3790 ;;      Totals:         3       0       0       0       0
  3791 ;;Total ram usage:        3 bytes
  3792 ;; Hardware stack levels used:    1
  3793 ;; Hardware stack levels required when called:    2
  3794 ;; This function calls:
  3795 ;;		_LCD_WRITE_CHAR
  3796 ;; This function is called by:
  3797 ;;		_disp
  3798 ;;		_reset
  3799 ;;		_main
  3800 ;; This function uses a non-reentrant model
  3801 ;;
  3802                           
  3803                           
  3804                           ;psect for function _LCD_WRITE_STRING
  3805  19A3                     _LCD_WRITE_STRING:	
  3806                           
  3807                           ;incstack = 0
  3808                           ; Regs used in _LCD_WRITE_STRING: [wreg-fsr0h+status,2+status,0+pclath+cstack]
  3809                           ;LCD_WRITE_STRING@stringy stored from wreg
  3810  19A3  00F8               	movwf	LCD_WRITE_STRING@stringy
  3811  19A4                     l5067:	
  3812                           
  3813                           ;./libcd.h: 85: void LCD_WRITE_STRING(char* stringy);./libcd.h: 86: {;./libcd.h: 87:   u
      +                          nsigned char j;;./libcd.h: 88:   for(j=0;stringy[j]!='\0';j++)
  3814  19A4  01F7               	clrf	LCD_WRITE_STRING@j
  3815  19A5  29B7               	goto	l5073
  3816  19A6                     l5069:	
  3817                           
  3818                           ;./libcd.h: 89:     LCD_WRITE_CHAR(stringy[j]);
  3819  19A6  0877               	movf	LCD_WRITE_STRING@j,w
  3820  19A7  0778               	addwf	LCD_WRITE_STRING@stringy,w
  3821  19A8  0084               	movwf	4
  3822  19A9  160A  158A  2000  160A  158A  	fcall	stringdir
  3823  19AE  160A  158A  223C  160A  158A  	fcall	_LCD_WRITE_CHAR
  3824  19B3                     l5071:	
  3825  19B3  3001               	movlw	1
  3826  19B4  00F6               	movwf	??_LCD_WRITE_STRING
  3827  19B5  0876               	movf	??_LCD_WRITE_STRING,w
  3828  19B6  07F7               	addwf	LCD_WRITE_STRING@j,f
  3829  19B7                     l5073:	
  3830  19B7  0877               	movf	LCD_WRITE_STRING@j,w
  3831  19B8  0778               	addwf	LCD_WRITE_STRING@stringy,w
  3832  19B9  0084               	movwf	4
  3833  19BA  160A  158A  2000  160A  158A  	fcall	stringdir
  3834  19BF  3A00               	xorlw	0
  3835  19C0  1D03               	skipz
  3836  19C1  29C3               	goto	u7721
  3837  19C2  29C4               	goto	u7720
  3838  19C3                     u7721:	
  3839  19C3  29A6               	goto	l5069
  3840  19C4                     u7720:	
  3841  19C4                     l109:	
  3842  19C4  0008               	return
  3843  19C5                     __end_of_LCD_WRITE_STRING:	
  3844                           
  3845                           	psect	text6
  3846  1A3C                     __ptext6:	
  3847 ;; *************** function _LCD_WRITE_CHAR *****************
  3848 ;; Defined at:
  3849 ;;		line 74 in file "./libcd.h"
  3850 ;; Parameters:    Size  Location     Type
  3851 ;;  Data            1    wreg     unsigned char 
  3852 ;; Auto vars:     Size  Location     Type
  3853 ;;  Data            1    5[COMMON] unsigned char 
  3854 ;;  High4           1    4[COMMON] unsigned char 
  3855 ;;  Low4            1    3[COMMON] unsigned char 
  3856 ;; Return value:  Size  Location     Type
  3857 ;;                  1    wreg      void 
  3858 ;; Registers used:
  3859 ;;		wreg, status,2, status,0, pclath, cstack
  3860 ;; Tracked objects:
  3861 ;;		On entry : 0/0
  3862 ;;		On exit  : 0/0
  3863 ;;		Unchanged: 0/0
  3864 ;; Data sizes:     COMMON   BANK0   BANK1   BANK3   BANK2
  3865 ;;      Params:         0       0       0       0       0
  3866 ;;      Locals:         3       0       0       0       0
  3867 ;;      Temps:          1       0       0       0       0
  3868 ;;      Totals:         4       0       0       0       0
  3869 ;;Total ram usage:        4 bytes
  3870 ;; Hardware stack levels used:    1
  3871 ;; Hardware stack levels required when called:    1
  3872 ;; This function calls:
  3873 ;;		_clock
  3874 ;;		_lcd_port
  3875 ;; This function is called by:
  3876 ;;		_LCD_WRITE_STRING
  3877 ;; This function uses a non-reentrant model
  3878 ;;
  3879                           
  3880                           
  3881                           ;psect for function _LCD_WRITE_CHAR
  3882  1A3C                     _LCD_WRITE_CHAR:	
  3883                           
  3884                           ;incstack = 0
  3885                           ; Regs used in _LCD_WRITE_CHAR: [wreg+status,2+status,0+pclath+cstack]
  3886                           ;LCD_WRITE_CHAR@Data stored from wreg
  3887  1A3C  00F5               	movwf	LCD_WRITE_CHAR@Data
  3888  1A3D                     l4915:	
  3889                           
  3890                           ;./libcd.h: 74: void LCD_WRITE_CHAR(char Data);./libcd.h: 75: {;./libcd.h: 76:   char Lo
      +                          w4,High4;;./libcd.h: 77:   Low4 = Data & 0x0F;
  3891  1A3D  0875               	movf	LCD_WRITE_CHAR@Data,w
  3892  1A3E  390F               	andlw	15
  3893  1A3F  00F2               	movwf	??_LCD_WRITE_CHAR
  3894  1A40  0872               	movf	??_LCD_WRITE_CHAR,w
  3895  1A41  00F3               	movwf	LCD_WRITE_CHAR@Low4
  3896                           
  3897                           ;./libcd.h: 78:   High4 = Data & 0xF0;
  3898  1A42  0875               	movf	LCD_WRITE_CHAR@Data,w
  3899  1A43  39F0               	andlw	240
  3900  1A44  00F2               	movwf	??_LCD_WRITE_CHAR
  3901  1A45  0872               	movf	??_LCD_WRITE_CHAR,w
  3902  1A46  00F4               	movwf	LCD_WRITE_CHAR@High4
  3903  1A47                     l4917:	
  3904                           
  3905                           ;./libcd.h: 79:   RD4 = 1;
  3906  1A47  1283               	bcf	3,5	;RP0=0, select bank0
  3907  1A48  1303               	bcf	3,6	;RP1=0, select bank0
  3908  1A49  1608               	bsf	8,4	;volatile
  3909  1A4A                     l4919:	
  3910                           
  3911                           ;./libcd.h: 80:   lcd_port(High4>>4);
  3912  1A4A  0874               	movf	LCD_WRITE_CHAR@High4,w
  3913  1A4B  00F2               	movwf	??_LCD_WRITE_CHAR
  3914  1A4C  3004               	movlw	4
  3915  1A4D                     u7425:	
  3916  1A4D  1003               	clrc
  3917  1A4E  0CF2               	rrf	??_LCD_WRITE_CHAR,f
  3918  1A4F  3EFF               	addlw	-1
  3919  1A50  1D03               	skipz
  3920  1A51  2A4D               	goto	u7425
  3921  1A52  0872               	movf	??_LCD_WRITE_CHAR,w
  3922  1A53  160A  158A  2181  160A  158A  	fcall	_lcd_port
  3923  1A58                     l4921:	
  3924                           
  3925                           ;./libcd.h: 81:   clock();
  3926  1A58  160A  158A  2168  160A  158A  	fcall	_clock
  3927  1A5D                     l4923:	
  3928                           
  3929                           ;./libcd.h: 82:   lcd_port(Low4);
  3930  1A5D  0873               	movf	LCD_WRITE_CHAR@Low4,w
  3931  1A5E  160A  158A  2181  160A  158A  	fcall	_lcd_port
  3932  1A63                     l4925:	
  3933                           
  3934                           ;./libcd.h: 83:   clock();
  3935  1A63  160A  158A  2168  160A  158A  	fcall	_clock
  3936  1A68                     l103:	
  3937  1A68  0008               	return
  3938  1A69                     __end_of_LCD_WRITE_CHAR:	
  3939                           
  3940                           	psect	text7
  3941  11AA                     __ptext7:	
  3942 ;; *************** function _LCD_WRITE_NUM *****************
  3943 ;; Defined at:
  3944 ;;		line 92 in file "./libcd.h"
  3945 ;; Parameters:    Size  Location     Type
  3946 ;;  i               4   44[BANK1 ] long 
  3947 ;; Auto vars:     Size  Location     Type
  3948 ;;  j               4   62[BANK1 ] long 
  3949 ;;  n               2   66[BANK1 ] int 
  3950 ;;  m               2   60[BANK1 ] int 
  3951 ;;  l               2   58[BANK1 ] int 
  3952 ;;  k               2   56[BANK1 ] int 
  3953 ;; Return value:  Size  Location     Type
  3954 ;;                  1    wreg      void 
  3955 ;; Registers used:
  3956 ;;		wreg, fsr0l, fsr0h, status,2, status,0, btemp+1, pclath, cstack
  3957 ;; Tracked objects:
  3958 ;;		On entry : 0/0
  3959 ;;		On exit  : 0/0
  3960 ;;		Unchanged: 0/0
  3961 ;; Data sizes:     COMMON   BANK0   BANK1   BANK3   BANK2
  3962 ;;      Params:         0       0       4       0       0
  3963 ;;      Locals:         0       0      20       0       0
  3964 ;;      Temps:          0       0       0       0       0
  3965 ;;      Totals:         0       0      24       0       0
  3966 ;;Total ram usage:       24 bytes
  3967 ;; Hardware stack levels used:    1
  3968 ;; Hardware stack levels required when called:    5
  3969 ;; This function calls:
  3970 ;;		___aldiv
  3971 ;;		___awmod
  3972 ;;		___fltol
  3973 ;;		___xxtofl
  3974 ;;		_clock
  3975 ;;		_lcd_port
  3976 ;;		_pow
  3977 ;; This function is called by:
  3978 ;;		_disp
  3979 ;; This function uses a non-reentrant model
  3980 ;;
  3981                           
  3982                           
  3983                           ;psect for function _LCD_WRITE_NUM
  3984  11AA                     _LCD_WRITE_NUM:	
  3985  11AA                     l5075:	
  3986                           ;incstack = 0
  3987                           ; Regs used in _LCD_WRITE_NUM: [wreg-fsr0h+status,2+status,0+btemp+1+pclath+cstack]
  3988                           
  3989                           
  3990                           ;./libcd.h: 93:     int k,l;;./libcd.h: 94:     int m;;./libcd.h: 95:     int n = 0;
  3991  11AA  1683               	bsf	3,5	;RP0=1, select bank1
  3992  11AB  1303               	bcf	3,6	;RP1=0, select bank1
  3993  11AC  01E2               	clrf	LCD_WRITE_NUM@n^(0+128)
  3994  11AD  01E3               	clrf	(LCD_WRITE_NUM@n+1)^(0+128)
  3995  11AE                     l5077:	
  3996                           
  3997                           ;./libcd.h: 96:     long j=i;
  3998  11AE  084F               	movf	(LCD_WRITE_NUM@i+3)^(0+128),w
  3999  11AF  00E1               	movwf	(LCD_WRITE_NUM@j+3)^(0+128)
  4000  11B0  084E               	movf	(LCD_WRITE_NUM@i+2)^(0+128),w
  4001  11B1  00E0               	movwf	(LCD_WRITE_NUM@j+2)^(0+128)
  4002  11B2  084D               	movf	(LCD_WRITE_NUM@i+1)^(0+128),w
  4003  11B3  00DF               	movwf	(LCD_WRITE_NUM@j+1)^(0+128)
  4004  11B4  084C               	movf	LCD_WRITE_NUM@i^(0+128),w
  4005  11B5  00DE               	movwf	LCD_WRITE_NUM@j^(0+128)
  4006  11B6                     l5079:	
  4007                           
  4008                           ;./libcd.h: 98:     if(i == 0){
  4009  11B6  084F               	movf	(LCD_WRITE_NUM@i+3)^(0+128),w
  4010  11B7  044E               	iorwf	(LCD_WRITE_NUM@i+2)^(0+128),w
  4011  11B8  044D               	iorwf	(LCD_WRITE_NUM@i+1)^(0+128),w
  4012  11B9  044C               	iorwf	LCD_WRITE_NUM@i^(0+128),w
  4013  11BA  1D03               	skipz
  4014  11BB  29BD               	goto	u7731
  4015  11BC  29BE               	goto	u7730
  4016  11BD                     u7731:	
  4017  11BD  29FD               	goto	l5089
  4018  11BE                     u7730:	
  4019  11BE                     l5081:	
  4020                           
  4021                           ;./libcd.h: 99:         RD4=1;
  4022  11BE  1283               	bcf	3,5	;RP0=0, select bank0
  4023  11BF  1303               	bcf	3,6	;RP1=0, select bank0
  4024  11C0  1608               	bsf	8,4	;volatile
  4025  11C1                     l5083:	
  4026                           
  4027                           ;./libcd.h: 100:         lcd_port(3);
  4028  11C1  3003               	movlw	3
  4029  11C2  160A  158A  2181  160A  118A  	fcall	_lcd_port
  4030                           
  4031                           ;./libcd.h: 101:         clock();
  4032  11C7  160A  158A  2168  160A  118A  	fcall	_clock
  4033                           
  4034                           ;./libcd.h: 102:         lcd_port(0);
  4035  11CC  3000               	movlw	0
  4036  11CD  160A  158A  2181  160A  118A  	fcall	_lcd_port
  4037                           
  4038                           ;./libcd.h: 103:         clock();
  4039  11D2  160A  158A  2168  160A  118A  	fcall	_clock
  4040  11D7  29FD               	goto	l5089
  4041  11D8                     l5085:	
  4042                           
  4043                           ;./libcd.h: 106:         n++;
  4044  11D8  3001               	movlw	1
  4045  11D9  07E2               	addwf	LCD_WRITE_NUM@n^(0+128),f
  4046  11DA  1803               	skipnc
  4047  11DB  0AE3               	incf	(LCD_WRITE_NUM@n+1)^(0+128),f
  4048  11DC  3000               	movlw	0
  4049  11DD  07E3               	addwf	(LCD_WRITE_NUM@n+1)^(0+128),f
  4050  11DE                     l5087:	
  4051                           
  4052                           ;./libcd.h: 107:         j = j/10;
  4053  11DE  3000               	movlw	0
  4054  11DF  00F3               	movwf	___aldiv@divisor+3
  4055  11E0  3000               	movlw	0
  4056  11E1  00F2               	movwf	___aldiv@divisor+2
  4057  11E2  3000               	movlw	0
  4058  11E3  00F1               	movwf	___aldiv@divisor+1
  4059  11E4  300A               	movlw	10
  4060  11E5  00F0               	movwf	___aldiv@divisor
  4061  11E6  0861               	movf	(LCD_WRITE_NUM@j+3)^(0+128),w
  4062  11E7  00F7               	movwf	___aldiv@dividend+3
  4063  11E8  0860               	movf	(LCD_WRITE_NUM@j+2)^(0+128),w
  4064  11E9  00F6               	movwf	___aldiv@dividend+2
  4065  11EA  085F               	movf	(LCD_WRITE_NUM@j+1)^(0+128),w
  4066  11EB  00F5               	movwf	___aldiv@dividend+1
  4067  11EC  085E               	movf	LCD_WRITE_NUM@j^(0+128),w
  4068  11ED  00F4               	movwf	___aldiv@dividend
  4069  11EE  120A  158A  2008  160A  118A  	fcall	___aldiv
  4070  11F3  0873               	movf	?___aldiv+3,w
  4071  11F4  1683               	bsf	3,5	;RP0=1, select bank1
  4072  11F5  1303               	bcf	3,6	;RP1=0, select bank1
  4073  11F6  00E1               	movwf	(LCD_WRITE_NUM@j+3)^(0+128)
  4074  11F7  0872               	movf	?___aldiv+2,w
  4075  11F8  00E0               	movwf	(LCD_WRITE_NUM@j+2)^(0+128)
  4076  11F9  0871               	movf	?___aldiv+1,w
  4077  11FA  00DF               	movwf	(LCD_WRITE_NUM@j+1)^(0+128)
  4078  11FB  0870               	movf	?___aldiv,w
  4079  11FC  00DE               	movwf	LCD_WRITE_NUM@j^(0+128)
  4080  11FD                     l5089:	
  4081                           
  4082                           ;./libcd.h: 105:     while(j >= 1){
  4083  11FD  1683               	bsf	3,5	;RP0=1, select bank1
  4084  11FE  1303               	bcf	3,6	;RP1=0, select bank1
  4085  11FF  1BE1               	btfsc	(LCD_WRITE_NUM@j+3)^(0+128),7
  4086  1200  2A12               	goto	u7740
  4087  1201  0861               	movf	(LCD_WRITE_NUM@j+3)^(0+128),w
  4088  1202  1D03               	btfss	3,2
  4089  1203  2A11               	goto	u7741
  4090  1204  0860               	movf	(LCD_WRITE_NUM@j+2)^(0+128),w
  4091  1205  1D03               	btfss	3,2
  4092  1206  2A11               	goto	u7741
  4093  1207  085F               	movf	(LCD_WRITE_NUM@j+1)^(0+128),w
  4094  1208  1D03               	btfss	3,2
  4095  1209  2A11               	goto	u7741
  4096  120A  3001               	movlw	1
  4097  120B  025E               	subwf	LCD_WRITE_NUM@j^(0+128),w
  4098  120C  1D03               	skipz
  4099  120D  2A0E               	goto	u7743
  4100  120E                     u7743:	
  4101  120E  1803               	btfsc	3,0
  4102  120F  2A11               	goto	u7741
  4103  1210  2A12               	goto	u7740
  4104  1211                     u7741:	
  4105  1211  29D8               	goto	l5085
  4106  1212                     u7740:	
  4107  1212                     l5091:	
  4108                           
  4109                           ;./libcd.h: 109:     for(n--; n>=0; n--){
  4110  1212  30FF               	movlw	255
  4111  1213  1683               	bsf	3,5	;RP0=1, select bank1
  4112  1214  1303               	bcf	3,6	;RP1=0, select bank1
  4113  1215  07E2               	addwf	LCD_WRITE_NUM@n^(0+128),f
  4114  1216  1803               	skipnc
  4115  1217  0AE3               	incf	(LCD_WRITE_NUM@n+1)^(0+128),f
  4116  1218  30FF               	movlw	255
  4117  1219  07E3               	addwf	(LCD_WRITE_NUM@n+1)^(0+128),f
  4118  121A                     l5093:	
  4119  121A  1FE3               	btfss	(LCD_WRITE_NUM@n+1)^(0+128),7
  4120  121B  2A1D               	goto	u7751
  4121  121C  2A1E               	goto	u7750
  4122  121D                     u7751:	
  4123  121D  2A1F               	goto	l5097
  4124  121E                     u7750:	
  4125  121E  2AC9               	goto	l118
  4126  121F                     l5097:	
  4127                           
  4128                           ;./libcd.h: 110:         l = pow(10, n);
  4129  121F  0862               	movf	LCD_WRITE_NUM@n^(0+128),w
  4130  1220  00F0               	movwf	___xxtofl@val
  4131  1221  0863               	movf	(LCD_WRITE_NUM@n+1)^(0+128),w
  4132  1222  00F1               	movwf	___xxtofl@val+1
  4133  1223  3000               	movlw	0
  4134  1224  1BF1               	btfsc	___xxtofl@val+1,7
  4135  1225  30FF               	movlw	255
  4136  1226  00F2               	movwf	___xxtofl@val+2
  4137  1227  00F3               	movwf	___xxtofl@val+3
  4138  1228  3001               	movlw	1
  4139  1229  160A  158A  266A  160A  118A  	fcall	___xxtofl
  4140  122E  0873               	movf	?___xxtofl+3,w
  4141  122F  1683               	bsf	3,5	;RP0=1, select bank1
  4142  1230  1303               	bcf	3,6	;RP1=0, select bank1
  4143  1231  00D3               	movwf	(_LCD_WRITE_NUM$899+3)^(0+128)
  4144  1232  0872               	movf	?___xxtofl+2,w
  4145  1233  00D2               	movwf	(_LCD_WRITE_NUM$899+2)^(0+128)
  4146  1234  0871               	movf	?___xxtofl+1,w
  4147  1235  00D1               	movwf	(_LCD_WRITE_NUM$899+1)^(0+128)
  4148  1236  0870               	movf	?___xxtofl,w
  4149  1237  00D0               	movwf	_LCD_WRITE_NUM$899^(0+128)
  4150  1238                     l5099:	
  4151                           
  4152                           ;./libcd.h: 110:         l = pow(10, n);
  4153  1238  0853               	movf	(_LCD_WRITE_NUM$899+3)^(0+128),w
  4154  1239  00BD               	movwf	(pow@y+3)^(0+128)
  4155  123A  0852               	movf	(_LCD_WRITE_NUM$899+2)^(0+128),w
  4156  123B  00BC               	movwf	(pow@y+2)^(0+128)
  4157  123C  0851               	movf	(_LCD_WRITE_NUM$899+1)^(0+128),w
  4158  123D  00BB               	movwf	(pow@y+1)^(0+128)
  4159  123E  0850               	movf	_LCD_WRITE_NUM$899^(0+128),w
  4160  123F  00BA               	movwf	pow@y^(0+128)
  4161  1240  3041               	movlw	65
  4162  1241  00B9               	movwf	(pow@x+3)^(0+128)
  4163  1242  3020               	movlw	32
  4164  1243  00B8               	movwf	(pow@x+2)^(0+128)
  4165  1244  3000               	movlw	0
  4166  1245  00B7               	movwf	(pow@x+1)^(0+128)
  4167  1246  3000               	movlw	0
  4168  1247  00B6               	movwf	pow@x^(0+128)
  4169  1248  160A  118A  2442  160A  118A  	fcall	_pow
  4170  124D  1683               	bsf	3,5	;RP0=1, select bank1
  4171  124E  1303               	bcf	3,6	;RP1=0, select bank1
  4172  124F  0839               	movf	(?_pow+3)^(0+128),w
  4173  1250  00D7               	movwf	(_LCD_WRITE_NUM$900+3)^(0+128)
  4174  1251  0838               	movf	(?_pow+2)^(0+128),w
  4175  1252  00D6               	movwf	(_LCD_WRITE_NUM$900+2)^(0+128)
  4176  1253  0837               	movf	(?_pow+1)^(0+128),w
  4177  1254  00D5               	movwf	(_LCD_WRITE_NUM$900+1)^(0+128)
  4178  1255  0836               	movf	?_pow^(0+128),w
  4179  1256  00D4               	movwf	_LCD_WRITE_NUM$900^(0+128)
  4180  1257                     l5101:	
  4181                           
  4182                           ;./libcd.h: 110:         l = pow(10, n);
  4183  1257  0857               	movf	(_LCD_WRITE_NUM$900+3)^(0+128),w
  4184  1258  1283               	bcf	3,5	;RP0=0, select bank0
  4185  1259  1303               	bcf	3,6	;RP1=0, select bank0
  4186  125A  00A3               	movwf	___fltol@f1+3
  4187  125B  1683               	bsf	3,5	;RP0=1, select bank1
  4188  125C  1303               	bcf	3,6	;RP1=0, select bank1
  4189  125D  0856               	movf	(_LCD_WRITE_NUM$900+2)^(0+128),w
  4190  125E  1283               	bcf	3,5	;RP0=0, select bank0
  4191  125F  1303               	bcf	3,6	;RP1=0, select bank0
  4192  1260  00A2               	movwf	___fltol@f1+2
  4193  1261  1683               	bsf	3,5	;RP0=1, select bank1
  4194  1262  1303               	bcf	3,6	;RP1=0, select bank1
  4195  1263  0855               	movf	(_LCD_WRITE_NUM$900+1)^(0+128),w
  4196  1264  1283               	bcf	3,5	;RP0=0, select bank0
  4197  1265  1303               	bcf	3,6	;RP1=0, select bank0
  4198  1266  00A1               	movwf	___fltol@f1+1
  4199  1267  1683               	bsf	3,5	;RP0=1, select bank1
  4200  1268  1303               	bcf	3,6	;RP1=0, select bank1
  4201  1269  0854               	movf	_LCD_WRITE_NUM$900^(0+128),w
  4202  126A  1283               	bcf	3,5	;RP0=0, select bank0
  4203  126B  1303               	bcf	3,6	;RP1=0, select bank0
  4204  126C  00A0               	movwf	___fltol@f1
  4205  126D  160A  158A  24D4  160A  118A  	fcall	___fltol
  4206  1272  1283               	bcf	3,5	;RP0=0, select bank0
  4207  1273  1303               	bcf	3,6	;RP1=0, select bank0
  4208  1274  0821               	movf	?___fltol+1,w
  4209  1275  1683               	bsf	3,5	;RP0=1, select bank1
  4210  1276  1303               	bcf	3,6	;RP1=0, select bank1
  4211  1277  00DB               	movwf	(LCD_WRITE_NUM@l+1)^(0+128)
  4212  1278  1283               	bcf	3,5	;RP0=0, select bank0
  4213  1279  1303               	bcf	3,6	;RP1=0, select bank0
  4214  127A  0820               	movf	?___fltol,w
  4215  127B  1683               	bsf	3,5	;RP0=1, select bank1
  4216  127C  1303               	bcf	3,6	;RP1=0, select bank1
  4217  127D  00DA               	movwf	LCD_WRITE_NUM@l^(0+128)
  4218  127E                     l5103:	
  4219                           
  4220                           ;./libcd.h: 111:         k = i/l;
  4221  127E  085A               	movf	LCD_WRITE_NUM@l^(0+128),w
  4222  127F  00F0               	movwf	___aldiv@divisor
  4223  1280  085B               	movf	(LCD_WRITE_NUM@l+1)^(0+128),w
  4224  1281  00F1               	movwf	___aldiv@divisor+1
  4225  1282  3000               	movlw	0
  4226  1283  1BF1               	btfsc	___aldiv@divisor+1,7
  4227  1284  30FF               	movlw	255
  4228  1285  00F2               	movwf	___aldiv@divisor+2
  4229  1286  00F3               	movwf	___aldiv@divisor+3
  4230  1287  084F               	movf	(LCD_WRITE_NUM@i+3)^(0+128),w
  4231  1288  00F7               	movwf	___aldiv@dividend+3
  4232  1289  084E               	movf	(LCD_WRITE_NUM@i+2)^(0+128),w
  4233  128A  00F6               	movwf	___aldiv@dividend+2
  4234  128B  084D               	movf	(LCD_WRITE_NUM@i+1)^(0+128),w
  4235  128C  00F5               	movwf	___aldiv@dividend+1
  4236  128D  084C               	movf	LCD_WRITE_NUM@i^(0+128),w
  4237  128E  00F4               	movwf	___aldiv@dividend
  4238  128F  120A  158A  2008  160A  118A  	fcall	___aldiv
  4239  1294  0871               	movf	?___aldiv+1,w
  4240  1295  1683               	bsf	3,5	;RP0=1, select bank1
  4241  1296  1303               	bcf	3,6	;RP1=0, select bank1
  4242  1297  00D9               	movwf	(LCD_WRITE_NUM@k+1)^(0+128)
  4243  1298  0870               	movf	?___aldiv,w
  4244  1299  00D8               	movwf	LCD_WRITE_NUM@k^(0+128)
  4245  129A                     l5105:	
  4246                           
  4247                           ;./libcd.h: 112:         m = k%10;
  4248  129A  300A               	movlw	10
  4249  129B  00F0               	movwf	___awmod@divisor
  4250  129C  3000               	movlw	0
  4251  129D  00F1               	movwf	___awmod@divisor+1
  4252  129E  0859               	movf	(LCD_WRITE_NUM@k+1)^(0+128),w
  4253  129F  00F3               	movwf	___awmod@dividend+1
  4254  12A0  0858               	movf	LCD_WRITE_NUM@k^(0+128),w
  4255  12A1  00F2               	movwf	___awmod@dividend
  4256  12A2  160A  158A  23AC  160A  118A  	fcall	___awmod
  4257  12A7  0871               	movf	?___awmod+1,w
  4258  12A8  1683               	bsf	3,5	;RP0=1, select bank1
  4259  12A9  1303               	bcf	3,6	;RP1=0, select bank1
  4260  12AA  00DD               	movwf	(LCD_WRITE_NUM@m+1)^(0+128)
  4261  12AB  0870               	movf	?___awmod,w
  4262  12AC  00DC               	movwf	LCD_WRITE_NUM@m^(0+128)
  4263  12AD                     l5107:	
  4264                           
  4265                           ;./libcd.h: 114:         RD4 = 1;
  4266  12AD  1283               	bcf	3,5	;RP0=0, select bank0
  4267  12AE  1303               	bcf	3,6	;RP1=0, select bank0
  4268  12AF  1608               	bsf	8,4	;volatile
  4269  12B0                     l5109:	
  4270                           
  4271                           ;./libcd.h: 115:         lcd_port(3);
  4272  12B0  3003               	movlw	3
  4273  12B1  160A  158A  2181  160A  118A  	fcall	_lcd_port
  4274  12B6                     l5111:	
  4275                           
  4276                           ;./libcd.h: 116:         clock();
  4277  12B6  160A  158A  2168  160A  118A  	fcall	_clock
  4278  12BB                     l5113:	
  4279                           
  4280                           ;./libcd.h: 117:         lcd_port(m);
  4281  12BB  1683               	bsf	3,5	;RP0=1, select bank1
  4282  12BC  1303               	bcf	3,6	;RP1=0, select bank1
  4283  12BD  085C               	movf	LCD_WRITE_NUM@m^(0+128),w
  4284  12BE  160A  158A  2181  160A  118A  	fcall	_lcd_port
  4285  12C3                     l5115:	
  4286                           
  4287                           ;./libcd.h: 118:         clock();
  4288  12C3  160A  158A  2168  160A  118A  	fcall	_clock
  4289  12C8  2A12               	goto	l5091
  4290  12C9                     l118:	
  4291  12C9  0008               	return
  4292  12CA                     __end_of_LCD_WRITE_NUM:	
  4293                           
  4294                           	psect	text8
  4295  1442                     __ptext8:	
  4296 ;; *************** function _pow *****************
  4297 ;; Defined at:
  4298 ;;		line 5 in file "C:\Program Files (x86)\Microchip\xc8\v2.10\pic\sources\c90\common\pow.c"
  4299 ;; Parameters:    Size  Location     Type
  4300 ;;  x               4   22[BANK1 ] void 
  4301 ;;  y               4   26[BANK1 ] void 
  4302 ;; Auto vars:     Size  Location     Type
  4303 ;;  yi              4   40[BANK1 ] unsigned long 
  4304 ;;  sign            1   39[BANK1 ] unsigned char 
  4305 ;; Return value:  Size  Location     Type
  4306 ;;                  4   22[BANK1 ] unsigned char 
  4307 ;; Registers used:
  4308 ;;		wreg, fsr0l, fsr0h, status,2, status,0, btemp+1, pclath, cstack
  4309 ;; Tracked objects:
  4310 ;;		On entry : 0/0
  4311 ;;		On exit  : 0/0
  4312 ;;		Unchanged: 0/0
  4313 ;; Data sizes:     COMMON   BANK0   BANK1   BANK3   BANK2
  4314 ;;      Params:         0       0       8       0       0
  4315 ;;      Locals:         0       0      13       0       0
  4316 ;;      Temps:          0       0       1       0       0
  4317 ;;      Totals:         0       0      22       0       0
  4318 ;;Total ram usage:       22 bytes
  4319 ;; Hardware stack levels used:    1
  4320 ;; Hardware stack levels required when called:    4
  4321 ;; This function calls:
  4322 ;;		___fleq
  4323 ;;		___flge
  4324 ;;		___flmul
  4325 ;;		___flneg
  4326 ;;		___fltol
  4327 ;;		___xxtofl
  4328 ;;		_exp
  4329 ;;		_log
  4330 ;; This function is called by:
  4331 ;;		_LCD_WRITE_NUM
  4332 ;; This function uses a non-reentrant model
  4333 ;;
  4334                           
  4335                           
  4336                           ;psect for function _pow
  4337  1442                     _pow:	
  4338  1442                     l4927:	
  4339                           ;incstack = 0
  4340                           ; Regs used in _pow: [wreg-fsr0h+status,2+status,0+btemp+1+pclath+cstack]
  4341                           
  4342  1442  1683               	bsf	3,5	;RP0=1, select bank1
  4343  1443  1303               	bcf	3,6	;RP1=0, select bank1
  4344  1444  01C7               	clrf	pow@sign^(0+128)
  4345  1445                     l4929:	
  4346  1445  0839               	movf	(pow@x+3)^(0+128),w
  4347  1446  1283               	bcf	3,5	;RP0=0, select bank0
  4348  1447  1303               	bcf	3,6	;RP1=0, select bank0
  4349  1448  00A3               	movwf	___fleq@ff1+3
  4350  1449  1683               	bsf	3,5	;RP0=1, select bank1
  4351  144A  1303               	bcf	3,6	;RP1=0, select bank1
  4352  144B  0838               	movf	(pow@x+2)^(0+128),w
  4353  144C  1283               	bcf	3,5	;RP0=0, select bank0
  4354  144D  1303               	bcf	3,6	;RP1=0, select bank0
  4355  144E  00A2               	movwf	___fleq@ff1+2
  4356  144F  1683               	bsf	3,5	;RP0=1, select bank1
  4357  1450  1303               	bcf	3,6	;RP1=0, select bank1
  4358  1451  0837               	movf	(pow@x+1)^(0+128),w
  4359  1452  1283               	bcf	3,5	;RP0=0, select bank0
  4360  1453  1303               	bcf	3,6	;RP1=0, select bank0
  4361  1454  00A1               	movwf	___fleq@ff1+1
  4362  1455  1683               	bsf	3,5	;RP0=1, select bank1
  4363  1456  1303               	bcf	3,6	;RP1=0, select bank1
  4364  1457  0836               	movf	pow@x^(0+128),w
  4365  1458  1283               	bcf	3,5	;RP0=0, select bank0
  4366  1459  1303               	bcf	3,6	;RP1=0, select bank0
  4367  145A  00A0               	movwf	___fleq@ff1
  4368  145B  3000               	movlw	0
  4369  145C  00A7               	movwf	___fleq@ff2+3
  4370  145D  3000               	movlw	0
  4371  145E  00A6               	movwf	___fleq@ff2+2
  4372  145F  3000               	movlw	0
  4373  1460  00A5               	movwf	___fleq@ff2+1
  4374  1461  3000               	movlw	0
  4375  1462  00A4               	movwf	___fleq@ff2
  4376  1463  160A  158A  2309  160A  118A  	fcall	___fleq
  4377  1468  1C03               	btfss	3,0
  4378  1469  2C6B               	goto	u7431
  4379  146A  2C6C               	goto	u7430
  4380  146B                     u7431:	
  4381  146B  2C98               	goto	l4937
  4382  146C                     u7430:	
  4383  146C                     l4931:	
  4384  146C  3000               	movlw	0
  4385  146D  00F3               	movwf	___flge@ff1+3
  4386  146E  3000               	movlw	0
  4387  146F  00F2               	movwf	___flge@ff1+2
  4388  1470  3000               	movlw	0
  4389  1471  00F1               	movwf	___flge@ff1+1
  4390  1472  3000               	movlw	0
  4391  1473  00F0               	movwf	___flge@ff1
  4392  1474  1683               	bsf	3,5	;RP0=1, select bank1
  4393  1475  1303               	bcf	3,6	;RP1=0, select bank1
  4394  1476  083D               	movf	(pow@y+3)^(0+128),w
  4395  1477  00F7               	movwf	___flge@ff2+3
  4396  1478  083C               	movf	(pow@y+2)^(0+128),w
  4397  1479  00F6               	movwf	___flge@ff2+2
  4398  147A  083B               	movf	(pow@y+1)^(0+128),w
  4399  147B  00F5               	movwf	___flge@ff2+1
  4400  147C  083A               	movf	pow@y^(0+128),w
  4401  147D  00F4               	movwf	___flge@ff2
  4402  147E  120A  118A  2010  160A  118A  	fcall	___flge
  4403  1483  1C03               	btfss	3,0
  4404  1484  2C86               	goto	u7441
  4405  1485  2C87               	goto	u7440
  4406  1486                     u7441:	
  4407  1486  2C8D               	goto	l820
  4408  1487                     u7440:	
  4409  1487                     l4933:	
  4410  1487  3021               	movlw	33
  4411  1488  1683               	bsf	3,5	;RP0=1, select bank3
  4412  1489  1703               	bsf	3,6	;RP1=1, select bank3
  4413  148A  0090               	movwf	_errno^(0+384)
  4414  148B  3000               	movlw	0
  4415  148C  0091               	movwf	(_errno^(0+384)+1)
  4416  148D                     l820:	
  4417  148D  3000               	movlw	0
  4418  148E  1683               	bsf	3,5	;RP0=1, select bank1
  4419  148F  1303               	bcf	3,6	;RP1=0, select bank1
  4420  1490  00B9               	movwf	(?_pow+3)^(0+128)
  4421  1491  3000               	movlw	0
  4422  1492  00B8               	movwf	(?_pow+2)^(0+128)
  4423  1493  3000               	movlw	0
  4424  1494  00B7               	movwf	(?_pow+1)^(0+128)
  4425  1495  3000               	movlw	0
  4426  1496  00B6               	movwf	?_pow^(0+128)
  4427  1497  2E1C               	goto	l821
  4428  1498                     l4937:	
  4429  1498  1683               	bsf	3,5	;RP0=1, select bank1
  4430  1499  1303               	bcf	3,6	;RP1=0, select bank1
  4431  149A  083D               	movf	(pow@y+3)^(0+128),w
  4432  149B  1283               	bcf	3,5	;RP0=0, select bank0
  4433  149C  1303               	bcf	3,6	;RP1=0, select bank0
  4434  149D  00A3               	movwf	___fleq@ff1+3
  4435  149E  1683               	bsf	3,5	;RP0=1, select bank1
  4436  149F  1303               	bcf	3,6	;RP1=0, select bank1
  4437  14A0  083C               	movf	(pow@y+2)^(0+128),w
  4438  14A1  1283               	bcf	3,5	;RP0=0, select bank0
  4439  14A2  1303               	bcf	3,6	;RP1=0, select bank0
  4440  14A3  00A2               	movwf	___fleq@ff1+2
  4441  14A4  1683               	bsf	3,5	;RP0=1, select bank1
  4442  14A5  1303               	bcf	3,6	;RP1=0, select bank1
  4443  14A6  083B               	movf	(pow@y+1)^(0+128),w
  4444  14A7  1283               	bcf	3,5	;RP0=0, select bank0
  4445  14A8  1303               	bcf	3,6	;RP1=0, select bank0
  4446  14A9  00A1               	movwf	___fleq@ff1+1
  4447  14AA  1683               	bsf	3,5	;RP0=1, select bank1
  4448  14AB  1303               	bcf	3,6	;RP1=0, select bank1
  4449  14AC  083A               	movf	pow@y^(0+128),w
  4450  14AD  1283               	bcf	3,5	;RP0=0, select bank0
  4451  14AE  1303               	bcf	3,6	;RP1=0, select bank0
  4452  14AF  00A0               	movwf	___fleq@ff1
  4453  14B0  3000               	movlw	0
  4454  14B1  00A7               	movwf	___fleq@ff2+3
  4455  14B2  3000               	movlw	0
  4456  14B3  00A6               	movwf	___fleq@ff2+2
  4457  14B4  3000               	movlw	0
  4458  14B5  00A5               	movwf	___fleq@ff2+1
  4459  14B6  3000               	movlw	0
  4460  14B7  00A4               	movwf	___fleq@ff2
  4461  14B8  160A  158A  2309  160A  118A  	fcall	___fleq
  4462  14BD  1C03               	btfss	3,0
  4463  14BE  2CC0               	goto	u7451
  4464  14BF  2CC1               	goto	u7450
  4465  14C0                     u7451:	
  4466  14C0  2CCC               	goto	l4943
  4467  14C1                     u7450:	
  4468  14C1                     l4939:	
  4469  14C1  303F               	movlw	63
  4470  14C2  1683               	bsf	3,5	;RP0=1, select bank1
  4471  14C3  1303               	bcf	3,6	;RP1=0, select bank1
  4472  14C4  00B9               	movwf	(?_pow+3)^(0+128)
  4473  14C5  3080               	movlw	128
  4474  14C6  00B8               	movwf	(?_pow+2)^(0+128)
  4475  14C7  3000               	movlw	0
  4476  14C8  00B7               	movwf	(?_pow+1)^(0+128)
  4477  14C9  3000               	movlw	0
  4478  14CA  00B6               	movwf	?_pow^(0+128)
  4479  14CB  2E1C               	goto	l821
  4480  14CC                     l4943:	
  4481  14CC  1683               	bsf	3,5	;RP0=1, select bank1
  4482  14CD  1303               	bcf	3,6	;RP1=0, select bank1
  4483  14CE  0839               	movf	(pow@x+3)^(0+128),w
  4484  14CF  00F3               	movwf	___flge@ff1+3
  4485  14D0  0838               	movf	(pow@x+2)^(0+128),w
  4486  14D1  00F2               	movwf	___flge@ff1+2
  4487  14D2  0837               	movf	(pow@x+1)^(0+128),w
  4488  14D3  00F1               	movwf	___flge@ff1+1
  4489  14D4  0836               	movf	pow@x^(0+128),w
  4490  14D5  00F0               	movwf	___flge@ff1
  4491  14D6  3000               	movlw	0
  4492  14D7  00F7               	movwf	___flge@ff2+3
  4493  14D8  3000               	movlw	0
  4494  14D9  00F6               	movwf	___flge@ff2+2
  4495  14DA  3000               	movlw	0
  4496  14DB  00F5               	movwf	___flge@ff2+1
  4497  14DC  3000               	movlw	0
  4498  14DD  00F4               	movwf	___flge@ff2
  4499  14DE  120A  118A  2010  160A  118A  	fcall	___flge
  4500  14E3  1803               	btfsc	3,0
  4501  14E4  2CE6               	goto	u7461
  4502  14E5  2CE7               	goto	u7460
  4503  14E6                     u7461:	
  4504  14E6  2D84               	goto	l4955
  4505  14E7                     u7460:	
  4506  14E7                     l4945:	
  4507  14E7  1683               	bsf	3,5	;RP0=1, select bank1
  4508  14E8  1303               	bcf	3,6	;RP1=0, select bank1
  4509  14E9  083D               	movf	(pow@y+3)^(0+128),w
  4510  14EA  1283               	bcf	3,5	;RP0=0, select bank0
  4511  14EB  1303               	bcf	3,6	;RP1=0, select bank0
  4512  14EC  00A3               	movwf	___fltol@f1+3
  4513  14ED  1683               	bsf	3,5	;RP0=1, select bank1
  4514  14EE  1303               	bcf	3,6	;RP1=0, select bank1
  4515  14EF  083C               	movf	(pow@y+2)^(0+128),w
  4516  14F0  1283               	bcf	3,5	;RP0=0, select bank0
  4517  14F1  1303               	bcf	3,6	;RP1=0, select bank0
  4518  14F2  00A2               	movwf	___fltol@f1+2
  4519  14F3  1683               	bsf	3,5	;RP0=1, select bank1
  4520  14F4  1303               	bcf	3,6	;RP1=0, select bank1
  4521  14F5  083B               	movf	(pow@y+1)^(0+128),w
  4522  14F6  1283               	bcf	3,5	;RP0=0, select bank0
  4523  14F7  1303               	bcf	3,6	;RP1=0, select bank0
  4524  14F8  00A1               	movwf	___fltol@f1+1
  4525  14F9  1683               	bsf	3,5	;RP0=1, select bank1
  4526  14FA  1303               	bcf	3,6	;RP1=0, select bank1
  4527  14FB  083A               	movf	pow@y^(0+128),w
  4528  14FC  1283               	bcf	3,5	;RP0=0, select bank0
  4529  14FD  1303               	bcf	3,6	;RP1=0, select bank0
  4530  14FE  00A0               	movwf	___fltol@f1
  4531  14FF  160A  158A  24D4  160A  118A  	fcall	___fltol
  4532  1504  1283               	bcf	3,5	;RP0=0, select bank0
  4533  1505  1303               	bcf	3,6	;RP1=0, select bank0
  4534  1506  0823               	movf	?___fltol+3,w
  4535  1507  1683               	bsf	3,5	;RP0=1, select bank1
  4536  1508  1303               	bcf	3,6	;RP1=0, select bank1
  4537  1509  00CB               	movwf	(pow@yi+3)^(0+128)
  4538  150A  1283               	bcf	3,5	;RP0=0, select bank0
  4539  150B  1303               	bcf	3,6	;RP1=0, select bank0
  4540  150C  0822               	movf	?___fltol+2,w
  4541  150D  1683               	bsf	3,5	;RP0=1, select bank1
  4542  150E  1303               	bcf	3,6	;RP1=0, select bank1
  4543  150F  00CA               	movwf	(pow@yi+2)^(0+128)
  4544  1510  1283               	bcf	3,5	;RP0=0, select bank0
  4545  1511  1303               	bcf	3,6	;RP1=0, select bank0
  4546  1512  0821               	movf	?___fltol+1,w
  4547  1513  1683               	bsf	3,5	;RP0=1, select bank1
  4548  1514  1303               	bcf	3,6	;RP1=0, select bank1
  4549  1515  00C9               	movwf	(pow@yi+1)^(0+128)
  4550  1516  1283               	bcf	3,5	;RP0=0, select bank0
  4551  1517  1303               	bcf	3,6	;RP1=0, select bank0
  4552  1518  0820               	movf	?___fltol,w
  4553  1519  1683               	bsf	3,5	;RP0=1, select bank1
  4554  151A  1303               	bcf	3,6	;RP1=0, select bank1
  4555  151B  00C8               	movwf	pow@yi^(0+128)
  4556  151C  084B               	movf	(pow@yi+3)^(0+128),w
  4557  151D  00F3               	movwf	___xxtofl@val+3
  4558  151E  084A               	movf	(pow@yi+2)^(0+128),w
  4559  151F  00F2               	movwf	___xxtofl@val+2
  4560  1520  0849               	movf	(pow@yi+1)^(0+128),w
  4561  1521  00F1               	movwf	___xxtofl@val+1
  4562  1522  0848               	movf	pow@yi^(0+128),w
  4563  1523  00F0               	movwf	___xxtofl@val
  4564  1524  3000               	movlw	0
  4565  1525  160A  158A  266A  160A  118A  	fcall	___xxtofl
  4566  152A  0873               	movf	?___xxtofl+3,w
  4567  152B  1283               	bcf	3,5	;RP0=0, select bank0
  4568  152C  1303               	bcf	3,6	;RP1=0, select bank0
  4569  152D  00A3               	movwf	___fleq@ff1+3
  4570  152E  0872               	movf	?___xxtofl+2,w
  4571  152F  00A2               	movwf	___fleq@ff1+2
  4572  1530  0871               	movf	?___xxtofl+1,w
  4573  1531  00A1               	movwf	___fleq@ff1+1
  4574  1532  0870               	movf	?___xxtofl,w
  4575  1533  00A0               	movwf	___fleq@ff1
  4576  1534  1683               	bsf	3,5	;RP0=1, select bank1
  4577  1535  1303               	bcf	3,6	;RP1=0, select bank1
  4578  1536  083D               	movf	(pow@y+3)^(0+128),w
  4579  1537  1283               	bcf	3,5	;RP0=0, select bank0
  4580  1538  1303               	bcf	3,6	;RP1=0, select bank0
  4581  1539  00A7               	movwf	___fleq@ff2+3
  4582  153A  1683               	bsf	3,5	;RP0=1, select bank1
  4583  153B  1303               	bcf	3,6	;RP1=0, select bank1
  4584  153C  083C               	movf	(pow@y+2)^(0+128),w
  4585  153D  1283               	bcf	3,5	;RP0=0, select bank0
  4586  153E  1303               	bcf	3,6	;RP1=0, select bank0
  4587  153F  00A6               	movwf	___fleq@ff2+2
  4588  1540  1683               	bsf	3,5	;RP0=1, select bank1
  4589  1541  1303               	bcf	3,6	;RP1=0, select bank1
  4590  1542  083B               	movf	(pow@y+1)^(0+128),w
  4591  1543  1283               	bcf	3,5	;RP0=0, select bank0
  4592  1544  1303               	bcf	3,6	;RP1=0, select bank0
  4593  1545  00A5               	movwf	___fleq@ff2+1
  4594  1546  1683               	bsf	3,5	;RP0=1, select bank1
  4595  1547  1303               	bcf	3,6	;RP1=0, select bank1
  4596  1548  083A               	movf	pow@y^(0+128),w
  4597  1549  1283               	bcf	3,5	;RP0=0, select bank0
  4598  154A  1303               	bcf	3,6	;RP1=0, select bank0
  4599  154B  00A4               	movwf	___fleq@ff2
  4600  154C  160A  158A  2309  160A  118A  	fcall	___fleq
  4601  1551  1803               	btfsc	3,0
  4602  1552  2D54               	goto	u7471
  4603  1553  2D55               	goto	u7470
  4604  1554                     u7471:	
  4605  1554  2D66               	goto	l4951
  4606  1555                     u7470:	
  4607  1555                     l4947:	
  4608  1555  3021               	movlw	33
  4609  1556  1683               	bsf	3,5	;RP0=1, select bank3
  4610  1557  1703               	bsf	3,6	;RP1=1, select bank3
  4611  1558  0090               	movwf	_errno^(0+384)
  4612  1559  3000               	movlw	0
  4613  155A  0091               	movwf	(_errno^(0+384)+1)
  4614  155B  3000               	movlw	0
  4615  155C  1683               	bsf	3,5	;RP0=1, select bank1
  4616  155D  1303               	bcf	3,6	;RP1=0, select bank1
  4617  155E  00B9               	movwf	(?_pow+3)^(0+128)
  4618  155F  3000               	movlw	0
  4619  1560  00B8               	movwf	(?_pow+2)^(0+128)
  4620  1561  3000               	movlw	0
  4621  1562  00B7               	movwf	(?_pow+1)^(0+128)
  4622  1563  3000               	movlw	0
  4623  1564  00B6               	movwf	?_pow^(0+128)
  4624  1565  2E1C               	goto	l821
  4625  1566                     l4951:	
  4626  1566  1683               	bsf	3,5	;RP0=1, select bank1
  4627  1567  1303               	bcf	3,6	;RP1=0, select bank1
  4628  1568  0848               	movf	pow@yi^(0+128),w
  4629  1569  3901               	andlw	1
  4630  156A  00BE               	movwf	??_pow^(0+128)
  4631  156B  083E               	movf	??_pow^(0+128),w
  4632  156C  00C7               	movwf	pow@sign^(0+128)
  4633  156D                     l4953:	
  4634  156D  0839               	movf	(pow@x+3)^(0+128),w
  4635  156E  00F3               	movwf	___flneg@f1+3
  4636  156F  0838               	movf	(pow@x+2)^(0+128),w
  4637  1570  00F2               	movwf	___flneg@f1+2
  4638  1571  0837               	movf	(pow@x+1)^(0+128),w
  4639  1572  00F1               	movwf	___flneg@f1+1
  4640  1573  0836               	movf	pow@x^(0+128),w
  4641  1574  00F0               	movwf	___flneg@f1
  4642  1575  160A  158A  2136  160A  118A  	fcall	___flneg
  4643  157A  0873               	movf	?___flneg+3,w
  4644  157B  1683               	bsf	3,5	;RP0=1, select bank1
  4645  157C  1303               	bcf	3,6	;RP1=0, select bank1
  4646  157D  00B9               	movwf	(pow@x+3)^(0+128)
  4647  157E  0872               	movf	?___flneg+2,w
  4648  157F  00B8               	movwf	(pow@x+2)^(0+128)
  4649  1580  0871               	movf	?___flneg+1,w
  4650  1581  00B7               	movwf	(pow@x+1)^(0+128)
  4651  1582  0870               	movf	?___flneg,w
  4652  1583  00B6               	movwf	pow@x^(0+128)
  4653  1584                     l4955:	
  4654  1584  1683               	bsf	3,5	;RP0=1, select bank1
  4655  1585  1303               	bcf	3,6	;RP1=0, select bank1
  4656  1586  0839               	movf	(pow@x+3)^(0+128),w
  4657  1587  00A7               	movwf	(log@x+3)^(0+128)
  4658  1588  0838               	movf	(pow@x+2)^(0+128),w
  4659  1589  00A6               	movwf	(log@x+2)^(0+128)
  4660  158A  0837               	movf	(pow@x+1)^(0+128),w
  4661  158B  00A5               	movwf	(log@x+1)^(0+128)
  4662  158C  0836               	movf	pow@x^(0+128),w
  4663  158D  00A4               	movwf	log@x^(0+128)
  4664  158E  160A  118A  22CA  160A  118A  	fcall	_log
  4665  1593  1683               	bsf	3,5	;RP0=1, select bank1
  4666  1594  1303               	bcf	3,6	;RP1=0, select bank1
  4667  1595  0827               	movf	(?_log+3)^(0+128),w
  4668  1596  00C2               	movwf	(_pow$901+3)^(0+128)
  4669  1597  0826               	movf	(?_log+2)^(0+128),w
  4670  1598  00C1               	movwf	(_pow$901+2)^(0+128)
  4671  1599  0825               	movf	(?_log+1)^(0+128),w
  4672  159A  00C0               	movwf	(_pow$901+1)^(0+128)
  4673  159B  0824               	movf	?_log^(0+128),w
  4674  159C  00BF               	movwf	_pow$901^(0+128)
  4675  159D                     l4957:	
  4676  159D  083D               	movf	(pow@y+3)^(0+128),w
  4677  159E  1283               	bcf	3,5	;RP0=0, select bank0
  4678  159F  1303               	bcf	3,6	;RP1=0, select bank0
  4679  15A0  00B6               	movwf	___flmul@b+3
  4680  15A1  1683               	bsf	3,5	;RP0=1, select bank1
  4681  15A2  1303               	bcf	3,6	;RP1=0, select bank1
  4682  15A3  083C               	movf	(pow@y+2)^(0+128),w
  4683  15A4  1283               	bcf	3,5	;RP0=0, select bank0
  4684  15A5  1303               	bcf	3,6	;RP1=0, select bank0
  4685  15A6  00B5               	movwf	___flmul@b+2
  4686  15A7  1683               	bsf	3,5	;RP0=1, select bank1
  4687  15A8  1303               	bcf	3,6	;RP1=0, select bank1
  4688  15A9  083B               	movf	(pow@y+1)^(0+128),w
  4689  15AA  1283               	bcf	3,5	;RP0=0, select bank0
  4690  15AB  1303               	bcf	3,6	;RP1=0, select bank0
  4691  15AC  00B4               	movwf	___flmul@b+1
  4692  15AD  1683               	bsf	3,5	;RP0=1, select bank1
  4693  15AE  1303               	bcf	3,6	;RP1=0, select bank1
  4694  15AF  083A               	movf	pow@y^(0+128),w
  4695  15B0  1283               	bcf	3,5	;RP0=0, select bank0
  4696  15B1  1303               	bcf	3,6	;RP1=0, select bank0
  4697  15B2  00B3               	movwf	___flmul@b
  4698  15B3  1683               	bsf	3,5	;RP0=1, select bank1
  4699  15B4  1303               	bcf	3,6	;RP1=0, select bank1
  4700  15B5  0842               	movf	(_pow$901+3)^(0+128),w
  4701  15B6  1283               	bcf	3,5	;RP0=0, select bank0
  4702  15B7  1303               	bcf	3,6	;RP1=0, select bank0
  4703  15B8  00BA               	movwf	___flmul@a+3
  4704  15B9  1683               	bsf	3,5	;RP0=1, select bank1
  4705  15BA  1303               	bcf	3,6	;RP1=0, select bank1
  4706  15BB  0841               	movf	(_pow$901+2)^(0+128),w
  4707  15BC  1283               	bcf	3,5	;RP0=0, select bank0
  4708  15BD  1303               	bcf	3,6	;RP1=0, select bank0
  4709  15BE  00B9               	movwf	___flmul@a+2
  4710  15BF  1683               	bsf	3,5	;RP0=1, select bank1
  4711  15C0  1303               	bcf	3,6	;RP1=0, select bank1
  4712  15C1  0840               	movf	(_pow$901+1)^(0+128),w
  4713  15C2  1283               	bcf	3,5	;RP0=0, select bank0
  4714  15C3  1303               	bcf	3,6	;RP1=0, select bank0
  4715  15C4  00B8               	movwf	___flmul@a+1
  4716  15C5  1683               	bsf	3,5	;RP0=1, select bank1
  4717  15C6  1303               	bcf	3,6	;RP1=0, select bank1
  4718  15C7  083F               	movf	_pow$901^(0+128),w
  4719  15C8  1283               	bcf	3,5	;RP0=0, select bank0
  4720  15C9  1303               	bcf	3,6	;RP1=0, select bank0
  4721  15CA  00B7               	movwf	___flmul@a
  4722  15CB  120A  118A  20B2  160A  118A  	fcall	___flmul
  4723  15D0  1283               	bcf	3,5	;RP0=0, select bank0
  4724  15D1  1303               	bcf	3,6	;RP1=0, select bank0
  4725  15D2  0836               	movf	?___flmul+3,w
  4726  15D3  1683               	bsf	3,5	;RP0=1, select bank1
  4727  15D4  1303               	bcf	3,6	;RP1=0, select bank1
  4728  15D5  00C6               	movwf	(_pow$902+3)^(0+128)
  4729  15D6  1283               	bcf	3,5	;RP0=0, select bank0
  4730  15D7  1303               	bcf	3,6	;RP1=0, select bank0
  4731  15D8  0835               	movf	?___flmul+2,w
  4732  15D9  1683               	bsf	3,5	;RP0=1, select bank1
  4733  15DA  1303               	bcf	3,6	;RP1=0, select bank1
  4734  15DB  00C5               	movwf	(_pow$902+2)^(0+128)
  4735  15DC  1283               	bcf	3,5	;RP0=0, select bank0
  4736  15DD  1303               	bcf	3,6	;RP1=0, select bank0
  4737  15DE  0834               	movf	?___flmul+1,w
  4738  15DF  1683               	bsf	3,5	;RP0=1, select bank1
  4739  15E0  1303               	bcf	3,6	;RP1=0, select bank1
  4740  15E1  00C4               	movwf	(_pow$902+1)^(0+128)
  4741  15E2  1283               	bcf	3,5	;RP0=0, select bank0
  4742  15E3  1303               	bcf	3,6	;RP1=0, select bank0
  4743  15E4  0833               	movf	?___flmul,w
  4744  15E5  1683               	bsf	3,5	;RP0=1, select bank1
  4745  15E6  1303               	bcf	3,6	;RP1=0, select bank1
  4746  15E7  00C3               	movwf	_pow$902^(0+128)
  4747  15E8                     l4959:	
  4748  15E8  0846               	movf	(_pow$902+3)^(0+128),w
  4749  15E9  00AD               	movwf	(exp@x+3)^(0+128)
  4750  15EA  0845               	movf	(_pow$902+2)^(0+128),w
  4751  15EB  00AC               	movwf	(exp@x+2)^(0+128)
  4752  15EC  0844               	movf	(_pow$902+1)^(0+128),w
  4753  15ED  00AB               	movwf	(exp@x+1)^(0+128)
  4754  15EE  0843               	movf	_pow$902^(0+128),w
  4755  15EF  00AA               	movwf	exp@x^(0+128)
  4756  15F0  120A  158A  20A5  160A  118A  	fcall	_exp
  4757  15F5  1683               	bsf	3,5	;RP0=1, select bank1
  4758  15F6  1303               	bcf	3,6	;RP1=0, select bank1
  4759  15F7  082D               	movf	(?_exp+3)^(0+128),w
  4760  15F8  00B9               	movwf	(pow@x+3)^(0+128)
  4761  15F9  082C               	movf	(?_exp+2)^(0+128),w
  4762  15FA  00B8               	movwf	(pow@x+2)^(0+128)
  4763  15FB  082B               	movf	(?_exp+1)^(0+128),w
  4764  15FC  00B7               	movwf	(pow@x+1)^(0+128)
  4765  15FD  082A               	movf	?_exp^(0+128),w
  4766  15FE  00B6               	movwf	pow@x^(0+128)
  4767  15FF                     l4961:	
  4768  15FF  0847               	movf	pow@sign^(0+128),w
  4769  1600  1903               	btfsc	3,2
  4770  1601  2E03               	goto	u7481
  4771  1602  2E04               	goto	u7480
  4772  1603                     u7481:	
  4773  1603  2E1C               	goto	l825
  4774  1604                     u7480:	
  4775  1604                     l4963:	
  4776  1604  0839               	movf	(pow@x+3)^(0+128),w
  4777  1605  00F3               	movwf	___flneg@f1+3
  4778  1606  0838               	movf	(pow@x+2)^(0+128),w
  4779  1607  00F2               	movwf	___flneg@f1+2
  4780  1608  0837               	movf	(pow@x+1)^(0+128),w
  4781  1609  00F1               	movwf	___flneg@f1+1
  4782  160A  0836               	movf	pow@x^(0+128),w
  4783  160B  00F0               	movwf	___flneg@f1
  4784  160C  160A  158A  2136  160A  118A  	fcall	___flneg
  4785  1611  0873               	movf	?___flneg+3,w
  4786  1612  1683               	bsf	3,5	;RP0=1, select bank1
  4787  1613  1303               	bcf	3,6	;RP1=0, select bank1
  4788  1614  00B9               	movwf	(?_pow+3)^(0+128)
  4789  1615  0872               	movf	?___flneg+2,w
  4790  1616  00B8               	movwf	(?_pow+2)^(0+128)
  4791  1617  0871               	movf	?___flneg+1,w
  4792  1618  00B7               	movwf	(?_pow+1)^(0+128)
  4793  1619  0870               	movf	?___flneg,w
  4794  161A  00B6               	movwf	?_pow^(0+128)
  4795  161B  2E1C               	goto	l821
  4796  161C                     l825:	
  4797  161C                     l821:	
  4798  161C  0008               	return
  4799  161D                     __end_of_pow:	
  4800                           
  4801                           	psect	text9
  4802  12CA                     __ptext9:	
  4803 ;; *************** function _log *****************
  4804 ;; Defined at:
  4805 ;;		line 5 in file "C:\Program Files (x86)\Microchip\xc8\v2.10\pic\sources\c90\common\log.c"
  4806 ;; Parameters:    Size  Location     Type
  4807 ;;  x               4    4[BANK1 ] unsigned char 
  4808 ;; Auto vars:     Size  Location     Type
  4809 ;;  exponent        2   78[BANK0 ] int 
  4810 ;; Return value:  Size  Location     Type
  4811 ;;                  4    4[BANK1 ] int 
  4812 ;; Registers used:
  4813 ;;		wreg, fsr0l, fsr0h, status,2, status,0, btemp+1, pclath, cstack
  4814 ;; Tracked objects:
  4815 ;;		On entry : 0/0
  4816 ;;		On exit  : 0/0
  4817 ;;		Unchanged: 0/0
  4818 ;; Data sizes:     COMMON   BANK0   BANK1   BANK3   BANK2
  4819 ;;      Params:         0       0       4       0       0
  4820 ;;      Locals:         0       2       0       0       0
  4821 ;;      Temps:          0       1       0       0       0
  4822 ;;      Totals:         0       3       4       0       0
  4823 ;;Total ram usage:        7 bytes
  4824 ;; Hardware stack levels used:    1
  4825 ;; Hardware stack levels required when called:    3
  4826 ;; This function calls:
  4827 ;;		___fladd
  4828 ;;		___fleq
  4829 ;;		___flge
  4830 ;;		___flmul
  4831 ;;		___xxtofl
  4832 ;;		_eval_poly
  4833 ;;		_frexp
  4834 ;; This function is called by:
  4835 ;;		_pow
  4836 ;; This function uses a non-reentrant model
  4837 ;;
  4838                           
  4839                           
  4840                           ;psect for function _log
  4841  12CA                     _log:	
  4842  12CA                     l4843:	
  4843                           ;incstack = 0
  4844                           ; Regs used in _log: [wreg-fsr0h+status,2+status,0+btemp+1+pclath+cstack]
  4845                           
  4846  12CA  1683               	bsf	3,5	;RP0=1, select bank1
  4847  12CB  1303               	bcf	3,6	;RP1=0, select bank1
  4848  12CC  0827               	movf	(log@x+3)^(0+128),w
  4849  12CD  00F3               	movwf	___flge@ff1+3
  4850  12CE  0826               	movf	(log@x+2)^(0+128),w
  4851  12CF  00F2               	movwf	___flge@ff1+2
  4852  12D0  0825               	movf	(log@x+1)^(0+128),w
  4853  12D1  00F1               	movwf	___flge@ff1+1
  4854  12D2  0824               	movf	log@x^(0+128),w
  4855  12D3  00F0               	movwf	___flge@ff1
  4856  12D4  3000               	movlw	0
  4857  12D5  00F7               	movwf	___flge@ff2+3
  4858  12D6  3000               	movlw	0
  4859  12D7  00F6               	movwf	___flge@ff2+2
  4860  12D8  3000               	movlw	0
  4861  12D9  00F5               	movwf	___flge@ff2+1
  4862  12DA  3000               	movlw	0
  4863  12DB  00F4               	movwf	___flge@ff2
  4864  12DC  120A  118A  2010  160A  118A  	fcall	___flge
  4865  12E1  1803               	btfsc	3,0
  4866  12E2  2AE4               	goto	u7321
  4867  12E3  2AE5               	goto	u7320
  4868  12E4                     u7321:	
  4869  12E4  2AF6               	goto	l4849
  4870  12E5                     u7320:	
  4871  12E5                     l4845:	
  4872  12E5  3021               	movlw	33
  4873  12E6  1683               	bsf	3,5	;RP0=1, select bank3
  4874  12E7  1703               	bsf	3,6	;RP1=1, select bank3
  4875  12E8  0090               	movwf	_errno^(0+384)
  4876  12E9  3000               	movlw	0
  4877  12EA  0091               	movwf	(_errno^(0+384)+1)
  4878  12EB  3000               	movlw	0
  4879  12EC  1683               	bsf	3,5	;RP0=1, select bank1
  4880  12ED  1303               	bcf	3,6	;RP1=0, select bank1
  4881  12EE  00A7               	movwf	(?_log+3)^(0+128)
  4882  12EF  3000               	movlw	0
  4883  12F0  00A6               	movwf	(?_log+2)^(0+128)
  4884  12F1  3000               	movlw	0
  4885  12F2  00A5               	movwf	(?_log+1)^(0+128)
  4886  12F3  3000               	movlw	0
  4887  12F4  00A4               	movwf	?_log^(0+128)
  4888  12F5  2C41               	goto	l889
  4889  12F6                     l4849:	
  4890  12F6  1683               	bsf	3,5	;RP0=1, select bank1
  4891  12F7  1303               	bcf	3,6	;RP1=0, select bank1
  4892  12F8  0827               	movf	(log@x+3)^(0+128),w
  4893  12F9  1283               	bcf	3,5	;RP0=0, select bank0
  4894  12FA  1303               	bcf	3,6	;RP1=0, select bank0
  4895  12FB  00A3               	movwf	___fleq@ff1+3
  4896  12FC  1683               	bsf	3,5	;RP0=1, select bank1
  4897  12FD  1303               	bcf	3,6	;RP1=0, select bank1
  4898  12FE  0826               	movf	(log@x+2)^(0+128),w
  4899  12FF  1283               	bcf	3,5	;RP0=0, select bank0
  4900  1300  1303               	bcf	3,6	;RP1=0, select bank0
  4901  1301  00A2               	movwf	___fleq@ff1+2
  4902  1302  1683               	bsf	3,5	;RP0=1, select bank1
  4903  1303  1303               	bcf	3,6	;RP1=0, select bank1
  4904  1304  0825               	movf	(log@x+1)^(0+128),w
  4905  1305  1283               	bcf	3,5	;RP0=0, select bank0
  4906  1306  1303               	bcf	3,6	;RP1=0, select bank0
  4907  1307  00A1               	movwf	___fleq@ff1+1
  4908  1308  1683               	bsf	3,5	;RP0=1, select bank1
  4909  1309  1303               	bcf	3,6	;RP1=0, select bank1
  4910  130A  0824               	movf	log@x^(0+128),w
  4911  130B  1283               	bcf	3,5	;RP0=0, select bank0
  4912  130C  1303               	bcf	3,6	;RP1=0, select bank0
  4913  130D  00A0               	movwf	___fleq@ff1
  4914  130E  3000               	movlw	0
  4915  130F  00A7               	movwf	___fleq@ff2+3
  4916  1310  3000               	movlw	0
  4917  1311  00A6               	movwf	___fleq@ff2+2
  4918  1312  3000               	movlw	0
  4919  1313  00A5               	movwf	___fleq@ff2+1
  4920  1314  3000               	movlw	0
  4921  1315  00A4               	movwf	___fleq@ff2
  4922  1316  160A  158A  2309  160A  118A  	fcall	___fleq
  4923  131B  1C03               	btfss	3,0
  4924  131C  2B1E               	goto	u7331
  4925  131D  2B1F               	goto	u7330
  4926  131E                     u7331:	
  4927  131E  2B30               	goto	l4855
  4928  131F                     u7330:	
  4929  131F                     l4851:	
  4930  131F  3022               	movlw	34
  4931  1320  1683               	bsf	3,5	;RP0=1, select bank3
  4932  1321  1703               	bsf	3,6	;RP1=1, select bank3
  4933  1322  0090               	movwf	_errno^(0+384)
  4934  1323  3000               	movlw	0
  4935  1324  0091               	movwf	(_errno^(0+384)+1)
  4936  1325  3000               	movlw	0
  4937  1326  1683               	bsf	3,5	;RP0=1, select bank1
  4938  1327  1303               	bcf	3,6	;RP1=0, select bank1
  4939  1328  00A7               	movwf	(?_log+3)^(0+128)
  4940  1329  3000               	movlw	0
  4941  132A  00A6               	movwf	(?_log+2)^(0+128)
  4942  132B  3000               	movlw	0
  4943  132C  00A5               	movwf	(?_log+1)^(0+128)
  4944  132D  3000               	movlw	0
  4945  132E  00A4               	movwf	?_log^(0+128)
  4946  132F  2C41               	goto	l889
  4947  1330                     l4855:	
  4948  1330  30BF               	movlw	191
  4949  1331  1283               	bcf	3,5	;RP0=0, select bank0
  4950  1332  1303               	bcf	3,6	;RP1=0, select bank0
  4951  1333  00D0               	movwf	___fladd@b+3
  4952  1334  3080               	movlw	128
  4953  1335  00CF               	movwf	___fladd@b+2
  4954  1336  3000               	movlw	0
  4955  1337  00CE               	movwf	___fladd@b+1
  4956  1338  3000               	movlw	0
  4957  1339  00CD               	movwf	___fladd@b
  4958  133A  3040               	movlw	64
  4959  133B  00B6               	movwf	___flmul@b+3
  4960  133C  3000               	movlw	0
  4961  133D  00B5               	movwf	___flmul@b+2
  4962  133E  3000               	movlw	0
  4963  133F  00B4               	movwf	___flmul@b+1
  4964  1340  3000               	movlw	0
  4965  1341  00B3               	movwf	___flmul@b
  4966  1342  306E               	movlw	(low (log@exponent| 0))& (0+255)
  4967  1343  00ED               	movwf	??_log
  4968  1344  086D               	movf	??_log,w
  4969  1345  00B0               	movwf	frexp@eptr
  4970  1346  1683               	bsf	3,5	;RP0=1, select bank1
  4971  1347  1303               	bcf	3,6	;RP1=0, select bank1
  4972  1348  0827               	movf	(log@x+3)^(0+128),w
  4973  1349  1283               	bcf	3,5	;RP0=0, select bank0
  4974  134A  1303               	bcf	3,6	;RP1=0, select bank0
  4975  134B  00AF               	movwf	frexp@value+3
  4976  134C  1683               	bsf	3,5	;RP0=1, select bank1
  4977  134D  1303               	bcf	3,6	;RP1=0, select bank1
  4978  134E  0826               	movf	(log@x+2)^(0+128),w
  4979  134F  1283               	bcf	3,5	;RP0=0, select bank0
  4980  1350  1303               	bcf	3,6	;RP1=0, select bank0
  4981  1351  00AE               	movwf	frexp@value+2
  4982  1352  1683               	bsf	3,5	;RP0=1, select bank1
  4983  1353  1303               	bcf	3,6	;RP1=0, select bank1
  4984  1354  0825               	movf	(log@x+1)^(0+128),w
  4985  1355  1283               	bcf	3,5	;RP0=0, select bank0
  4986  1356  1303               	bcf	3,6	;RP1=0, select bank0
  4987  1357  00AD               	movwf	frexp@value+1
  4988  1358  1683               	bsf	3,5	;RP0=1, select bank1
  4989  1359  1303               	bcf	3,6	;RP1=0, select bank1
  4990  135A  0824               	movf	log@x^(0+128),w
  4991  135B  1283               	bcf	3,5	;RP0=0, select bank0
  4992  135C  1303               	bcf	3,6	;RP1=0, select bank0
  4993  135D  00AC               	movwf	frexp@value
  4994  135E  160A  158A  2405  160A  118A  	fcall	_frexp
  4995  1363  1283               	bcf	3,5	;RP0=0, select bank0
  4996  1364  1303               	bcf	3,6	;RP1=0, select bank0
  4997  1365  082F               	movf	?_frexp+3,w
  4998  1366  00BA               	movwf	___flmul@a+3
  4999  1367  082E               	movf	?_frexp+2,w
  5000  1368  00B9               	movwf	___flmul@a+2
  5001  1369  082D               	movf	?_frexp+1,w
  5002  136A  00B8               	movwf	___flmul@a+1
  5003  136B  082C               	movf	?_frexp,w
  5004  136C  00B7               	movwf	___flmul@a
  5005  136D  120A  118A  20B2  160A  118A  	fcall	___flmul
  5006  1372  1283               	bcf	3,5	;RP0=0, select bank0
  5007  1373  1303               	bcf	3,6	;RP1=0, select bank0
  5008  1374  0836               	movf	?___flmul+3,w
  5009  1375  00D4               	movwf	___fladd@a+3
  5010  1376  0835               	movf	?___flmul+2,w
  5011  1377  00D3               	movwf	___fladd@a+2
  5012  1378  0834               	movf	?___flmul+1,w
  5013  1379  00D2               	movwf	___fladd@a+1
  5014  137A  0833               	movf	?___flmul,w
  5015  137B  00D1               	movwf	___fladd@a
  5016  137C  120A  158A  2578  160A  118A  	fcall	___fladd
  5017  1381  1283               	bcf	3,5	;RP0=0, select bank0
  5018  1382  1303               	bcf	3,6	;RP1=0, select bank0
  5019  1383  0850               	movf	?___fladd+3,w
  5020  1384  1683               	bsf	3,5	;RP0=1, select bank1
  5021  1385  1303               	bcf	3,6	;RP1=0, select bank1
  5022  1386  00A7               	movwf	(log@x+3)^(0+128)
  5023  1387  1283               	bcf	3,5	;RP0=0, select bank0
  5024  1388  1303               	bcf	3,6	;RP1=0, select bank0
  5025  1389  084F               	movf	?___fladd+2,w
  5026  138A  1683               	bsf	3,5	;RP0=1, select bank1
  5027  138B  1303               	bcf	3,6	;RP1=0, select bank1
  5028  138C  00A6               	movwf	(log@x+2)^(0+128)
  5029  138D  1283               	bcf	3,5	;RP0=0, select bank0
  5030  138E  1303               	bcf	3,6	;RP1=0, select bank0
  5031  138F  084E               	movf	?___fladd+1,w
  5032  1390  1683               	bsf	3,5	;RP0=1, select bank1
  5033  1391  1303               	bcf	3,6	;RP1=0, select bank1
  5034  1392  00A5               	movwf	(log@x+1)^(0+128)
  5035  1393  1283               	bcf	3,5	;RP0=0, select bank0
  5036  1394  1303               	bcf	3,6	;RP1=0, select bank0
  5037  1395  084D               	movf	?___fladd,w
  5038  1396  1683               	bsf	3,5	;RP0=1, select bank1
  5039  1397  1303               	bcf	3,6	;RP1=0, select bank1
  5040  1398  00A4               	movwf	log@x^(0+128)
  5041  1399                     l4857:	
  5042  1399  30FF               	movlw	255
  5043  139A  1283               	bcf	3,5	;RP0=0, select bank0
  5044  139B  1303               	bcf	3,6	;RP1=0, select bank0
  5045  139C  07EE               	addwf	log@exponent,f
  5046  139D  1803               	skipnc
  5047  139E  0AEF               	incf	log@exponent+1,f
  5048  139F  30FF               	movlw	255
  5049  13A0  07EF               	addwf	log@exponent+1,f
  5050  13A1                     l4859:	
  5051  13A1  1683               	bsf	3,5	;RP0=1, select bank1
  5052  13A2  1303               	bcf	3,6	;RP1=0, select bank1
  5053  13A3  0827               	movf	(log@x+3)^(0+128),w
  5054  13A4  1283               	bcf	3,5	;RP0=0, select bank0
  5055  13A5  1303               	bcf	3,6	;RP1=0, select bank0
  5056  13A6  00E4               	movwf	eval_poly@x+3
  5057  13A7  1683               	bsf	3,5	;RP0=1, select bank1
  5058  13A8  1303               	bcf	3,6	;RP1=0, select bank1
  5059  13A9  0826               	movf	(log@x+2)^(0+128),w
  5060  13AA  1283               	bcf	3,5	;RP0=0, select bank0
  5061  13AB  1303               	bcf	3,6	;RP1=0, select bank0
  5062  13AC  00E3               	movwf	eval_poly@x+2
  5063  13AD  1683               	bsf	3,5	;RP0=1, select bank1
  5064  13AE  1303               	bcf	3,6	;RP1=0, select bank1
  5065  13AF  0825               	movf	(log@x+1)^(0+128),w
  5066  13B0  1283               	bcf	3,5	;RP0=0, select bank0
  5067  13B1  1303               	bcf	3,6	;RP1=0, select bank0
  5068  13B2  00E2               	movwf	eval_poly@x+1
  5069  13B3  1683               	bsf	3,5	;RP0=1, select bank1
  5070  13B4  1303               	bcf	3,6	;RP1=0, select bank1
  5071  13B5  0824               	movf	log@x^(0+128),w
  5072  13B6  1283               	bcf	3,5	;RP0=0, select bank0
  5073  13B7  1303               	bcf	3,6	;RP1=0, select bank0
  5074  13B8  00E1               	movwf	eval_poly@x
  5075  13B9  3029               	movlw	(low ((log@coeff-__stringbase)| (0+32768)))& (0+255)
  5076  13BA  00ED               	movwf	??_log
  5077  13BB  086D               	movf	??_log,w
  5078  13BC  00E5               	movwf	eval_poly@d
  5079  13BD  3008               	movlw	8
  5080  13BE  00E6               	movwf	eval_poly@n
  5081  13BF  3000               	movlw	0
  5082  13C0  00E7               	movwf	eval_poly@n+1
  5083  13C1  160A  158A  2724  160A  118A  	fcall	_eval_poly
  5084  13C6  1283               	bcf	3,5	;RP0=0, select bank0
  5085  13C7  1303               	bcf	3,6	;RP1=0, select bank0
  5086  13C8  0864               	movf	?_eval_poly+3,w
  5087  13C9  1683               	bsf	3,5	;RP0=1, select bank1
  5088  13CA  1303               	bcf	3,6	;RP1=0, select bank1
  5089  13CB  00A7               	movwf	(log@x+3)^(0+128)
  5090  13CC  1283               	bcf	3,5	;RP0=0, select bank0
  5091  13CD  1303               	bcf	3,6	;RP1=0, select bank0
  5092  13CE  0863               	movf	?_eval_poly+2,w
  5093  13CF  1683               	bsf	3,5	;RP0=1, select bank1
  5094  13D0  1303               	bcf	3,6	;RP1=0, select bank1
  5095  13D1  00A6               	movwf	(log@x+2)^(0+128)
  5096  13D2  1283               	bcf	3,5	;RP0=0, select bank0
  5097  13D3  1303               	bcf	3,6	;RP1=0, select bank0
  5098  13D4  0862               	movf	?_eval_poly+1,w
  5099  13D5  1683               	bsf	3,5	;RP0=1, select bank1
  5100  13D6  1303               	bcf	3,6	;RP1=0, select bank1
  5101  13D7  00A5               	movwf	(log@x+1)^(0+128)
  5102  13D8  1283               	bcf	3,5	;RP0=0, select bank0
  5103  13D9  1303               	bcf	3,6	;RP1=0, select bank0
  5104  13DA  0861               	movf	?_eval_poly,w
  5105  13DB  1683               	bsf	3,5	;RP0=1, select bank1
  5106  13DC  1303               	bcf	3,6	;RP1=0, select bank1
  5107  13DD  00A4               	movwf	log@x^(0+128)
  5108  13DE                     l4861:	
  5109  13DE  0827               	movf	(log@x+3)^(0+128),w
  5110  13DF  1283               	bcf	3,5	;RP0=0, select bank0
  5111  13E0  1303               	bcf	3,6	;RP1=0, select bank0
  5112  13E1  00D0               	movwf	___fladd@b+3
  5113  13E2  1683               	bsf	3,5	;RP0=1, select bank1
  5114  13E3  1303               	bcf	3,6	;RP1=0, select bank1
  5115  13E4  0826               	movf	(log@x+2)^(0+128),w
  5116  13E5  1283               	bcf	3,5	;RP0=0, select bank0
  5117  13E6  1303               	bcf	3,6	;RP1=0, select bank0
  5118  13E7  00CF               	movwf	___fladd@b+2
  5119  13E8  1683               	bsf	3,5	;RP0=1, select bank1
  5120  13E9  1303               	bcf	3,6	;RP1=0, select bank1
  5121  13EA  0825               	movf	(log@x+1)^(0+128),w
  5122  13EB  1283               	bcf	3,5	;RP0=0, select bank0
  5123  13EC  1303               	bcf	3,6	;RP1=0, select bank0
  5124  13ED  00CE               	movwf	___fladd@b+1
  5125  13EE  1683               	bsf	3,5	;RP0=1, select bank1
  5126  13EF  1303               	bcf	3,6	;RP1=0, select bank1
  5127  13F0  0824               	movf	log@x^(0+128),w
  5128  13F1  1283               	bcf	3,5	;RP0=0, select bank0
  5129  13F2  1303               	bcf	3,6	;RP1=0, select bank0
  5130  13F3  00CD               	movwf	___fladd@b
  5131  13F4  303F               	movlw	63
  5132  13F5  00B6               	movwf	___flmul@b+3
  5133  13F6  3031               	movlw	49
  5134  13F7  00B5               	movwf	___flmul@b+2
  5135  13F8  3072               	movlw	114
  5136  13F9  00B4               	movwf	___flmul@b+1
  5137  13FA  3018               	movlw	24
  5138  13FB  00B3               	movwf	___flmul@b
  5139  13FC  086E               	movf	log@exponent,w
  5140  13FD  00F0               	movwf	___xxtofl@val
  5141  13FE  086F               	movf	log@exponent+1,w
  5142  13FF  00F1               	movwf	___xxtofl@val+1
  5143  1400  3000               	movlw	0
  5144  1401  1BF1               	btfsc	___xxtofl@val+1,7
  5145  1402  30FF               	movlw	255
  5146  1403  00F2               	movwf	___xxtofl@val+2
  5147  1404  00F3               	movwf	___xxtofl@val+3
  5148  1405  3001               	movlw	1
  5149  1406  160A  158A  266A  160A  118A  	fcall	___xxtofl
  5150  140B  0873               	movf	?___xxtofl+3,w
  5151  140C  1283               	bcf	3,5	;RP0=0, select bank0
  5152  140D  1303               	bcf	3,6	;RP1=0, select bank0
  5153  140E  00BA               	movwf	___flmul@a+3
  5154  140F  0872               	movf	?___xxtofl+2,w
  5155  1410  00B9               	movwf	___flmul@a+2
  5156  1411  0871               	movf	?___xxtofl+1,w
  5157  1412  00B8               	movwf	___flmul@a+1
  5158  1413  0870               	movf	?___xxtofl,w
  5159  1414  00B7               	movwf	___flmul@a
  5160  1415  120A  118A  20B2  160A  118A  	fcall	___flmul
  5161  141A  1283               	bcf	3,5	;RP0=0, select bank0
  5162  141B  1303               	bcf	3,6	;RP1=0, select bank0
  5163  141C  0836               	movf	?___flmul+3,w
  5164  141D  00D4               	movwf	___fladd@a+3
  5165  141E  0835               	movf	?___flmul+2,w
  5166  141F  00D3               	movwf	___fladd@a+2
  5167  1420  0834               	movf	?___flmul+1,w
  5168  1421  00D2               	movwf	___fladd@a+1
  5169  1422  0833               	movf	?___flmul,w
  5170  1423  00D1               	movwf	___fladd@a
  5171  1424  120A  158A  2578  160A  118A  	fcall	___fladd
  5172  1429  1283               	bcf	3,5	;RP0=0, select bank0
  5173  142A  1303               	bcf	3,6	;RP1=0, select bank0
  5174  142B  0850               	movf	?___fladd+3,w
  5175  142C  1683               	bsf	3,5	;RP0=1, select bank1
  5176  142D  1303               	bcf	3,6	;RP1=0, select bank1
  5177  142E  00A7               	movwf	(?_log+3)^(0+128)
  5178  142F  1283               	bcf	3,5	;RP0=0, select bank0
  5179  1430  1303               	bcf	3,6	;RP1=0, select bank0
  5180  1431  084F               	movf	?___fladd+2,w
  5181  1432  1683               	bsf	3,5	;RP0=1, select bank1
  5182  1433  1303               	bcf	3,6	;RP1=0, select bank1
  5183  1434  00A6               	movwf	(?_log+2)^(0+128)
  5184  1435  1283               	bcf	3,5	;RP0=0, select bank0
  5185  1436  1303               	bcf	3,6	;RP1=0, select bank0
  5186  1437  084E               	movf	?___fladd+1,w
  5187  1438  1683               	bsf	3,5	;RP0=1, select bank1
  5188  1439  1303               	bcf	3,6	;RP1=0, select bank1
  5189  143A  00A5               	movwf	(?_log+1)^(0+128)
  5190  143B  1283               	bcf	3,5	;RP0=0, select bank0
  5191  143C  1303               	bcf	3,6	;RP1=0, select bank0
  5192  143D  084D               	movf	?___fladd,w
  5193  143E  1683               	bsf	3,5	;RP0=1, select bank1
  5194  143F  1303               	bcf	3,6	;RP1=0, select bank1
  5195  1440  00A4               	movwf	?_log^(0+128)
  5196  1441                     l889:	
  5197  1441  0008               	return
  5198  1442                     __end_of_log:	
  5199                           
  5200                           	psect	text10
  5201  08A5                     __ptext10:	
  5202 ;; *************** function _exp *****************
  5203 ;; Defined at:
  5204 ;;		line 12 in file "C:\Program Files (x86)\Microchip\xc8\v2.10\pic\sources\c90\common\exp.c"
  5205 ;; Parameters:    Size  Location     Type
  5206 ;;  x               4   10[BANK1 ] int 
  5207 ;; Auto vars:     Size  Location     Type
  5208 ;;  exponent        2   19[BANK1 ] int 
  5209 ;;  sign            1   21[BANK1 ] unsigned char 
  5210 ;; Return value:  Size  Location     Type
  5211 ;;                  4   10[BANK1 ] unsigned char 
  5212 ;; Registers used:
  5213 ;;		wreg, fsr0l, fsr0h, status,2, status,0, btemp+1, pclath, cstack
  5214 ;; Tracked objects:
  5215 ;;		On entry : 0/0
  5216 ;;		On exit  : 0/0
  5217 ;;		Unchanged: 0/0
  5218 ;; Data sizes:     COMMON   BANK0   BANK1   BANK3   BANK2
  5219 ;;      Params:         0       0       4       0       0
  5220 ;;      Locals:         0       0       7       0       0
  5221 ;;      Temps:          0       0       1       0       0
  5222 ;;      Totals:         0       0      12       0       0
  5223 ;;Total ram usage:       12 bytes
  5224 ;; Hardware stack levels used:    1
  5225 ;; Hardware stack levels required when called:    3
  5226 ;; This function calls:
  5227 ;;		___fldiv
  5228 ;;		___fleq
  5229 ;;		___flge
  5230 ;;		___flmul
  5231 ;;		___flneg
  5232 ;;		___flsub
  5233 ;;		___fltol
  5234 ;;		___xxtofl
  5235 ;;		_eval_poly
  5236 ;;		_floor
  5237 ;;		_ldexp
  5238 ;; This function is called by:
  5239 ;;		_pow
  5240 ;; This function uses a non-reentrant model
  5241 ;;
  5242                           
  5243                           
  5244                           ;psect for function _exp
  5245  08A5                     _exp:	
  5246  08A5                     l4865:	
  5247                           ;incstack = 0
  5248                           ; Regs used in _exp: [wreg-fsr0h+status,2+status,0+btemp+1+pclath+cstack]
  5249                           
  5250  08A5  1683               	bsf	3,5	;RP0=1, select bank1
  5251  08A6  1303               	bcf	3,6	;RP1=0, select bank1
  5252  08A7  082D               	movf	(exp@x+3)^(0+128),w
  5253  08A8  1283               	bcf	3,5	;RP0=0, select bank0
  5254  08A9  1303               	bcf	3,6	;RP1=0, select bank0
  5255  08AA  00A3               	movwf	___fleq@ff1+3
  5256  08AB  1683               	bsf	3,5	;RP0=1, select bank1
  5257  08AC  1303               	bcf	3,6	;RP1=0, select bank1
  5258  08AD  082C               	movf	(exp@x+2)^(0+128),w
  5259  08AE  1283               	bcf	3,5	;RP0=0, select bank0
  5260  08AF  1303               	bcf	3,6	;RP1=0, select bank0
  5261  08B0  00A2               	movwf	___fleq@ff1+2
  5262  08B1  1683               	bsf	3,5	;RP0=1, select bank1
  5263  08B2  1303               	bcf	3,6	;RP1=0, select bank1
  5264  08B3  082B               	movf	(exp@x+1)^(0+128),w
  5265  08B4  1283               	bcf	3,5	;RP0=0, select bank0
  5266  08B5  1303               	bcf	3,6	;RP1=0, select bank0
  5267  08B6  00A1               	movwf	___fleq@ff1+1
  5268  08B7  1683               	bsf	3,5	;RP0=1, select bank1
  5269  08B8  1303               	bcf	3,6	;RP1=0, select bank1
  5270  08B9  082A               	movf	exp@x^(0+128),w
  5271  08BA  1283               	bcf	3,5	;RP0=0, select bank0
  5272  08BB  1303               	bcf	3,6	;RP1=0, select bank0
  5273  08BC  00A0               	movwf	___fleq@ff1
  5274  08BD  3000               	movlw	0
  5275  08BE  00A7               	movwf	___fleq@ff2+3
  5276  08BF  3000               	movlw	0
  5277  08C0  00A6               	movwf	___fleq@ff2+2
  5278  08C1  3000               	movlw	0
  5279  08C2  00A5               	movwf	___fleq@ff2+1
  5280  08C3  3000               	movlw	0
  5281  08C4  00A4               	movwf	___fleq@ff2
  5282  08C5  160A  158A  2309  120A  158A  	fcall	___fleq
  5283  08CA  1C03               	btfss	3,0
  5284  08CB  28CD               	goto	u7341
  5285  08CC  28CE               	goto	u7340
  5286  08CD                     u7341:	
  5287  08CD  28D9               	goto	l4871
  5288  08CE                     u7340:	
  5289  08CE                     l4867:	
  5290  08CE  303F               	movlw	63
  5291  08CF  1683               	bsf	3,5	;RP0=1, select bank1
  5292  08D0  1303               	bcf	3,6	;RP1=0, select bank1
  5293  08D1  00AD               	movwf	(?_exp+3)^(0+128)
  5294  08D2  3080               	movlw	128
  5295  08D3  00AC               	movwf	(?_exp+2)^(0+128)
  5296  08D4  3000               	movlw	0
  5297  08D5  00AB               	movwf	(?_exp+1)^(0+128)
  5298  08D6  3000               	movlw	0
  5299  08D7  00AA               	movwf	?_exp^(0+128)
  5300  08D8  2B01               	goto	l847
  5301  08D9                     l4871:	
  5302  08D9  3044               	movlw	68
  5303  08DA  00F3               	movwf	___flge@ff1+3
  5304  08DB  3031               	movlw	49
  5305  08DC  00F2               	movwf	___flge@ff1+2
  5306  08DD  3072               	movlw	114
  5307  08DE  00F1               	movwf	___flge@ff1+1
  5308  08DF  3018               	movlw	24
  5309  08E0  00F0               	movwf	___flge@ff1
  5310  08E1  1683               	bsf	3,5	;RP0=1, select bank1
  5311  08E2  1303               	bcf	3,6	;RP1=0, select bank1
  5312  08E3  082D               	movf	(exp@x+3)^(0+128),w
  5313  08E4  00F7               	movwf	___flge@ff2+3
  5314  08E5  082C               	movf	(exp@x+2)^(0+128),w
  5315  08E6  00F6               	movwf	___flge@ff2+2
  5316  08E7  082B               	movf	(exp@x+1)^(0+128),w
  5317  08E8  00F5               	movwf	___flge@ff2+1
  5318  08E9  082A               	movf	exp@x^(0+128),w
  5319  08EA  00F4               	movwf	___flge@ff2
  5320  08EB  120A  118A  2010  120A  158A  	fcall	___flge
  5321  08F0  1803               	btfsc	3,0
  5322  08F1  28F3               	goto	u7351
  5323  08F2  28F4               	goto	u7350
  5324  08F3                     u7351:	
  5325  08F3  2905               	goto	l4877
  5326  08F4                     u7350:	
  5327  08F4                     l4873:	
  5328  08F4  3022               	movlw	34
  5329  08F5  1683               	bsf	3,5	;RP0=1, select bank3
  5330  08F6  1703               	bsf	3,6	;RP1=1, select bank3
  5331  08F7  0090               	movwf	_errno^(0+384)
  5332  08F8  3000               	movlw	0
  5333  08F9  0091               	movwf	(_errno^(0+384)+1)
  5334  08FA  307F               	movlw	127
  5335  08FB  1683               	bsf	3,5	;RP0=1, select bank1
  5336  08FC  1303               	bcf	3,6	;RP1=0, select bank1
  5337  08FD  00AD               	movwf	(?_exp+3)^(0+128)
  5338  08FE  307F               	movlw	127
  5339  08FF  00AC               	movwf	(?_exp+2)^(0+128)
  5340  0900  30FF               	movlw	255
  5341  0901  00AB               	movwf	(?_exp+1)^(0+128)
  5342  0902  30FF               	movlw	255
  5343  0903  00AA               	movwf	?_exp^(0+128)
  5344  0904  2B01               	goto	l847
  5345  0905                     l4877:	
  5346  0905  1683               	bsf	3,5	;RP0=1, select bank1
  5347  0906  1303               	bcf	3,6	;RP1=0, select bank1
  5348  0907  082D               	movf	(exp@x+3)^(0+128),w
  5349  0908  00F3               	movwf	___flge@ff1+3
  5350  0909  082C               	movf	(exp@x+2)^(0+128),w
  5351  090A  00F2               	movwf	___flge@ff1+2
  5352  090B  082B               	movf	(exp@x+1)^(0+128),w
  5353  090C  00F1               	movwf	___flge@ff1+1
  5354  090D  082A               	movf	exp@x^(0+128),w
  5355  090E  00F0               	movwf	___flge@ff1
  5356  090F  30C4               	movlw	196
  5357  0910  00F7               	movwf	___flge@ff2+3
  5358  0911  303A               	movlw	58
  5359  0912  00F6               	movwf	___flge@ff2+2
  5360  0913  3048               	movlw	72
  5361  0914  00F5               	movwf	___flge@ff2+1
  5362  0915  3087               	movlw	135
  5363  0916  00F4               	movwf	___flge@ff2
  5364  0917  120A  118A  2010  120A  158A  	fcall	___flge
  5365  091C  1803               	btfsc	3,0
  5366  091D  291F               	goto	u7361
  5367  091E  2920               	goto	u7360
  5368  091F                     u7361:	
  5369  091F  2931               	goto	l4883
  5370  0920                     u7360:	
  5371  0920                     l4879:	
  5372  0920  3022               	movlw	34
  5373  0921  1683               	bsf	3,5	;RP0=1, select bank3
  5374  0922  1703               	bsf	3,6	;RP1=1, select bank3
  5375  0923  0090               	movwf	_errno^(0+384)
  5376  0924  3000               	movlw	0
  5377  0925  0091               	movwf	(_errno^(0+384)+1)
  5378  0926  3000               	movlw	0
  5379  0927  1683               	bsf	3,5	;RP0=1, select bank1
  5380  0928  1303               	bcf	3,6	;RP1=0, select bank1
  5381  0929  00AD               	movwf	(?_exp+3)^(0+128)
  5382  092A  3000               	movlw	0
  5383  092B  00AC               	movwf	(?_exp+2)^(0+128)
  5384  092C  3000               	movlw	0
  5385  092D  00AB               	movwf	(?_exp+1)^(0+128)
  5386  092E  3000               	movlw	0
  5387  092F  00AA               	movwf	?_exp^(0+128)
  5388  0930  2B01               	goto	l847
  5389  0931                     l4883:	
  5390  0931  1683               	bsf	3,5	;RP0=1, select bank1
  5391  0932  1303               	bcf	3,6	;RP1=0, select bank1
  5392  0933  082D               	movf	(exp@x+3)^(0+128),w
  5393  0934  00F3               	movwf	___flge@ff1+3
  5394  0935  082C               	movf	(exp@x+2)^(0+128),w
  5395  0936  00F2               	movwf	___flge@ff1+2
  5396  0937  082B               	movf	(exp@x+1)^(0+128),w
  5397  0938  00F1               	movwf	___flge@ff1+1
  5398  0939  082A               	movf	exp@x^(0+128),w
  5399  093A  00F0               	movwf	___flge@ff1
  5400  093B  3000               	movlw	0
  5401  093C  00F7               	movwf	___flge@ff2+3
  5402  093D  3000               	movlw	0
  5403  093E  00F6               	movwf	___flge@ff2+2
  5404  093F  3000               	movlw	0
  5405  0940  00F5               	movwf	___flge@ff2+1
  5406  0941  3000               	movlw	0
  5407  0942  00F4               	movwf	___flge@ff2
  5408  0943  120A  118A  2010  120A  158A  	fcall	___flge
  5409  0948  1C03               	btfss	3,0
  5410  0949  294B               	goto	u7371
  5411  094A  294D               	goto	u7370
  5412  094B                     u7371:	
  5413  094B  3001               	movlw	1
  5414  094C  294E               	goto	u7380
  5415  094D                     u7370:	
  5416  094D  3000               	movlw	0
  5417  094E                     u7380:	
  5418  094E  1683               	bsf	3,5	;RP0=1, select bank1
  5419  094F  1303               	bcf	3,6	;RP1=0, select bank1
  5420  0950  00AE               	movwf	??_exp^(0+128)
  5421  0951  082E               	movf	??_exp^(0+128),w
  5422  0952  00B5               	movwf	exp@sign^(0+128)
  5423  0953                     l4885:	
  5424  0953  0835               	movf	exp@sign^(0+128),w
  5425  0954  1903               	btfsc	3,2
  5426  0955  2957               	goto	u7391
  5427  0956  2958               	goto	u7390
  5428  0957                     u7391:	
  5429  0957  296F               	goto	l4889
  5430  0958                     u7390:	
  5431  0958                     l4887:	
  5432  0958  082D               	movf	(exp@x+3)^(0+128),w
  5433  0959  00F3               	movwf	___flneg@f1+3
  5434  095A  082C               	movf	(exp@x+2)^(0+128),w
  5435  095B  00F2               	movwf	___flneg@f1+2
  5436  095C  082B               	movf	(exp@x+1)^(0+128),w
  5437  095D  00F1               	movwf	___flneg@f1+1
  5438  095E  082A               	movf	exp@x^(0+128),w
  5439  095F  00F0               	movwf	___flneg@f1
  5440  0960  160A  158A  2136  120A  158A  	fcall	___flneg
  5441  0965  0873               	movf	?___flneg+3,w
  5442  0966  1683               	bsf	3,5	;RP0=1, select bank1
  5443  0967  1303               	bcf	3,6	;RP1=0, select bank1
  5444  0968  00AD               	movwf	(exp@x+3)^(0+128)
  5445  0969  0872               	movf	?___flneg+2,w
  5446  096A  00AC               	movwf	(exp@x+2)^(0+128)
  5447  096B  0871               	movf	?___flneg+1,w
  5448  096C  00AB               	movwf	(exp@x+1)^(0+128)
  5449  096D  0870               	movf	?___flneg,w
  5450  096E  00AA               	movwf	exp@x^(0+128)
  5451  096F                     l4889:	
  5452  096F  303F               	movlw	63
  5453  0970  1283               	bcf	3,5	;RP0=0, select bank0
  5454  0971  1303               	bcf	3,6	;RP1=0, select bank0
  5455  0972  00B6               	movwf	___flmul@b+3
  5456  0973  30B8               	movlw	184
  5457  0974  00B5               	movwf	___flmul@b+2
  5458  0975  30AA               	movlw	170
  5459  0976  00B4               	movwf	___flmul@b+1
  5460  0977  303B               	movlw	59
  5461  0978  00B3               	movwf	___flmul@b
  5462  0979  1683               	bsf	3,5	;RP0=1, select bank1
  5463  097A  1303               	bcf	3,6	;RP1=0, select bank1
  5464  097B  082D               	movf	(exp@x+3)^(0+128),w
  5465  097C  1283               	bcf	3,5	;RP0=0, select bank0
  5466  097D  1303               	bcf	3,6	;RP1=0, select bank0
  5467  097E  00BA               	movwf	___flmul@a+3
  5468  097F  1683               	bsf	3,5	;RP0=1, select bank1
  5469  0980  1303               	bcf	3,6	;RP1=0, select bank1
  5470  0981  082C               	movf	(exp@x+2)^(0+128),w
  5471  0982  1283               	bcf	3,5	;RP0=0, select bank0
  5472  0983  1303               	bcf	3,6	;RP1=0, select bank0
  5473  0984  00B9               	movwf	___flmul@a+2
  5474  0985  1683               	bsf	3,5	;RP0=1, select bank1
  5475  0986  1303               	bcf	3,6	;RP1=0, select bank1
  5476  0987  082B               	movf	(exp@x+1)^(0+128),w
  5477  0988  1283               	bcf	3,5	;RP0=0, select bank0
  5478  0989  1303               	bcf	3,6	;RP1=0, select bank0
  5479  098A  00B8               	movwf	___flmul@a+1
  5480  098B  1683               	bsf	3,5	;RP0=1, select bank1
  5481  098C  1303               	bcf	3,6	;RP1=0, select bank1
  5482  098D  082A               	movf	exp@x^(0+128),w
  5483  098E  1283               	bcf	3,5	;RP0=0, select bank0
  5484  098F  1303               	bcf	3,6	;RP1=0, select bank0
  5485  0990  00B7               	movwf	___flmul@a
  5486  0991  120A  118A  20B2  120A  158A  	fcall	___flmul
  5487  0996  1283               	bcf	3,5	;RP0=0, select bank0
  5488  0997  1303               	bcf	3,6	;RP1=0, select bank0
  5489  0998  0836               	movf	?___flmul+3,w
  5490  0999  1683               	bsf	3,5	;RP0=1, select bank1
  5491  099A  1303               	bcf	3,6	;RP1=0, select bank1
  5492  099B  00AD               	movwf	(exp@x+3)^(0+128)
  5493  099C  1283               	bcf	3,5	;RP0=0, select bank0
  5494  099D  1303               	bcf	3,6	;RP1=0, select bank0
  5495  099E  0835               	movf	?___flmul+2,w
  5496  099F  1683               	bsf	3,5	;RP0=1, select bank1
  5497  09A0  1303               	bcf	3,6	;RP1=0, select bank1
  5498  09A1  00AC               	movwf	(exp@x+2)^(0+128)
  5499  09A2  1283               	bcf	3,5	;RP0=0, select bank0
  5500  09A3  1303               	bcf	3,6	;RP1=0, select bank0
  5501  09A4  0834               	movf	?___flmul+1,w
  5502  09A5  1683               	bsf	3,5	;RP0=1, select bank1
  5503  09A6  1303               	bcf	3,6	;RP1=0, select bank1
  5504  09A7  00AB               	movwf	(exp@x+1)^(0+128)
  5505  09A8  1283               	bcf	3,5	;RP0=0, select bank0
  5506  09A9  1303               	bcf	3,6	;RP1=0, select bank0
  5507  09AA  0833               	movf	?___flmul,w
  5508  09AB  1683               	bsf	3,5	;RP0=1, select bank1
  5509  09AC  1303               	bcf	3,6	;RP1=0, select bank1
  5510  09AD  00AA               	movwf	exp@x^(0+128)
  5511  09AE                     l4891:	
  5512  09AE  082D               	movf	(exp@x+3)^(0+128),w
  5513  09AF  1283               	bcf	3,5	;RP0=0, select bank0
  5514  09B0  1303               	bcf	3,6	;RP1=0, select bank0
  5515  09B1  00E4               	movwf	floor@x+3
  5516  09B2  1683               	bsf	3,5	;RP0=1, select bank1
  5517  09B3  1303               	bcf	3,6	;RP1=0, select bank1
  5518  09B4  082C               	movf	(exp@x+2)^(0+128),w
  5519  09B5  1283               	bcf	3,5	;RP0=0, select bank0
  5520  09B6  1303               	bcf	3,6	;RP1=0, select bank0
  5521  09B7  00E3               	movwf	floor@x+2
  5522  09B8  1683               	bsf	3,5	;RP0=1, select bank1
  5523  09B9  1303               	bcf	3,6	;RP1=0, select bank1
  5524  09BA  082B               	movf	(exp@x+1)^(0+128),w
  5525  09BB  1283               	bcf	3,5	;RP0=0, select bank0
  5526  09BC  1303               	bcf	3,6	;RP1=0, select bank0
  5527  09BD  00E2               	movwf	floor@x+1
  5528  09BE  1683               	bsf	3,5	;RP0=1, select bank1
  5529  09BF  1303               	bcf	3,6	;RP1=0, select bank1
  5530  09C0  082A               	movf	exp@x^(0+128),w
  5531  09C1  1283               	bcf	3,5	;RP0=0, select bank0
  5532  09C2  1303               	bcf	3,6	;RP1=0, select bank0
  5533  09C3  00E1               	movwf	floor@x
  5534  09C4  160A  118A  2007  120A  158A  	fcall	_floor
  5535  09C9  1283               	bcf	3,5	;RP0=0, select bank0
  5536  09CA  1303               	bcf	3,6	;RP1=0, select bank0
  5537  09CB  0864               	movf	?_floor+3,w
  5538  09CC  1683               	bsf	3,5	;RP0=1, select bank1
  5539  09CD  1303               	bcf	3,6	;RP1=0, select bank1
  5540  09CE  00B2               	movwf	(_exp$903+3)^(0+128)
  5541  09CF  1283               	bcf	3,5	;RP0=0, select bank0
  5542  09D0  1303               	bcf	3,6	;RP1=0, select bank0
  5543  09D1  0863               	movf	?_floor+2,w
  5544  09D2  1683               	bsf	3,5	;RP0=1, select bank1
  5545  09D3  1303               	bcf	3,6	;RP1=0, select bank1
  5546  09D4  00B1               	movwf	(_exp$903+2)^(0+128)
  5547  09D5  1283               	bcf	3,5	;RP0=0, select bank0
  5548  09D6  1303               	bcf	3,6	;RP1=0, select bank0
  5549  09D7  0862               	movf	?_floor+1,w
  5550  09D8  1683               	bsf	3,5	;RP0=1, select bank1
  5551  09D9  1303               	bcf	3,6	;RP1=0, select bank1
  5552  09DA  00B0               	movwf	(_exp$903+1)^(0+128)
  5553  09DB  1283               	bcf	3,5	;RP0=0, select bank0
  5554  09DC  1303               	bcf	3,6	;RP1=0, select bank0
  5555  09DD  0861               	movf	?_floor,w
  5556  09DE  1683               	bsf	3,5	;RP0=1, select bank1
  5557  09DF  1303               	bcf	3,6	;RP1=0, select bank1
  5558  09E0  00AF               	movwf	_exp$903^(0+128)
  5559  09E1                     l4893:	
  5560  09E1  0832               	movf	(_exp$903+3)^(0+128),w
  5561  09E2  1283               	bcf	3,5	;RP0=0, select bank0
  5562  09E3  1303               	bcf	3,6	;RP1=0, select bank0
  5563  09E4  00A3               	movwf	___fltol@f1+3
  5564  09E5  1683               	bsf	3,5	;RP0=1, select bank1
  5565  09E6  1303               	bcf	3,6	;RP1=0, select bank1
  5566  09E7  0831               	movf	(_exp$903+2)^(0+128),w
  5567  09E8  1283               	bcf	3,5	;RP0=0, select bank0
  5568  09E9  1303               	bcf	3,6	;RP1=0, select bank0
  5569  09EA  00A2               	movwf	___fltol@f1+2
  5570  09EB  1683               	bsf	3,5	;RP0=1, select bank1
  5571  09EC  1303               	bcf	3,6	;RP1=0, select bank1
  5572  09ED  0830               	movf	(_exp$903+1)^(0+128),w
  5573  09EE  1283               	bcf	3,5	;RP0=0, select bank0
  5574  09EF  1303               	bcf	3,6	;RP1=0, select bank0
  5575  09F0  00A1               	movwf	___fltol@f1+1
  5576  09F1  1683               	bsf	3,5	;RP0=1, select bank1
  5577  09F2  1303               	bcf	3,6	;RP1=0, select bank1
  5578  09F3  082F               	movf	_exp$903^(0+128),w
  5579  09F4  1283               	bcf	3,5	;RP0=0, select bank0
  5580  09F5  1303               	bcf	3,6	;RP1=0, select bank0
  5581  09F6  00A0               	movwf	___fltol@f1
  5582  09F7  160A  158A  24D4  120A  158A  	fcall	___fltol
  5583  09FC  1283               	bcf	3,5	;RP0=0, select bank0
  5584  09FD  1303               	bcf	3,6	;RP1=0, select bank0
  5585  09FE  0821               	movf	?___fltol+1,w
  5586  09FF  1683               	bsf	3,5	;RP0=1, select bank1
  5587  0A00  1303               	bcf	3,6	;RP1=0, select bank1
  5588  0A01  00B4               	movwf	(exp@exponent+1)^(0+128)
  5589  0A02  1283               	bcf	3,5	;RP0=0, select bank0
  5590  0A03  1303               	bcf	3,6	;RP1=0, select bank0
  5591  0A04  0820               	movf	?___fltol,w
  5592  0A05  1683               	bsf	3,5	;RP0=1, select bank1
  5593  0A06  1303               	bcf	3,6	;RP1=0, select bank1
  5594  0A07  00B3               	movwf	exp@exponent^(0+128)
  5595  0A08                     l4895:	
  5596  0A08  0833               	movf	exp@exponent^(0+128),w
  5597  0A09  00F0               	movwf	___xxtofl@val
  5598  0A0A  0834               	movf	(exp@exponent+1)^(0+128),w
  5599  0A0B  00F1               	movwf	___xxtofl@val+1
  5600  0A0C  3000               	movlw	0
  5601  0A0D  1BF1               	btfsc	___xxtofl@val+1,7
  5602  0A0E  30FF               	movlw	255
  5603  0A0F  00F2               	movwf	___xxtofl@val+2
  5604  0A10  00F3               	movwf	___xxtofl@val+3
  5605  0A11  3001               	movlw	1
  5606  0A12  160A  158A  266A  120A  158A  	fcall	___xxtofl
  5607  0A17  0873               	movf	?___xxtofl+3,w
  5608  0A18  1283               	bcf	3,5	;RP0=0, select bank0
  5609  0A19  1303               	bcf	3,6	;RP1=0, select bank0
  5610  0A1A  00E4               	movwf	___flsub@a+3
  5611  0A1B  0872               	movf	?___xxtofl+2,w
  5612  0A1C  00E3               	movwf	___flsub@a+2
  5613  0A1D  0871               	movf	?___xxtofl+1,w
  5614  0A1E  00E2               	movwf	___flsub@a+1
  5615  0A1F  0870               	movf	?___xxtofl,w
  5616  0A20  00E1               	movwf	___flsub@a
  5617  0A21  1683               	bsf	3,5	;RP0=1, select bank1
  5618  0A22  1303               	bcf	3,6	;RP1=0, select bank1
  5619  0A23  082D               	movf	(exp@x+3)^(0+128),w
  5620  0A24  1283               	bcf	3,5	;RP0=0, select bank0
  5621  0A25  1303               	bcf	3,6	;RP1=0, select bank0
  5622  0A26  00E8               	movwf	___flsub@b+3
  5623  0A27  1683               	bsf	3,5	;RP0=1, select bank1
  5624  0A28  1303               	bcf	3,6	;RP1=0, select bank1
  5625  0A29  082C               	movf	(exp@x+2)^(0+128),w
  5626  0A2A  1283               	bcf	3,5	;RP0=0, select bank0
  5627  0A2B  1303               	bcf	3,6	;RP1=0, select bank0
  5628  0A2C  00E7               	movwf	___flsub@b+2
  5629  0A2D  1683               	bsf	3,5	;RP0=1, select bank1
  5630  0A2E  1303               	bcf	3,6	;RP1=0, select bank1
  5631  0A2F  082B               	movf	(exp@x+1)^(0+128),w
  5632  0A30  1283               	bcf	3,5	;RP0=0, select bank0
  5633  0A31  1303               	bcf	3,6	;RP1=0, select bank0
  5634  0A32  00E6               	movwf	___flsub@b+1
  5635  0A33  1683               	bsf	3,5	;RP0=1, select bank1
  5636  0A34  1303               	bcf	3,6	;RP1=0, select bank1
  5637  0A35  082A               	movf	exp@x^(0+128),w
  5638  0A36  1283               	bcf	3,5	;RP0=0, select bank0
  5639  0A37  1303               	bcf	3,6	;RP1=0, select bank0
  5640  0A38  00E5               	movwf	___flsub@b
  5641  0A39  160A  158A  21C5  120A  158A  	fcall	___flsub
  5642  0A3E  1283               	bcf	3,5	;RP0=0, select bank0
  5643  0A3F  1303               	bcf	3,6	;RP1=0, select bank0
  5644  0A40  0864               	movf	?___flsub+3,w
  5645  0A41  1683               	bsf	3,5	;RP0=1, select bank1
  5646  0A42  1303               	bcf	3,6	;RP1=0, select bank1
  5647  0A43  00AD               	movwf	(exp@x+3)^(0+128)
  5648  0A44  1283               	bcf	3,5	;RP0=0, select bank0
  5649  0A45  1303               	bcf	3,6	;RP1=0, select bank0
  5650  0A46  0863               	movf	?___flsub+2,w
  5651  0A47  1683               	bsf	3,5	;RP0=1, select bank1
  5652  0A48  1303               	bcf	3,6	;RP1=0, select bank1
  5653  0A49  00AC               	movwf	(exp@x+2)^(0+128)
  5654  0A4A  1283               	bcf	3,5	;RP0=0, select bank0
  5655  0A4B  1303               	bcf	3,6	;RP1=0, select bank0
  5656  0A4C  0862               	movf	?___flsub+1,w
  5657  0A4D  1683               	bsf	3,5	;RP0=1, select bank1
  5658  0A4E  1303               	bcf	3,6	;RP1=0, select bank1
  5659  0A4F  00AB               	movwf	(exp@x+1)^(0+128)
  5660  0A50  1283               	bcf	3,5	;RP0=0, select bank0
  5661  0A51  1303               	bcf	3,6	;RP1=0, select bank0
  5662  0A52  0861               	movf	?___flsub,w
  5663  0A53  1683               	bsf	3,5	;RP0=1, select bank1
  5664  0A54  1303               	bcf	3,6	;RP1=0, select bank1
  5665  0A55  00AA               	movwf	exp@x^(0+128)
  5666  0A56                     l4897:	
  5667  0A56  082D               	movf	(exp@x+3)^(0+128),w
  5668  0A57  1283               	bcf	3,5	;RP0=0, select bank0
  5669  0A58  1303               	bcf	3,6	;RP1=0, select bank0
  5670  0A59  00E4               	movwf	eval_poly@x+3
  5671  0A5A  1683               	bsf	3,5	;RP0=1, select bank1
  5672  0A5B  1303               	bcf	3,6	;RP1=0, select bank1
  5673  0A5C  082C               	movf	(exp@x+2)^(0+128),w
  5674  0A5D  1283               	bcf	3,5	;RP0=0, select bank0
  5675  0A5E  1303               	bcf	3,6	;RP1=0, select bank0
  5676  0A5F  00E3               	movwf	eval_poly@x+2
  5677  0A60  1683               	bsf	3,5	;RP0=1, select bank1
  5678  0A61  1303               	bcf	3,6	;RP1=0, select bank1
  5679  0A62  082B               	movf	(exp@x+1)^(0+128),w
  5680  0A63  1283               	bcf	3,5	;RP0=0, select bank0
  5681  0A64  1303               	bcf	3,6	;RP1=0, select bank0
  5682  0A65  00E2               	movwf	eval_poly@x+1
  5683  0A66  1683               	bsf	3,5	;RP0=1, select bank1
  5684  0A67  1303               	bcf	3,6	;RP1=0, select bank1
  5685  0A68  082A               	movf	exp@x^(0+128),w
  5686  0A69  1283               	bcf	3,5	;RP0=0, select bank0
  5687  0A6A  1303               	bcf	3,6	;RP1=0, select bank0
  5688  0A6B  00E1               	movwf	eval_poly@x
  5689  0A6C  3001               	movlw	(low ((exp@coeff-__stringbase)| (0+32768)))& (0+255)
  5690  0A6D  1683               	bsf	3,5	;RP0=1, select bank1
  5691  0A6E  1303               	bcf	3,6	;RP1=0, select bank1
  5692  0A6F  00AE               	movwf	??_exp^(0+128)
  5693  0A70  082E               	movf	??_exp^(0+128),w
  5694  0A71  1283               	bcf	3,5	;RP0=0, select bank0
  5695  0A72  1303               	bcf	3,6	;RP1=0, select bank0
  5696  0A73  00E5               	movwf	eval_poly@d
  5697  0A74  3009               	movlw	9
  5698  0A75  00E6               	movwf	eval_poly@n
  5699  0A76  3000               	movlw	0
  5700  0A77  00E7               	movwf	eval_poly@n+1
  5701  0A78  160A  158A  2724  120A  158A  	fcall	_eval_poly
  5702  0A7D  1283               	bcf	3,5	;RP0=0, select bank0
  5703  0A7E  1303               	bcf	3,6	;RP1=0, select bank0
  5704  0A7F  0864               	movf	?_eval_poly+3,w
  5705  0A80  1683               	bsf	3,5	;RP0=1, select bank1
  5706  0A81  1303               	bcf	3,6	;RP1=0, select bank1
  5707  0A82  00A7               	movwf	(ldexp@value+3)^(0+128)
  5708  0A83  1283               	bcf	3,5	;RP0=0, select bank0
  5709  0A84  1303               	bcf	3,6	;RP1=0, select bank0
  5710  0A85  0863               	movf	?_eval_poly+2,w
  5711  0A86  1683               	bsf	3,5	;RP0=1, select bank1
  5712  0A87  1303               	bcf	3,6	;RP1=0, select bank1
  5713  0A88  00A6               	movwf	(ldexp@value+2)^(0+128)
  5714  0A89  1283               	bcf	3,5	;RP0=0, select bank0
  5715  0A8A  1303               	bcf	3,6	;RP1=0, select bank0
  5716  0A8B  0862               	movf	?_eval_poly+1,w
  5717  0A8C  1683               	bsf	3,5	;RP0=1, select bank1
  5718  0A8D  1303               	bcf	3,6	;RP1=0, select bank1
  5719  0A8E  00A5               	movwf	(ldexp@value+1)^(0+128)
  5720  0A8F  1283               	bcf	3,5	;RP0=0, select bank0
  5721  0A90  1303               	bcf	3,6	;RP1=0, select bank0
  5722  0A91  0861               	movf	?_eval_poly,w
  5723  0A92  1683               	bsf	3,5	;RP0=1, select bank1
  5724  0A93  1303               	bcf	3,6	;RP1=0, select bank1
  5725  0A94  00A4               	movwf	ldexp@value^(0+128)
  5726  0A95  0834               	movf	(exp@exponent+1)^(0+128),w
  5727  0A96  00A9               	movwf	(ldexp@newexp+1)^(0+128)
  5728  0A97  0833               	movf	exp@exponent^(0+128),w
  5729  0A98  00A8               	movwf	ldexp@newexp^(0+128)
  5730  0A99  160A  118A  20C6  120A  158A  	fcall	_ldexp
  5731  0A9E  1683               	bsf	3,5	;RP0=1, select bank1
  5732  0A9F  1303               	bcf	3,6	;RP1=0, select bank1
  5733  0AA0  0827               	movf	(?_ldexp+3)^(0+128),w
  5734  0AA1  00AD               	movwf	(exp@x+3)^(0+128)
  5735  0AA2  0826               	movf	(?_ldexp+2)^(0+128),w
  5736  0AA3  00AC               	movwf	(exp@x+2)^(0+128)
  5737  0AA4  0825               	movf	(?_ldexp+1)^(0+128),w
  5738  0AA5  00AB               	movwf	(exp@x+1)^(0+128)
  5739  0AA6  0824               	movf	?_ldexp^(0+128),w
  5740  0AA7  00AA               	movwf	exp@x^(0+128)
  5741  0AA8                     l4899:	
  5742  0AA8  0835               	movf	exp@sign^(0+128),w
  5743  0AA9  1903               	btfsc	3,2
  5744  0AAA  2AAC               	goto	u7401
  5745  0AAB  2AAD               	goto	u7400
  5746  0AAC                     u7401:	
  5747  0AAC  2B01               	goto	l851
  5748  0AAD                     u7400:	
  5749  0AAD                     l4901:	
  5750  0AAD  082D               	movf	(exp@x+3)^(0+128),w
  5751  0AAE  1283               	bcf	3,5	;RP0=0, select bank0
  5752  0AAF  1303               	bcf	3,6	;RP1=0, select bank0
  5753  0AB0  00A3               	movwf	___fleq@ff1+3
  5754  0AB1  1683               	bsf	3,5	;RP0=1, select bank1
  5755  0AB2  1303               	bcf	3,6	;RP1=0, select bank1
  5756  0AB3  082C               	movf	(exp@x+2)^(0+128),w
  5757  0AB4  1283               	bcf	3,5	;RP0=0, select bank0
  5758  0AB5  1303               	bcf	3,6	;RP1=0, select bank0
  5759  0AB6  00A2               	movwf	___fleq@ff1+2
  5760  0AB7  1683               	bsf	3,5	;RP0=1, select bank1
  5761  0AB8  1303               	bcf	3,6	;RP1=0, select bank1
  5762  0AB9  082B               	movf	(exp@x+1)^(0+128),w
  5763  0ABA  1283               	bcf	3,5	;RP0=0, select bank0
  5764  0ABB  1303               	bcf	3,6	;RP1=0, select bank0
  5765  0ABC  00A1               	movwf	___fleq@ff1+1
  5766  0ABD  1683               	bsf	3,5	;RP0=1, select bank1
  5767  0ABE  1303               	bcf	3,6	;RP1=0, select bank1
  5768  0ABF  082A               	movf	exp@x^(0+128),w
  5769  0AC0  1283               	bcf	3,5	;RP0=0, select bank0
  5770  0AC1  1303               	bcf	3,6	;RP1=0, select bank0
  5771  0AC2  00A0               	movwf	___fleq@ff1
  5772  0AC3  307F               	movlw	127
  5773  0AC4  00A7               	movwf	___fleq@ff2+3
  5774  0AC5  307F               	movlw	127
  5775  0AC6  00A6               	movwf	___fleq@ff2+2
  5776  0AC7  30FF               	movlw	255
  5777  0AC8  00A5               	movwf	___fleq@ff2+1
  5778  0AC9  30FF               	movlw	255
  5779  0ACA  00A4               	movwf	___fleq@ff2
  5780  0ACB  160A  158A  2309  120A  158A  	fcall	___fleq
  5781  0AD0  1C03               	btfss	3,0
  5782  0AD1  2AD3               	goto	u7411
  5783  0AD2  2AD4               	goto	u7410
  5784  0AD3                     u7411:	
  5785  0AD3  2ADF               	goto	l4907
  5786  0AD4                     u7410:	
  5787  0AD4                     l4903:	
  5788  0AD4  3000               	movlw	0
  5789  0AD5  1683               	bsf	3,5	;RP0=1, select bank1
  5790  0AD6  1303               	bcf	3,6	;RP1=0, select bank1
  5791  0AD7  00AD               	movwf	(?_exp+3)^(0+128)
  5792  0AD8  3000               	movlw	0
  5793  0AD9  00AC               	movwf	(?_exp+2)^(0+128)
  5794  0ADA  3000               	movlw	0
  5795  0ADB  00AB               	movwf	(?_exp+1)^(0+128)
  5796  0ADC  3000               	movlw	0
  5797  0ADD  00AA               	movwf	?_exp^(0+128)
  5798  0ADE  2B01               	goto	l847
  5799  0ADF                     l4907:	
  5800  0ADF  1683               	bsf	3,5	;RP0=1, select bank1
  5801  0AE0  1303               	bcf	3,6	;RP1=0, select bank1
  5802  0AE1  082D               	movf	(exp@x+3)^(0+128),w
  5803  0AE2  00F3               	movwf	___fldiv@a+3
  5804  0AE3  082C               	movf	(exp@x+2)^(0+128),w
  5805  0AE4  00F2               	movwf	___fldiv@a+2
  5806  0AE5  082B               	movf	(exp@x+1)^(0+128),w
  5807  0AE6  00F1               	movwf	___fldiv@a+1
  5808  0AE7  082A               	movf	exp@x^(0+128),w
  5809  0AE8  00F0               	movwf	___fldiv@a
  5810  0AE9  303F               	movlw	63
  5811  0AEA  00F7               	movwf	___fldiv@b+3
  5812  0AEB  3080               	movlw	128
  5813  0AEC  00F6               	movwf	___fldiv@b+2
  5814  0AED  3000               	movlw	0
  5815  0AEE  00F5               	movwf	___fldiv@b+1
  5816  0AEF  3000               	movlw	0
  5817  0AF0  00F4               	movwf	___fldiv@b
  5818  0AF1  160A  118A  261D  120A  158A  	fcall	___fldiv
  5819  0AF6  0873               	movf	?___fldiv+3,w
  5820  0AF7  1683               	bsf	3,5	;RP0=1, select bank1
  5821  0AF8  1303               	bcf	3,6	;RP1=0, select bank1
  5822  0AF9  00AD               	movwf	(?_exp+3)^(0+128)
  5823  0AFA  0872               	movf	?___fldiv+2,w
  5824  0AFB  00AC               	movwf	(?_exp+2)^(0+128)
  5825  0AFC  0871               	movf	?___fldiv+1,w
  5826  0AFD  00AB               	movwf	(?_exp+1)^(0+128)
  5827  0AFE  0870               	movf	?___fldiv,w
  5828  0AFF  00AA               	movwf	?_exp^(0+128)
  5829  0B00  2B01               	goto	l847
  5830  0B01                     l851:	
  5831  0B01                     l847:	
  5832  0B01  0008               	return
  5833  0B02                     __end_of_exp:	
  5834                           
  5835                           	psect	text11
  5836  10C6                     __ptext11:	
  5837 ;; *************** function _ldexp *****************
  5838 ;; Defined at:
  5839 ;;		line 277 in file "C:\Program Files (x86)\Microchip\xc8\v2.10\pic\sources\c90\common\frexp.c"
  5840 ;; Parameters:    Size  Location     Type
  5841 ;;  value           4    4[BANK1 ] unsigned char 
  5842 ;;  newexp          2    8[BANK1 ] int 
  5843 ;; Auto vars:     Size  Location     Type
  5844 ;;		None
  5845 ;; Return value:  Size  Location     Type
  5846 ;;                  4    4[BANK1 ] int 
  5847 ;; Registers used:
  5848 ;;		wreg, status,2, status,0, btemp+1, pclath, cstack
  5849 ;; Tracked objects:
  5850 ;;		On entry : 0/0
  5851 ;;		On exit  : 0/0
  5852 ;;		Unchanged: 0/0
  5853 ;; Data sizes:     COMMON   BANK0   BANK1   BANK3   BANK2
  5854 ;;      Params:         0       0       6       0       0
  5855 ;;      Locals:         0       0       0       0       0
  5856 ;;      Temps:          0       2       0       0       0
  5857 ;;      Totals:         0       2       6       0       0
  5858 ;;Total ram usage:        8 bytes
  5859 ;; Hardware stack levels used:    1
  5860 ;; Hardware stack levels required when called:    1
  5861 ;; This function calls:
  5862 ;;		___fleq
  5863 ;;		___flge
  5864 ;; This function is called by:
  5865 ;;		_exp
  5866 ;; This function uses a non-reentrant model
  5867 ;;
  5868                           
  5869                           
  5870                           ;psect for function _ldexp
  5871  10C6                     _ldexp:	
  5872  10C6                     l4789:	
  5873                           ;incstack = 0
  5874                           ; Regs used in _ldexp: [wreg+status,2+status,0+btemp+1+pclath+cstack]
  5875                           
  5876  10C6  1683               	bsf	3,5	;RP0=1, select bank1
  5877  10C7  1303               	bcf	3,6	;RP1=0, select bank1
  5878  10C8  0827               	movf	(ldexp@value+3)^(0+128),w
  5879  10C9  1283               	bcf	3,5	;RP0=0, select bank0
  5880  10CA  1303               	bcf	3,6	;RP1=0, select bank0
  5881  10CB  00A3               	movwf	___fleq@ff1+3
  5882  10CC  1683               	bsf	3,5	;RP0=1, select bank1
  5883  10CD  1303               	bcf	3,6	;RP1=0, select bank1
  5884  10CE  0826               	movf	(ldexp@value+2)^(0+128),w
  5885  10CF  1283               	bcf	3,5	;RP0=0, select bank0
  5886  10D0  1303               	bcf	3,6	;RP1=0, select bank0
  5887  10D1  00A2               	movwf	___fleq@ff1+2
  5888  10D2  1683               	bsf	3,5	;RP0=1, select bank1
  5889  10D3  1303               	bcf	3,6	;RP1=0, select bank1
  5890  10D4  0825               	movf	(ldexp@value+1)^(0+128),w
  5891  10D5  1283               	bcf	3,5	;RP0=0, select bank0
  5892  10D6  1303               	bcf	3,6	;RP1=0, select bank0
  5893  10D7  00A1               	movwf	___fleq@ff1+1
  5894  10D8  1683               	bsf	3,5	;RP0=1, select bank1
  5895  10D9  1303               	bcf	3,6	;RP1=0, select bank1
  5896  10DA  0824               	movf	ldexp@value^(0+128),w
  5897  10DB  1283               	bcf	3,5	;RP0=0, select bank0
  5898  10DC  1303               	bcf	3,6	;RP1=0, select bank0
  5899  10DD  00A0               	movwf	___fleq@ff1
  5900  10DE  3000               	movlw	0
  5901  10DF  00A7               	movwf	___fleq@ff2+3
  5902  10E0  3000               	movlw	0
  5903  10E1  00A6               	movwf	___fleq@ff2+2
  5904  10E2  3000               	movlw	0
  5905  10E3  00A5               	movwf	___fleq@ff2+1
  5906  10E4  3000               	movlw	0
  5907  10E5  00A4               	movwf	___fleq@ff2
  5908  10E6  160A  158A  2309  160A  118A  	fcall	___fleq
  5909  10EB  1C03               	btfss	3,0
  5910  10EC  28EE               	goto	u7241
  5911  10ED  28EF               	goto	u7240
  5912  10EE                     u7241:	
  5913  10EE  28FA               	goto	l4795
  5914  10EF                     u7240:	
  5915  10EF                     l4791:	
  5916  10EF  3000               	movlw	0
  5917  10F0  1683               	bsf	3,5	;RP0=1, select bank1
  5918  10F1  1303               	bcf	3,6	;RP1=0, select bank1
  5919  10F2  00A7               	movwf	(?_ldexp+3)^(0+128)
  5920  10F3  3000               	movlw	0
  5921  10F4  00A6               	movwf	(?_ldexp+2)^(0+128)
  5922  10F5  3000               	movlw	0
  5923  10F6  00A5               	movwf	(?_ldexp+1)^(0+128)
  5924  10F7  3000               	movlw	0
  5925  10F8  00A4               	movwf	?_ldexp^(0+128)
  5926  10F9  29A9               	goto	l871
  5927  10FA                     l4795:	
  5928  10FA  1683               	bsf	3,5	;RP0=1, select bank1
  5929  10FB  1303               	bcf	3,6	;RP1=0, select bank1
  5930  10FC  0827               	movf	(ldexp@value^(0+128)+3),w
  5931  10FD  397F               	andlw	127
  5932  10FE  1283               	bcf	3,5	;RP0=0, select bank0
  5933  10FF  1303               	bcf	3,6	;RP1=0, select bank0
  5934  1100  00ED               	movwf	??_ldexp
  5935  1101  01EE               	clrf	??_ldexp+1
  5936  1102  1003               	clrc
  5937  1103  0DED               	rlf	??_ldexp,f
  5938  1104  0DEE               	rlf	??_ldexp+1,f
  5939  1105  086D               	movf	??_ldexp,w
  5940  1106  1683               	bsf	3,5	;RP0=1, select bank1
  5941  1107  1303               	bcf	3,6	;RP1=0, select bank1
  5942  1108  07A8               	addwf	ldexp@newexp^(0+128),f
  5943  1109  1803               	skipnc
  5944  110A  0AA9               	incf	(ldexp@newexp+1)^(0+128),f
  5945  110B  1283               	bcf	3,5	;RP0=0, select bank0
  5946  110C  1303               	bcf	3,6	;RP1=0, select bank0
  5947  110D  086E               	movf	??_ldexp+1,w
  5948  110E  1683               	bsf	3,5	;RP0=1, select bank1
  5949  110F  1303               	bcf	3,6	;RP1=0, select bank1
  5950  1110  07A9               	addwf	(ldexp@newexp+1)^(0+128),f
  5951  1111  0D26               	rlf	(ldexp@value^(0+128)+2),w
  5952  1112  0D26               	rlf	(ldexp@value^(0+128)+2),w
  5953  1113  3901               	andlw	1
  5954  1114  1283               	bcf	3,5	;RP0=0, select bank0
  5955  1115  1303               	bcf	3,6	;RP1=0, select bank0
  5956  1116  00ED               	movwf	??_ldexp
  5957  1117  01EE               	clrf	??_ldexp+1
  5958  1118  086D               	movf	??_ldexp,w
  5959  1119  1683               	bsf	3,5	;RP0=1, select bank1
  5960  111A  1303               	bcf	3,6	;RP1=0, select bank1
  5961  111B  07A8               	addwf	ldexp@newexp^(0+128),f
  5962  111C  1803               	skipnc
  5963  111D  0AA9               	incf	(ldexp@newexp+1)^(0+128),f
  5964  111E  1283               	bcf	3,5	;RP0=0, select bank0
  5965  111F  1303               	bcf	3,6	;RP1=0, select bank0
  5966  1120  086E               	movf	??_ldexp+1,w
  5967  1121  1683               	bsf	3,5	;RP0=1, select bank1
  5968  1122  1303               	bcf	3,6	;RP1=0, select bank1
  5969  1123  07A9               	addwf	(ldexp@newexp+1)^(0+128),f
  5970  1124                     l4797:	
  5971  1124  1FA9               	btfss	(ldexp@newexp+1)^(0+128),7
  5972  1125  2927               	goto	u7251
  5973  1126  2928               	goto	u7250
  5974  1127                     u7251:	
  5975  1127  2939               	goto	l4805
  5976  1128                     u7250:	
  5977  1128                     l4799:	
  5978  1128  3022               	movlw	34
  5979  1129  1683               	bsf	3,5	;RP0=1, select bank3
  5980  112A  1703               	bsf	3,6	;RP1=1, select bank3
  5981  112B  0090               	movwf	_errno^(0+384)
  5982  112C  3000               	movlw	0
  5983  112D  0091               	movwf	(_errno^(0+384)+1)
  5984  112E  3000               	movlw	0
  5985  112F  1683               	bsf	3,5	;RP0=1, select bank1
  5986  1130  1303               	bcf	3,6	;RP1=0, select bank1
  5987  1131  00A7               	movwf	(?_ldexp+3)^(0+128)
  5988  1132  3000               	movlw	0
  5989  1133  00A6               	movwf	(?_ldexp+2)^(0+128)
  5990  1134  3000               	movlw	0
  5991  1135  00A5               	movwf	(?_ldexp+1)^(0+128)
  5992  1136  3000               	movlw	0
  5993  1137  00A4               	movwf	?_ldexp^(0+128)
  5994  1138  29A9               	goto	l871
  5995  1139                     l4805:	
  5996  1139  0829               	movf	(ldexp@newexp+1)^(0+128),w
  5997  113A  3A80               	xorlw	128
  5998  113B  00FF               	movwf	btemp+1
  5999  113C  3081               	movlw	129
  6000  113D  027F               	subwf	btemp+1,w
  6001  113E  1D03               	skipz
  6002  113F  2942               	goto	u7265
  6003  1140  3000               	movlw	0
  6004  1141  0228               	subwf	ldexp@newexp^(0+128),w
  6005  1142                     u7265:	
  6006  1142  1C03               	skipc
  6007  1143  2945               	goto	u7261
  6008  1144  2946               	goto	u7260
  6009  1145                     u7261:	
  6010  1145  297D               	goto	l4821
  6011  1146                     u7260:	
  6012  1146                     l4807:	
  6013  1146  3022               	movlw	34
  6014  1147  1683               	bsf	3,5	;RP0=1, select bank3
  6015  1148  1703               	bsf	3,6	;RP1=1, select bank3
  6016  1149  0090               	movwf	_errno^(0+384)
  6017  114A  3000               	movlw	0
  6018  114B  0091               	movwf	(_errno^(0+384)+1)
  6019  114C                     l4809:	
  6020  114C  1683               	bsf	3,5	;RP0=1, select bank1
  6021  114D  1303               	bcf	3,6	;RP1=0, select bank1
  6022  114E  0827               	movf	(ldexp@value+3)^(0+128),w
  6023  114F  00F3               	movwf	___flge@ff1+3
  6024  1150  0826               	movf	(ldexp@value+2)^(0+128),w
  6025  1151  00F2               	movwf	___flge@ff1+2
  6026  1152  0825               	movf	(ldexp@value+1)^(0+128),w
  6027  1153  00F1               	movwf	___flge@ff1+1
  6028  1154  0824               	movf	ldexp@value^(0+128),w
  6029  1155  00F0               	movwf	___flge@ff1
  6030  1156  3000               	movlw	0
  6031  1157  00F7               	movwf	___flge@ff2+3
  6032  1158  3000               	movlw	0
  6033  1159  00F6               	movwf	___flge@ff2+2
  6034  115A  3000               	movlw	0
  6035  115B  00F5               	movwf	___flge@ff2+1
  6036  115C  3000               	movlw	0
  6037  115D  00F4               	movwf	___flge@ff2
  6038  115E  120A  118A  2010  160A  118A  	fcall	___flge
  6039  1163  1803               	btfsc	3,0
  6040  1164  2966               	goto	u7271
  6041  1165  2967               	goto	u7270
  6042  1166                     u7271:	
  6043  1166  2972               	goto	l4817
  6044  1167                     u7270:	
  6045  1167                     l4811:	
  6046  1167  30FF               	movlw	255
  6047  1168  1683               	bsf	3,5	;RP0=1, select bank1
  6048  1169  1303               	bcf	3,6	;RP1=0, select bank1
  6049  116A  00A7               	movwf	(?_ldexp+3)^(0+128)
  6050  116B  307F               	movlw	127
  6051  116C  00A6               	movwf	(?_ldexp+2)^(0+128)
  6052  116D  30FF               	movlw	255
  6053  116E  00A5               	movwf	(?_ldexp+1)^(0+128)
  6054  116F  30FF               	movlw	255
  6055  1170  00A4               	movwf	?_ldexp^(0+128)
  6056  1171  29A9               	goto	l871
  6057  1172                     l4817:	
  6058  1172  307F               	movlw	127
  6059  1173  1683               	bsf	3,5	;RP0=1, select bank1
  6060  1174  1303               	bcf	3,6	;RP1=0, select bank1
  6061  1175  00A7               	movwf	(?_ldexp+3)^(0+128)
  6062  1176  307F               	movlw	127
  6063  1177  00A6               	movwf	(?_ldexp+2)^(0+128)
  6064  1178  30FF               	movlw	255
  6065  1179  00A5               	movwf	(?_ldexp+1)^(0+128)
  6066  117A  30FF               	movlw	255
  6067  117B  00A4               	movwf	?_ldexp^(0+128)
  6068  117C  29A9               	goto	l871
  6069  117D                     l4821:	
  6070  117D  1683               	bsf	3,5	;RP0=1, select bank1
  6071  117E  1303               	bcf	3,6	;RP1=0, select bank1
  6072  117F  0829               	movf	(ldexp@newexp+1)^(0+128),w
  6073  1180  1283               	bcf	3,5	;RP0=0, select bank0
  6074  1181  1303               	bcf	3,6	;RP1=0, select bank0
  6075  1182  00EE               	movwf	??_ldexp+1
  6076  1183  1683               	bsf	3,5	;RP0=1, select bank1
  6077  1184  1303               	bcf	3,6	;RP1=0, select bank1
  6078  1185  0828               	movf	ldexp@newexp^(0+128),w
  6079  1186  1283               	bcf	3,5	;RP0=0, select bank0
  6080  1187  1303               	bcf	3,6	;RP1=0, select bank0
  6081  1188  00ED               	movwf	??_ldexp
  6082  1189  0D6E               	rlf	??_ldexp+1,w
  6083  118A  0CEE               	rrf	??_ldexp+1,f
  6084  118B  0CED               	rrf	??_ldexp,f
  6085  118C  1683               	bsf	3,5	;RP0=1, select bank1
  6086  118D  1303               	bcf	3,6	;RP1=0, select bank1
  6087  118E  0827               	movf	(ldexp@value^(0+128)+3),w
  6088  118F  1283               	bcf	3,5	;RP0=0, select bank0
  6089  1190  1303               	bcf	3,6	;RP1=0, select bank0
  6090  1191  066D               	xorwf	??_ldexp,w
  6091  1192  3980               	andlw	-128
  6092  1193  066D               	xorwf	??_ldexp,w
  6093  1194  1683               	bsf	3,5	;RP0=1, select bank1
  6094  1195  1303               	bcf	3,6	;RP1=0, select bank1
  6095  1196  00A7               	movwf	(ldexp@value^(0+128)+3)
  6096  1197  0828               	movf	ldexp@newexp^(0+128),w
  6097  1198  3901               	andlw	1
  6098  1199  1283               	bcf	3,5	;RP0=0, select bank0
  6099  119A  1303               	bcf	3,6	;RP1=0, select bank0
  6100  119B  00ED               	movwf	??_ldexp
  6101  119C  0CED               	rrf	??_ldexp,f
  6102  119D  0CED               	rrf	??_ldexp,f
  6103  119E  1683               	bsf	3,5	;RP0=1, select bank1
  6104  119F  1303               	bcf	3,6	;RP1=0, select bank1
  6105  11A0  0826               	movf	(ldexp@value^(0+128)+2),w
  6106  11A1  1283               	bcf	3,5	;RP0=0, select bank0
  6107  11A2  1303               	bcf	3,6	;RP1=0, select bank0
  6108  11A3  066D               	xorwf	??_ldexp,w
  6109  11A4  397F               	andlw	-129
  6110  11A5  066D               	xorwf	??_ldexp,w
  6111  11A6  1683               	bsf	3,5	;RP0=1, select bank1
  6112  11A7  1303               	bcf	3,6	;RP1=0, select bank1
  6113  11A8  00A6               	movwf	(ldexp@value^(0+128)+2)
  6114  11A9                     l4823:	
  6115  11A9                     l871:	
  6116  11A9  0008               	return
  6117  11AA                     __end_of_ldexp:	
  6118                           
  6119                           	psect	text12
  6120  1007                     __ptext12:	
  6121 ;; *************** function _floor *****************
  6122 ;; Defined at:
  6123 ;;		line 13 in file "C:\Program Files (x86)\Microchip\xc8\v2.10\pic\sources\c90\common\floor.c"
  6124 ;; Parameters:    Size  Location     Type
  6125 ;;  x               4   65[BANK0 ] int 
  6126 ;; Auto vars:     Size  Location     Type
  6127 ;;  i               4   70[BANK0 ] int 
  6128 ;;  expon           2   74[BANK0 ] int 
  6129 ;; Return value:  Size  Location     Type
  6130 ;;                  4   65[BANK0 ] int 
  6131 ;; Registers used:
  6132 ;;		wreg, fsr0l, fsr0h, status,2, status,0, btemp+1, pclath, cstack
  6133 ;; Tracked objects:
  6134 ;;		On entry : 0/0
  6135 ;;		On exit  : 0/0
  6136 ;;		Unchanged: 0/0
  6137 ;; Data sizes:     COMMON   BANK0   BANK1   BANK3   BANK2
  6138 ;;      Params:         0       4       0       0       0
  6139 ;;      Locals:         0       6       0       0       0
  6140 ;;      Temps:          0       1       0       0       0
  6141 ;;      Totals:         0      11       0       0       0
  6142 ;;Total ram usage:       11 bytes
  6143 ;; Hardware stack levels used:    1
  6144 ;; Hardware stack levels required when called:    2
  6145 ;; This function calls:
  6146 ;;		___fladd
  6147 ;;		___flge
  6148 ;;		___fltol
  6149 ;;		___xxtofl
  6150 ;;		_frexp
  6151 ;; This function is called by:
  6152 ;;		_exp
  6153 ;; This function uses a non-reentrant model
  6154 ;;
  6155                           
  6156                           
  6157                           ;psect for function _floor
  6158  1007                     _floor:	
  6159  1007                     l4751:	
  6160                           ;incstack = 0
  6161                           ; Regs used in _floor: [wreg-fsr0h+status,2+status,0+btemp+1+pclath+cstack]
  6162                           
  6163  1007  1283               	bcf	3,5	;RP0=0, select bank0
  6164  1008  1303               	bcf	3,6	;RP1=0, select bank0
  6165  1009  0864               	movf	floor@x+3,w
  6166  100A  00AF               	movwf	frexp@value+3
  6167  100B  0863               	movf	floor@x+2,w
  6168  100C  00AE               	movwf	frexp@value+2
  6169  100D  0862               	movf	floor@x+1,w
  6170  100E  00AD               	movwf	frexp@value+1
  6171  100F  0861               	movf	floor@x,w
  6172  1010  00AC               	movwf	frexp@value
  6173  1011  306A               	movlw	(low (floor@expon| 0))& (0+255)
  6174  1012  00E5               	movwf	??_floor
  6175  1013  0865               	movf	??_floor,w
  6176  1014  00B0               	movwf	frexp@eptr
  6177  1015  160A  158A  2405  160A  118A  	fcall	_frexp
  6178  101A                     l4753:	
  6179  101A  1283               	bcf	3,5	;RP0=0, select bank0
  6180  101B  1303               	bcf	3,6	;RP1=0, select bank0
  6181  101C  1FEB               	btfss	floor@expon+1,7
  6182  101D  281F               	goto	u7171
  6183  101E  2820               	goto	u7170
  6184  101F                     u7171:	
  6185  101F  284F               	goto	l4765
  6186  1020                     u7170:	
  6187  1020                     l4755:	
  6188  1020  0864               	movf	floor@x+3,w
  6189  1021  00F3               	movwf	___flge@ff1+3
  6190  1022  0863               	movf	floor@x+2,w
  6191  1023  00F2               	movwf	___flge@ff1+2
  6192  1024  0862               	movf	floor@x+1,w
  6193  1025  00F1               	movwf	___flge@ff1+1
  6194  1026  0861               	movf	floor@x,w
  6195  1027  00F0               	movwf	___flge@ff1
  6196  1028  3000               	movlw	0
  6197  1029  00F7               	movwf	___flge@ff2+3
  6198  102A  3000               	movlw	0
  6199  102B  00F6               	movwf	___flge@ff2+2
  6200  102C  3000               	movlw	0
  6201  102D  00F5               	movwf	___flge@ff2+1
  6202  102E  3000               	movlw	0
  6203  102F  00F4               	movwf	___flge@ff2
  6204  1030  120A  118A  2010  160A  118A  	fcall	___flge
  6205  1035  1803               	btfsc	3,0
  6206  1036  2838               	goto	u7181
  6207  1037  2839               	goto	u7180
  6208  1038                     u7181:	
  6209  1038  2844               	goto	l4761
  6210  1039                     u7180:	
  6211  1039                     l4757:	
  6212  1039  30BF               	movlw	191
  6213  103A  1283               	bcf	3,5	;RP0=0, select bank0
  6214  103B  1303               	bcf	3,6	;RP1=0, select bank0
  6215  103C  00E4               	movwf	?_floor+3
  6216  103D  3080               	movlw	128
  6217  103E  00E3               	movwf	?_floor+2
  6218  103F  3000               	movlw	0
  6219  1040  00E2               	movwf	?_floor+1
  6220  1041  3000               	movlw	0
  6221  1042  00E1               	movwf	?_floor
  6222  1043  28C5               	goto	l859
  6223  1044                     l4761:	
  6224  1044  3000               	movlw	0
  6225  1045  1283               	bcf	3,5	;RP0=0, select bank0
  6226  1046  1303               	bcf	3,6	;RP1=0, select bank0
  6227  1047  00E4               	movwf	?_floor+3
  6228  1048  3000               	movlw	0
  6229  1049  00E3               	movwf	?_floor+2
  6230  104A  3000               	movlw	0
  6231  104B  00E2               	movwf	?_floor+1
  6232  104C  3000               	movlw	0
  6233  104D  00E1               	movwf	?_floor
  6234  104E  28C5               	goto	l859
  6235  104F                     l4765:	
  6236  104F  3000               	movlw	0
  6237  1050  026B               	subwf	floor@expon+1,w
  6238  1051  301D               	movlw	29
  6239  1052  1903               	skipnz
  6240  1053  026A               	subwf	floor@expon,w
  6241  1054  1C03               	skipc
  6242  1055  2857               	goto	u7191
  6243  1056  2858               	goto	u7190
  6244  1057                     u7191:	
  6245  1057  2859               	goto	l4769
  6246  1058                     u7190:	
  6247  1058                     l4767:	
  6248  1058  28C5               	goto	l859
  6249  1059                     l4769:	
  6250  1059  0864               	movf	floor@x+3,w
  6251  105A  00A3               	movwf	___fltol@f1+3
  6252  105B  0863               	movf	floor@x+2,w
  6253  105C  00A2               	movwf	___fltol@f1+2
  6254  105D  0862               	movf	floor@x+1,w
  6255  105E  00A1               	movwf	___fltol@f1+1
  6256  105F  0861               	movf	floor@x,w
  6257  1060  00A0               	movwf	___fltol@f1
  6258  1061  160A  158A  24D4  160A  118A  	fcall	___fltol
  6259  1066  1283               	bcf	3,5	;RP0=0, select bank0
  6260  1067  1303               	bcf	3,6	;RP1=0, select bank0
  6261  1068  0823               	movf	?___fltol+3,w
  6262  1069  00F3               	movwf	___xxtofl@val+3
  6263  106A  0822               	movf	?___fltol+2,w
  6264  106B  00F2               	movwf	___xxtofl@val+2
  6265  106C  0821               	movf	?___fltol+1,w
  6266  106D  00F1               	movwf	___xxtofl@val+1
  6267  106E  0820               	movf	?___fltol,w
  6268  106F  00F0               	movwf	___xxtofl@val
  6269  1070  3001               	movlw	1
  6270  1071  160A  158A  266A  160A  118A  	fcall	___xxtofl
  6271  1076  0873               	movf	?___xxtofl+3,w
  6272  1077  1283               	bcf	3,5	;RP0=0, select bank0
  6273  1078  1303               	bcf	3,6	;RP1=0, select bank0
  6274  1079  00E9               	movwf	floor@i+3
  6275  107A  0872               	movf	?___xxtofl+2,w
  6276  107B  00E8               	movwf	floor@i+2
  6277  107C  0871               	movf	?___xxtofl+1,w
  6278  107D  00E7               	movwf	floor@i+1
  6279  107E  0870               	movf	?___xxtofl,w
  6280  107F  00E6               	movwf	floor@i
  6281  1080  0864               	movf	floor@x+3,w
  6282  1081  00F3               	movwf	___flge@ff1+3
  6283  1082  0863               	movf	floor@x+2,w
  6284  1083  00F2               	movwf	___flge@ff1+2
  6285  1084  0862               	movf	floor@x+1,w
  6286  1085  00F1               	movwf	___flge@ff1+1
  6287  1086  0861               	movf	floor@x,w
  6288  1087  00F0               	movwf	___flge@ff1
  6289  1088  0869               	movf	floor@i+3,w
  6290  1089  00F7               	movwf	___flge@ff2+3
  6291  108A  0868               	movf	floor@i+2,w
  6292  108B  00F6               	movwf	___flge@ff2+2
  6293  108C  0867               	movf	floor@i+1,w
  6294  108D  00F5               	movwf	___flge@ff2+1
  6295  108E  0866               	movf	floor@i,w
  6296  108F  00F4               	movwf	___flge@ff2
  6297  1090  120A  118A  2010  160A  118A  	fcall	___flge
  6298  1095  1803               	btfsc	3,0
  6299  1096  2898               	goto	u7201
  6300  1097  2899               	goto	u7200
  6301  1098                     u7201:	
  6302  1098  28BB               	goto	l4775
  6303  1099                     u7200:	
  6304  1099                     l4771:	
  6305  1099  30BF               	movlw	191
  6306  109A  1283               	bcf	3,5	;RP0=0, select bank0
  6307  109B  1303               	bcf	3,6	;RP1=0, select bank0
  6308  109C  00D0               	movwf	___fladd@b+3
  6309  109D  3080               	movlw	128
  6310  109E  00CF               	movwf	___fladd@b+2
  6311  109F  3000               	movlw	0
  6312  10A0  00CE               	movwf	___fladd@b+1
  6313  10A1  3000               	movlw	0
  6314  10A2  00CD               	movwf	___fladd@b
  6315  10A3  0869               	movf	floor@i+3,w
  6316  10A4  00D4               	movwf	___fladd@a+3
  6317  10A5  0868               	movf	floor@i+2,w
  6318  10A6  00D3               	movwf	___fladd@a+2
  6319  10A7  0867               	movf	floor@i+1,w
  6320  10A8  00D2               	movwf	___fladd@a+1
  6321  10A9  0866               	movf	floor@i,w
  6322  10AA  00D1               	movwf	___fladd@a
  6323  10AB  120A  158A  2578  160A  118A  	fcall	___fladd
  6324  10B0  1283               	bcf	3,5	;RP0=0, select bank0
  6325  10B1  1303               	bcf	3,6	;RP1=0, select bank0
  6326  10B2  0850               	movf	?___fladd+3,w
  6327  10B3  00E4               	movwf	?_floor+3
  6328  10B4  084F               	movf	?___fladd+2,w
  6329  10B5  00E3               	movwf	?_floor+2
  6330  10B6  084E               	movf	?___fladd+1,w
  6331  10B7  00E2               	movwf	?_floor+1
  6332  10B8  084D               	movf	?___fladd,w
  6333  10B9  00E1               	movwf	?_floor
  6334  10BA  28C5               	goto	l859
  6335  10BB                     l4775:	
  6336  10BB  1283               	bcf	3,5	;RP0=0, select bank0
  6337  10BC  1303               	bcf	3,6	;RP1=0, select bank0
  6338  10BD  0869               	movf	floor@i+3,w
  6339  10BE  00E4               	movwf	?_floor+3
  6340  10BF  0868               	movf	floor@i+2,w
  6341  10C0  00E3               	movwf	?_floor+2
  6342  10C1  0867               	movf	floor@i+1,w
  6343  10C2  00E2               	movwf	?_floor+1
  6344  10C3  0866               	movf	floor@i,w
  6345  10C4  00E1               	movwf	?_floor
  6346  10C5                     l859:	
  6347  10C5  0008               	return
  6348  10C6                     __end_of_floor:	
  6349                           
  6350                           	psect	text13
  6351  1C05                     __ptext13:	
  6352 ;; *************** function _frexp *****************
  6353 ;; Defined at:
  6354 ;;		line 254 in file "C:\Program Files (x86)\Microchip\xc8\v2.10\pic\sources\c90\common\frexp.c"
  6355 ;; Parameters:    Size  Location     Type
  6356 ;;  value           4   12[BANK0 ] int 
  6357 ;;  eptr            1   16[BANK0 ] PTR int 
  6358 ;;		 -> log@exponent(2), floor@expon(2), 
  6359 ;; Auto vars:     Size  Location     Type
  6360 ;;		None
  6361 ;; Return value:  Size  Location     Type
  6362 ;;                  4   12[BANK0 ] PTR int 
  6363 ;; Registers used:
  6364 ;;		wreg, fsr0l, fsr0h, status,2, status,0, btemp+1, pclath, cstack
  6365 ;; Tracked objects:
  6366 ;;		On entry : 0/0
  6367 ;;		On exit  : 0/0
  6368 ;;		Unchanged: 0/0
  6369 ;; Data sizes:     COMMON   BANK0   BANK1   BANK3   BANK2
  6370 ;;      Params:         0       5       0       0       0
  6371 ;;      Locals:         0       0       0       0       0
  6372 ;;      Temps:          0       2       0       0       0
  6373 ;;      Totals:         0       7       0       0       0
  6374 ;;Total ram usage:        7 bytes
  6375 ;; Hardware stack levels used:    1
  6376 ;; Hardware stack levels required when called:    1
  6377 ;; This function calls:
  6378 ;;		___fleq
  6379 ;; This function is called by:
  6380 ;;		_floor
  6381 ;;		_log
  6382 ;; This function uses a non-reentrant model
  6383 ;;
  6384                           
  6385                           
  6386                           ;psect for function _frexp
  6387  1C05                     _frexp:	
  6388  1C05                     l4575:	
  6389                           ;incstack = 0
  6390                           ; Regs used in _frexp: [wreg-fsr0h+status,2+status,0+btemp+1+pclath+cstack]
  6391                           
  6392  1C05  1283               	bcf	3,5	;RP0=0, select bank0
  6393  1C06  1303               	bcf	3,6	;RP1=0, select bank0
  6394  1C07  082F               	movf	frexp@value+3,w
  6395  1C08  00A3               	movwf	___fleq@ff1+3
  6396  1C09  082E               	movf	frexp@value+2,w
  6397  1C0A  00A2               	movwf	___fleq@ff1+2
  6398  1C0B  082D               	movf	frexp@value+1,w
  6399  1C0C  00A1               	movwf	___fleq@ff1+1
  6400  1C0D  082C               	movf	frexp@value,w
  6401  1C0E  00A0               	movwf	___fleq@ff1
  6402  1C0F  3000               	movlw	0
  6403  1C10  00A7               	movwf	___fleq@ff2+3
  6404  1C11  3000               	movlw	0
  6405  1C12  00A6               	movwf	___fleq@ff2+2
  6406  1C13  3000               	movlw	0
  6407  1C14  00A5               	movwf	___fleq@ff2+1
  6408  1C15  3000               	movlw	0
  6409  1C16  00A4               	movwf	___fleq@ff2
  6410  1C17  160A  158A  2309  160A  158A  	fcall	___fleq
  6411  1C1C  1C03               	btfss	3,0
  6412  1C1D  2C1F               	goto	u6851
  6413  1C1E  2C20               	goto	u6850
  6414  1C1F                     u6851:	
  6415  1C1F  2C31               	goto	l4583
  6416  1C20                     u6850:	
  6417  1C20                     l4577:	
  6418  1C20  1283               	bcf	3,5	;RP0=0, select bank0
  6419  1C21  1303               	bcf	3,6	;RP1=0, select bank0
  6420  1C22  0830               	movf	frexp@eptr,w
  6421  1C23  0084               	movwf	4
  6422  1C24  1383               	bcf	3,7	;select IRP bank0
  6423  1C25  0180               	clrf	0
  6424  1C26  0A84               	incf	4,f
  6425  1C27  0180               	clrf	0
  6426  1C28                     l4579:	
  6427  1C28  3000               	movlw	0
  6428  1C29  00AF               	movwf	?_frexp+3
  6429  1C2A  3000               	movlw	0
  6430  1C2B  00AE               	movwf	?_frexp+2
  6431  1C2C  3000               	movlw	0
  6432  1C2D  00AD               	movwf	?_frexp+1
  6433  1C2E  3000               	movlw	0
  6434  1C2F  00AC               	movwf	?_frexp
  6435  1C30  2C60               	goto	l867
  6436  1C31                     l4583:	
  6437  1C31  1283               	bcf	3,5	;RP0=0, select bank0
  6438  1C32  1303               	bcf	3,6	;RP1=0, select bank0
  6439  1C33  082F               	movf	frexp@value+3,w
  6440  1C34  397F               	andlw	127
  6441  1C35  00B1               	movwf	??_frexp
  6442  1C36  01B2               	clrf	??_frexp+1
  6443  1C37  1003               	clrc
  6444  1C38  0DB1               	rlf	??_frexp,f
  6445  1C39  0DB2               	rlf	??_frexp+1,f
  6446  1C3A  0830               	movf	frexp@eptr,w
  6447  1C3B  0084               	movwf	4
  6448  1C3C  0831               	movf	??_frexp,w
  6449  1C3D  1383               	bcf	3,7	;select IRP bank0
  6450  1C3E  0080               	movwf	0
  6451  1C3F  0A84               	incf	4,f
  6452  1C40  0832               	movf	??_frexp+1,w
  6453  1C41  0080               	movwf	0
  6454  1C42  0D2E               	rlf	frexp@value+2,w
  6455  1C43  0D2E               	rlf	frexp@value+2,w
  6456  1C44  3901               	andlw	1
  6457  1C45  00B1               	movwf	??_frexp
  6458  1C46  01B2               	clrf	??_frexp+1
  6459  1C47  0830               	movf	frexp@eptr,w
  6460  1C48  0084               	movwf	4
  6461  1C49  0831               	movf	??_frexp,w
  6462  1C4A  0480               	iorwf	0,f
  6463  1C4B  0A84               	incf	4,f
  6464  1C4C  0832               	movf	??_frexp+1,w
  6465  1C4D  0480               	iorwf	0,f
  6466  1C4E                     l4585:	
  6467  1C4E  0830               	movf	frexp@eptr,w
  6468  1C4F  0084               	movwf	4
  6469  1C50  3082               	movlw	130
  6470  1C51  0780               	addwf	0,f
  6471  1C52  0F84               	incfsz	4,f
  6472  1C53  0800               	movf	0,w
  6473  1C54  1803               	skipnc
  6474  1C55  0A00               	incf	0,w
  6475  1C56  00FF               	movwf	btemp+1
  6476  1C57  30FF               	movlw	255
  6477  1C58  077F               	addwf	btemp+1,w
  6478  1C59  0080               	movwf	0
  6479  1C5A  0384               	decf	4,f
  6480  1C5B                     l4587:	
  6481  1C5B  082F               	movf	frexp@value+3,w
  6482  1C5C  3980               	andlw	-128
  6483  1C5D  383F               	iorlw	63
  6484  1C5E  00AF               	movwf	frexp@value+3
  6485  1C5F                     l4589:	
  6486  1C5F  13AE               	bcf	frexp@value+2,7
  6487  1C60                     l4591:	
  6488  1C60                     l867:	
  6489  1C60  0008               	return
  6490  1C61                     __end_of_frexp:	
  6491                           
  6492                           	psect	text14
  6493  1B09                     __ptext14:	
  6494 ;; *************** function ___fleq *****************
  6495 ;; Defined at:
  6496 ;;		line 4 in file "C:\Program Files (x86)\Microchip\xc8\v2.10\pic\sources\c90\common\fleq.c"
  6497 ;; Parameters:    Size  Location     Type
  6498 ;;  ff1             4    0[BANK0 ] PTR int 
  6499 ;;  ff2             4    4[BANK0 ] PTR int 
  6500 ;; Auto vars:     Size  Location     Type
  6501 ;;		None
  6502 ;; Return value:  Size  Location     Type
  6503 ;;		None               void
  6504 ;; Registers used:
  6505 ;;		wreg, status,2, status,0
  6506 ;; Tracked objects:
  6507 ;;		On entry : 0/0
  6508 ;;		On exit  : 0/0
  6509 ;;		Unchanged: 0/0
  6510 ;; Data sizes:     COMMON   BANK0   BANK1   BANK3   BANK2
  6511 ;;      Params:         0       8       0       0       0
  6512 ;;      Locals:         0       0       0       0       0
  6513 ;;      Temps:          0       4       0       0       0
  6514 ;;      Totals:         0      12       0       0       0
  6515 ;;Total ram usage:       12 bytes
  6516 ;; Hardware stack levels used:    1
  6517 ;; This function calls:
  6518 ;;		Nothing
  6519 ;; This function is called by:
  6520 ;;		_pow
  6521 ;;		_exp
  6522 ;;		_frexp
  6523 ;;		_ldexp
  6524 ;;		_log
  6525 ;; This function uses a non-reentrant model
  6526 ;;
  6527                           
  6528                           
  6529                           ;psect for function ___fleq
  6530  1B09                     ___fleq:	
  6531  1B09                     l4115:	
  6532                           ;incstack = 0
  6533                           ; Regs used in ___fleq: [wreg+status,2+status,0]
  6534                           
  6535  1B09  3000               	movlw	0
  6536  1B0A  1283               	bcf	3,5	;RP0=0, select bank0
  6537  1B0B  1303               	bcf	3,6	;RP1=0, select bank0
  6538  1B0C  0520               	andwf	___fleq@ff1,w
  6539  1B0D  00A8               	movwf	??___fleq
  6540  1B0E  3000               	movlw	0
  6541  1B0F  0521               	andwf	___fleq@ff1+1,w
  6542  1B10  00A9               	movwf	??___fleq+1
  6543  1B11  3080               	movlw	128
  6544  1B12  0522               	andwf	___fleq@ff1+2,w
  6545  1B13  00AA               	movwf	??___fleq+2
  6546  1B14  307F               	movlw	127
  6547  1B15  0523               	andwf	___fleq@ff1+3,w
  6548  1B16  00AB               	movwf	??___fleq+3
  6549  1B17  082B               	movf	??___fleq+3,w
  6550  1B18  042A               	iorwf	??___fleq+2,w
  6551  1B19  0429               	iorwf	??___fleq+1,w
  6552  1B1A  0428               	iorwf	??___fleq,w
  6553  1B1B  1D03               	skipz
  6554  1B1C  2B1E               	goto	u5651
  6555  1B1D  2B1F               	goto	u5650
  6556  1B1E                     u5651:	
  6557  1B1E  2B27               	goto	l537
  6558  1B1F                     u5650:	
  6559  1B1F                     l4117:	
  6560  1B1F  3000               	movlw	0
  6561  1B20  00A3               	movwf	___fleq@ff1+3
  6562  1B21  3000               	movlw	0
  6563  1B22  00A2               	movwf	___fleq@ff1+2
  6564  1B23  3000               	movlw	0
  6565  1B24  00A1               	movwf	___fleq@ff1+1
  6566  1B25  3000               	movlw	0
  6567  1B26  00A0               	movwf	___fleq@ff1
  6568  1B27                     l537:	
  6569  1B27  3000               	movlw	0
  6570  1B28  0524               	andwf	___fleq@ff2,w
  6571  1B29  00A8               	movwf	??___fleq
  6572  1B2A  3000               	movlw	0
  6573  1B2B  0525               	andwf	___fleq@ff2+1,w
  6574  1B2C  00A9               	movwf	??___fleq+1
  6575  1B2D  3080               	movlw	128
  6576  1B2E  0526               	andwf	___fleq@ff2+2,w
  6577  1B2F  00AA               	movwf	??___fleq+2
  6578  1B30  307F               	movlw	127
  6579  1B31  0527               	andwf	___fleq@ff2+3,w
  6580  1B32  00AB               	movwf	??___fleq+3
  6581  1B33  082B               	movf	??___fleq+3,w
  6582  1B34  042A               	iorwf	??___fleq+2,w
  6583  1B35  0429               	iorwf	??___fleq+1,w
  6584  1B36  0428               	iorwf	??___fleq,w
  6585  1B37  1D03               	skipz
  6586  1B38  2B3A               	goto	u5661
  6587  1B39  2B3B               	goto	u5660
  6588  1B3A                     u5661:	
  6589  1B3A  2B43               	goto	l538
  6590  1B3B                     u5660:	
  6591  1B3B                     l4119:	
  6592  1B3B  3000               	movlw	0
  6593  1B3C  00A7               	movwf	___fleq@ff2+3
  6594  1B3D  3000               	movlw	0
  6595  1B3E  00A6               	movwf	___fleq@ff2+2
  6596  1B3F  3000               	movlw	0
  6597  1B40  00A5               	movwf	___fleq@ff2+1
  6598  1B41  3000               	movlw	0
  6599  1B42  00A4               	movwf	___fleq@ff2
  6600  1B43                     l538:	
  6601  1B43  0827               	movf	___fleq@ff2+3,w
  6602  1B44  0623               	xorwf	___fleq@ff1+3,w
  6603  1B45  1D03               	skipz
  6604  1B46  2B51               	goto	u5675
  6605  1B47  0826               	movf	___fleq@ff2+2,w
  6606  1B48  0622               	xorwf	___fleq@ff1+2,w
  6607  1B49  1D03               	skipz
  6608  1B4A  2B51               	goto	u5675
  6609  1B4B  0825               	movf	___fleq@ff2+1,w
  6610  1B4C  0621               	xorwf	___fleq@ff1+1,w
  6611  1B4D  1D03               	skipz
  6612  1B4E  2B51               	goto	u5675
  6613  1B4F  0824               	movf	___fleq@ff2,w
  6614  1B50  0620               	xorwf	___fleq@ff1,w
  6615  1B51                     u5675:	
  6616  1B51  1903               	skipnz
  6617  1B52  2B54               	goto	u5671
  6618  1B53  2B55               	goto	u5670
  6619  1B54                     u5671:	
  6620  1B54  2B57               	goto	l4123
  6621  1B55                     u5670:	
  6622  1B55                     l4121:	
  6623  1B55  1003               	clrc
  6624  1B56  2B58               	goto	l539
  6625  1B57                     l4123:	
  6626  1B57  1403               	setc
  6627  1B58                     l539:	
  6628  1B58  0008               	return
  6629  1B59                     __end_of___fleq:	
  6630                           
  6631                           	psect	text15
  6632  1E6A                     __ptext15:	
  6633 ;; *************** function ___xxtofl *****************
  6634 ;; Defined at:
  6635 ;;		line 10 in file "C:\Program Files (x86)\Microchip\xc8\v2.10\pic\sources\c90\common\xxtofl.c"
  6636 ;; Parameters:    Size  Location     Type
  6637 ;;  sign            1    wreg     unsigned char 
  6638 ;;  val             4    0[COMMON] long 
  6639 ;; Auto vars:     Size  Location     Type
  6640 ;;  sign            1    8[COMMON] unsigned char 
  6641 ;;  arg             4   10[COMMON] unsigned long 
  6642 ;;  exp             1    9[COMMON] unsigned char 
  6643 ;; Return value:  Size  Location     Type
  6644 ;;                  4    0[COMMON] unsigned char 
  6645 ;; Registers used:
  6646 ;;		wreg, status,2, status,0
  6647 ;; Tracked objects:
  6648 ;;		On entry : 0/0
  6649 ;;		On exit  : 0/0
  6650 ;;		Unchanged: 0/0
  6651 ;; Data sizes:     COMMON   BANK0   BANK1   BANK3   BANK2
  6652 ;;      Params:         4       0       0       0       0
  6653 ;;      Locals:         6       0       0       0       0
  6654 ;;      Temps:          4       0       0       0       0
  6655 ;;      Totals:        14       0       0       0       0
  6656 ;;Total ram usage:       14 bytes
  6657 ;; Hardware stack levels used:    1
  6658 ;; This function calls:
  6659 ;;		Nothing
  6660 ;; This function is called by:
  6661 ;;		_LCD_WRITE_NUM
  6662 ;;		_pow
  6663 ;;		_exp
  6664 ;;		_floor
  6665 ;;		_log
  6666 ;; This function uses a non-reentrant model
  6667 ;;
  6668                           
  6669                           
  6670                           ;psect for function ___xxtofl
  6671  1E6A                     ___xxtofl:	
  6672                           
  6673                           ;incstack = 0
  6674                           ; Regs used in ___xxtofl: [wreg+status,2+status,0]
  6675                           ;___xxtofl@sign stored from wreg
  6676  1E6A  00F8               	movwf	___xxtofl@sign
  6677  1E6B                     l4531:	
  6678  1E6B  0878               	movf	___xxtofl@sign,w
  6679  1E6C  1903               	btfsc	3,2
  6680  1E6D  2E6F               	goto	u6711
  6681  1E6E  2E70               	goto	u6710
  6682  1E6F                     u6711:	
  6683  1E6F  2E84               	goto	l4537
  6684  1E70                     u6710:	
  6685  1E70                     l4533:	
  6686  1E70  1FF3               	btfss	___xxtofl@val+3,7
  6687  1E71  2E73               	goto	u6721
  6688  1E72  2E74               	goto	u6720
  6689  1E73                     u6721:	
  6690  1E73  2E84               	goto	l4537
  6691  1E74                     u6720:	
  6692  1E74                     l4535:	
  6693  1E74  0970               	comf	___xxtofl@val,w
  6694  1E75  00FA               	movwf	___xxtofl@arg
  6695  1E76  0971               	comf	___xxtofl@val+1,w
  6696  1E77  00FB               	movwf	___xxtofl@arg+1
  6697  1E78  0972               	comf	___xxtofl@val+2,w
  6698  1E79  00FC               	movwf	___xxtofl@arg+2
  6699  1E7A  0973               	comf	___xxtofl@val+3,w
  6700  1E7B  00FD               	movwf	___xxtofl@arg+3
  6701  1E7C  0AFA               	incf	___xxtofl@arg,f
  6702  1E7D  1903               	skipnz
  6703  1E7E  0AFB               	incf	___xxtofl@arg+1,f
  6704  1E7F  1903               	skipnz
  6705  1E80  0AFC               	incf	___xxtofl@arg+2,f
  6706  1E81  1903               	skipnz
  6707  1E82  0AFD               	incf	___xxtofl@arg+3,f
  6708  1E83  2E8C               	goto	l795
  6709  1E84                     l4537:	
  6710  1E84  0873               	movf	___xxtofl@val+3,w
  6711  1E85  00FD               	movwf	___xxtofl@arg+3
  6712  1E86  0872               	movf	___xxtofl@val+2,w
  6713  1E87  00FC               	movwf	___xxtofl@arg+2
  6714  1E88  0871               	movf	___xxtofl@val+1,w
  6715  1E89  00FB               	movwf	___xxtofl@arg+1
  6716  1E8A  0870               	movf	___xxtofl@val,w
  6717  1E8B  00FA               	movwf	___xxtofl@arg
  6718  1E8C                     l795:	
  6719  1E8C  0873               	movf	___xxtofl@val+3,w
  6720  1E8D  0472               	iorwf	___xxtofl@val+2,w
  6721  1E8E  0471               	iorwf	___xxtofl@val+1,w
  6722  1E8F  0470               	iorwf	___xxtofl@val,w
  6723  1E90  1D03               	skipz
  6724  1E91  2E93               	goto	u6731
  6725  1E92  2E94               	goto	u6730
  6726  1E93                     u6731:	
  6727  1E93  2E9D               	goto	l4543
  6728  1E94                     u6730:	
  6729  1E94                     l4539:	
  6730  1E94  3000               	movlw	0
  6731  1E95  00F3               	movwf	?___xxtofl+3
  6732  1E96  3000               	movlw	0
  6733  1E97  00F2               	movwf	?___xxtofl+2
  6734  1E98  3000               	movlw	0
  6735  1E99  00F1               	movwf	?___xxtofl+1
  6736  1E9A  3000               	movlw	0
  6737  1E9B  00F0               	movwf	?___xxtofl
  6738  1E9C  2F23               	goto	l797
  6739  1E9D                     l4543:	
  6740  1E9D  3096               	movlw	150
  6741  1E9E  00F4               	movwf	??___xxtofl
  6742  1E9F  0874               	movf	??___xxtofl,w
  6743  1EA0  00F9               	movwf	___xxtofl@exp
  6744  1EA1  2EAF               	goto	l4547
  6745  1EA2                     l4545:	
  6746  1EA2  3001               	movlw	1
  6747  1EA3  00F4               	movwf	??___xxtofl
  6748  1EA4  0874               	movf	??___xxtofl,w
  6749  1EA5  07F9               	addwf	___xxtofl@exp,f
  6750  1EA6  3001               	movlw	1
  6751  1EA7                     u6745:	
  6752  1EA7  1003               	clrc
  6753  1EA8  0CFD               	rrf	___xxtofl@arg+3,f
  6754  1EA9  0CFC               	rrf	___xxtofl@arg+2,f
  6755  1EAA  0CFB               	rrf	___xxtofl@arg+1,f
  6756  1EAB  0CFA               	rrf	___xxtofl@arg,f
  6757  1EAC  3EFF               	addlw	-1
  6758  1EAD  1D03               	skipz
  6759  1EAE  2EA7               	goto	u6745
  6760  1EAF                     l4547:	
  6761  1EAF  30FE               	movlw	254
  6762  1EB0  057D               	andwf	___xxtofl@arg+3,w
  6763  1EB1  1D03               	btfss	3,2
  6764  1EB2  2EB4               	goto	u6751
  6765  1EB3  2EB5               	goto	u6750
  6766  1EB4                     u6751:	
  6767  1EB4  2EA2               	goto	l4545
  6768  1EB5                     u6750:	
  6769  1EB5  2ED1               	goto	l801
  6770  1EB6                     l4549:	
  6771  1EB6  3001               	movlw	1
  6772  1EB7  00F4               	movwf	??___xxtofl
  6773  1EB8  0874               	movf	??___xxtofl,w
  6774  1EB9  07F9               	addwf	___xxtofl@exp,f
  6775  1EBA                     l4551:	
  6776  1EBA  3001               	movlw	1
  6777  1EBB  07FA               	addwf	___xxtofl@arg,f
  6778  1EBC  3000               	movlw	0
  6779  1EBD  1803               	skipnc
  6780  1EBE  3001               	movlw	1
  6781  1EBF  07FB               	addwf	___xxtofl@arg+1,f
  6782  1EC0  3000               	movlw	0
  6783  1EC1  1803               	skipnc
  6784  1EC2  3001               	movlw	1
  6785  1EC3  07FC               	addwf	___xxtofl@arg+2,f
  6786  1EC4  3000               	movlw	0
  6787  1EC5  1803               	skipnc
  6788  1EC6  3001               	movlw	1
  6789  1EC7  07FD               	addwf	___xxtofl@arg+3,f
  6790  1EC8                     l4553:	
  6791  1EC8  3001               	movlw	1
  6792  1EC9                     u6765:	
  6793  1EC9  1003               	clrc
  6794  1ECA  0CFD               	rrf	___xxtofl@arg+3,f
  6795  1ECB  0CFC               	rrf	___xxtofl@arg+2,f
  6796  1ECC  0CFB               	rrf	___xxtofl@arg+1,f
  6797  1ECD  0CFA               	rrf	___xxtofl@arg,f
  6798  1ECE  3EFF               	addlw	-1
  6799  1ECF  1D03               	skipz
  6800  1ED0  2EC9               	goto	u6765
  6801  1ED1                     l801:	
  6802  1ED1  30FF               	movlw	255
  6803  1ED2  057D               	andwf	___xxtofl@arg+3,w
  6804  1ED3  1D03               	btfss	3,2
  6805  1ED4  2ED6               	goto	u6771
  6806  1ED5  2ED7               	goto	u6770
  6807  1ED6                     u6771:	
  6808  1ED6  2EB6               	goto	l4549
  6809  1ED7                     u6770:	
  6810  1ED7  2EE3               	goto	l4557
  6811  1ED8                     l4555:	
  6812  1ED8  3001               	movlw	1
  6813  1ED9  02F9               	subwf	___xxtofl@exp,f
  6814  1EDA  3001               	movlw	1
  6815  1EDB  00F4               	movwf	??___xxtofl
  6816  1EDC                     u6785:	
  6817  1EDC  1003               	clrc
  6818  1EDD  0DFA               	rlf	___xxtofl@arg,f
  6819  1EDE  0DFB               	rlf	___xxtofl@arg+1,f
  6820  1EDF  0DFC               	rlf	___xxtofl@arg+2,f
  6821  1EE0  0DFD               	rlf	___xxtofl@arg+3,f
  6822  1EE1  0BF4               	decfsz	??___xxtofl,f
  6823  1EE2  2EDC               	goto	u6785
  6824  1EE3                     l4557:	
  6825  1EE3  1BFC               	btfsc	___xxtofl@arg+2,7
  6826  1EE4  2EE6               	goto	u6791
  6827  1EE5  2EE7               	goto	u6790
  6828  1EE6                     u6791:	
  6829  1EE6  2EED               	goto	l808
  6830  1EE7                     u6790:	
  6831  1EE7                     l4559:	
  6832  1EE7  3002               	movlw	2
  6833  1EE8  0279               	subwf	___xxtofl@exp,w
  6834  1EE9  1803               	skipnc
  6835  1EEA  2EEC               	goto	u6801
  6836  1EEB  2EED               	goto	u6800
  6837  1EEC                     u6801:	
  6838  1EEC  2ED8               	goto	l4555
  6839  1EED                     u6800:	
  6840  1EED                     l808:	
  6841  1EED  1879               	btfsc	___xxtofl@exp,0
  6842  1EEE  2EF0               	goto	u6811
  6843  1EEF  2EF1               	goto	u6810
  6844  1EF0                     u6811:	
  6845  1EF0  2EF9               	goto	l809
  6846  1EF1                     u6810:	
  6847  1EF1                     l4561:	
  6848  1EF1  30FF               	movlw	255
  6849  1EF2  05FA               	andwf	___xxtofl@arg,f
  6850  1EF3  30FF               	movlw	255
  6851  1EF4  05FB               	andwf	___xxtofl@arg+1,f
  6852  1EF5  307F               	movlw	127
  6853  1EF6  05FC               	andwf	___xxtofl@arg+2,f
  6854  1EF7  30FF               	movlw	255
  6855  1EF8  05FD               	andwf	___xxtofl@arg+3,f
  6856  1EF9                     l809:	
  6857  1EF9  1003               	clrc
  6858  1EFA  0CF9               	rrf	___xxtofl@exp,f
  6859  1EFB                     l4563:	
  6860  1EFB  0879               	movf	___xxtofl@exp,w
  6861  1EFC  00F4               	movwf	??___xxtofl
  6862  1EFD  01F5               	clrf	??___xxtofl+1
  6863  1EFE  01F6               	clrf	??___xxtofl+2
  6864  1EFF  01F7               	clrf	??___xxtofl+3
  6865  1F00  3018               	movlw	24
  6866  1F01                     u6825:	
  6867  1F01  1003               	clrc
  6868  1F02  0DF4               	rlf	??___xxtofl,f
  6869  1F03  0DF5               	rlf	??___xxtofl+1,f
  6870  1F04  0DF6               	rlf	??___xxtofl+2,f
  6871  1F05  0DF7               	rlf	??___xxtofl+3,f
  6872  1F06                     u6820:	
  6873  1F06  3EFF               	addlw	-1
  6874  1F07  1D03               	skipz
  6875  1F08  2F01               	goto	u6825
  6876  1F09  0874               	movf	??___xxtofl,w
  6877  1F0A  04FA               	iorwf	___xxtofl@arg,f
  6878  1F0B  0875               	movf	??___xxtofl+1,w
  6879  1F0C  04FB               	iorwf	___xxtofl@arg+1,f
  6880  1F0D  0876               	movf	??___xxtofl+2,w
  6881  1F0E  04FC               	iorwf	___xxtofl@arg+2,f
  6882  1F0F  0877               	movf	??___xxtofl+3,w
  6883  1F10  04FD               	iorwf	___xxtofl@arg+3,f
  6884  1F11                     l4565:	
  6885  1F11  0878               	movf	___xxtofl@sign,w
  6886  1F12  1903               	btfsc	3,2
  6887  1F13  2F15               	goto	u6831
  6888  1F14  2F16               	goto	u6830
  6889  1F15                     u6831:	
  6890  1F15  2F1B               	goto	l4571
  6891  1F16                     u6830:	
  6892  1F16                     l4567:	
  6893  1F16  1FF3               	btfss	___xxtofl@val+3,7
  6894  1F17  2F19               	goto	u6841
  6895  1F18  2F1A               	goto	u6840
  6896  1F19                     u6841:	
  6897  1F19  2F1B               	goto	l4571
  6898  1F1A                     u6840:	
  6899  1F1A                     l4569:	
  6900  1F1A  17FD               	bsf	___xxtofl@arg+3,7
  6901  1F1B                     l4571:	
  6902  1F1B  087D               	movf	___xxtofl@arg+3,w
  6903  1F1C  00F3               	movwf	?___xxtofl+3
  6904  1F1D  087C               	movf	___xxtofl@arg+2,w
  6905  1F1E  00F2               	movwf	?___xxtofl+2
  6906  1F1F  087B               	movf	___xxtofl@arg+1,w
  6907  1F20  00F1               	movwf	?___xxtofl+1
  6908  1F21  087A               	movf	___xxtofl@arg,w
  6909  1F22  00F0               	movwf	?___xxtofl
  6910  1F23                     l797:	
  6911  1F23  0008               	return
  6912  1F24                     __end_of___xxtofl:	
  6913                           
  6914                           	psect	text16
  6915  1CD4                     __ptext16:	
  6916 ;; *************** function ___fltol *****************
  6917 ;; Defined at:
  6918 ;;		line 43 in file "C:\Program Files (x86)\Microchip\xc8\v2.10\pic\sources\c90\common\fltol.c"
  6919 ;; Parameters:    Size  Location     Type
  6920 ;;  f1              4    0[BANK0 ] unsigned char 
  6921 ;; Auto vars:     Size  Location     Type
  6922 ;;  exp1            1   10[BANK0 ] unsigned char 
  6923 ;;  sign1           1    9[BANK0 ] unsigned char 
  6924 ;; Return value:  Size  Location     Type
  6925 ;;                  4    0[BANK0 ] long 
  6926 ;; Registers used:
  6927 ;;		wreg, status,2, status,0
  6928 ;; Tracked objects:
  6929 ;;		On entry : 0/0
  6930 ;;		On exit  : 0/0
  6931 ;;		Unchanged: 0/0
  6932 ;; Data sizes:     COMMON   BANK0   BANK1   BANK3   BANK2
  6933 ;;      Params:         0       4       0       0       0
  6934 ;;      Locals:         0       2       0       0       0
  6935 ;;      Temps:          0       5       0       0       0
  6936 ;;      Totals:         0      11       0       0       0
  6937 ;;Total ram usage:       11 bytes
  6938 ;; Hardware stack levels used:    1
  6939 ;; This function calls:
  6940 ;;		Nothing
  6941 ;; This function is called by:
  6942 ;;		_LCD_WRITE_NUM
  6943 ;;		_pow
  6944 ;;		_exp
  6945 ;;		_floor
  6946 ;; This function uses a non-reentrant model
  6947 ;;
  6948                           
  6949                           
  6950                           ;psect for function ___fltol
  6951  1CD4                     ___fltol:	
  6952  1CD4                     l4161:	
  6953                           ;incstack = 0
  6954                           ; Regs used in ___fltol: [wreg+status,2+status,0]
  6955                           
  6956  1CD4  1003               	clrc
  6957  1CD5  1283               	bcf	3,5	;RP0=0, select bank0
  6958  1CD6  1303               	bcf	3,6	;RP1=0, select bank0
  6959  1CD7  0D22               	rlf	___fltol@f1+2,w
  6960  1CD8  0D23               	rlf	___fltol@f1+3,w
  6961  1CD9  00A4               	movwf	??___fltol
  6962  1CDA  0824               	movf	??___fltol,w
  6963  1CDB  00AA               	movwf	___fltol@exp1
  6964  1CDC  082A               	movf	___fltol@exp1,w
  6965  1CDD  1D03               	btfss	3,2
  6966  1CDE  2CE0               	goto	u5781
  6967  1CDF  2CE1               	goto	u5780
  6968  1CE0                     u5781:	
  6969  1CE0  2CEA               	goto	l4167
  6970  1CE1                     u5780:	
  6971  1CE1                     l4163:	
  6972  1CE1  3000               	movlw	0
  6973  1CE2  00A3               	movwf	?___fltol+3
  6974  1CE3  3000               	movlw	0
  6975  1CE4  00A2               	movwf	?___fltol+2
  6976  1CE5  3000               	movlw	0
  6977  1CE6  00A1               	movwf	?___fltol+1
  6978  1CE7  3000               	movlw	0
  6979  1CE8  00A0               	movwf	?___fltol
  6980  1CE9  2D4F               	goto	l554
  6981  1CEA                     l4167:	
  6982  1CEA  0820               	movf	___fltol@f1,w
  6983  1CEB  00A4               	movwf	??___fltol
  6984  1CEC  0821               	movf	___fltol@f1+1,w
  6985  1CED  00A5               	movwf	??___fltol+1
  6986  1CEE  0822               	movf	___fltol@f1+2,w
  6987  1CEF  00A6               	movwf	??___fltol+2
  6988  1CF0  0823               	movf	___fltol@f1+3,w
  6989  1CF1  00A7               	movwf	??___fltol+3
  6990  1CF2  301F               	movlw	31
  6991  1CF3                     u5795:	
  6992  1CF3  1003               	clrc
  6993  1CF4  0CA7               	rrf	??___fltol+3,f
  6994  1CF5  0CA6               	rrf	??___fltol+2,f
  6995  1CF6  0CA5               	rrf	??___fltol+1,f
  6996  1CF7  0CA4               	rrf	??___fltol,f
  6997  1CF8                     u5790:	
  6998  1CF8  3EFF               	addlw	-1
  6999  1CF9  1D03               	skipz
  7000  1CFA  2CF3               	goto	u5795
  7001  1CFB  0824               	movf	??___fltol,w
  7002  1CFC  00A8               	movwf	??___fltol+4
  7003  1CFD  0828               	movf	??___fltol+4,w
  7004  1CFE  00A9               	movwf	___fltol@sign1
  7005  1CFF                     l4169:	
  7006  1CFF  17A2               	bsf	___fltol@f1+2,7
  7007  1D00                     l4171:	
  7008  1D00  30FF               	movlw	255
  7009  1D01  05A0               	andwf	___fltol@f1,f
  7010  1D02  30FF               	movlw	255
  7011  1D03  05A1               	andwf	___fltol@f1+1,f
  7012  1D04  30FF               	movlw	255
  7013  1D05  05A2               	andwf	___fltol@f1+2,f
  7014  1D06  3000               	movlw	0
  7015  1D07  05A3               	andwf	___fltol@f1+3,f
  7016  1D08                     l4173:	
  7017  1D08  3096               	movlw	150
  7018  1D09  02AA               	subwf	___fltol@exp1,f
  7019  1D0A                     l4175:	
  7020  1D0A  1FAA               	btfss	___fltol@exp1,7
  7021  1D0B  2D0D               	goto	u5801
  7022  1D0C  2D0E               	goto	u5800
  7023  1D0D                     u5801:	
  7024  1D0D  2D28               	goto	l4185
  7025  1D0E                     u5800:	
  7026  1D0E                     l4177:	
  7027  1D0E  082A               	movf	___fltol@exp1,w
  7028  1D0F  3A80               	xorlw	128
  7029  1D10  3E97               	addlw	151
  7030  1D11  1803               	skipnc
  7031  1D12  2D14               	goto	u5811
  7032  1D13  2D15               	goto	u5810
  7033  1D14                     u5811:	
  7034  1D14  2D16               	goto	l4183
  7035  1D15                     u5810:	
  7036  1D15  2CE1               	goto	l4163
  7037  1D16                     l4183:	
  7038  1D16  3001               	movlw	1
  7039  1D17                     u5825:	
  7040  1D17  1003               	clrc
  7041  1D18  0CA3               	rrf	___fltol@f1+3,f
  7042  1D19  0CA2               	rrf	___fltol@f1+2,f
  7043  1D1A  0CA1               	rrf	___fltol@f1+1,f
  7044  1D1B  0CA0               	rrf	___fltol@f1,f
  7045  1D1C  3EFF               	addlw	-1
  7046  1D1D  1D03               	skipz
  7047  1D1E  2D17               	goto	u5825
  7048  1D1F  3001               	movlw	1
  7049  1D20  00A4               	movwf	??___fltol
  7050  1D21  0824               	movf	??___fltol,w
  7051  1D22  07AA               	addwf	___fltol@exp1,f
  7052  1D23  1D03               	btfss	3,2
  7053  1D24  2D26               	goto	u5831
  7054  1D25  2D27               	goto	u5830
  7055  1D26                     u5831:	
  7056  1D26  2D16               	goto	l4183
  7057  1D27                     u5830:	
  7058  1D27  2D3F               	goto	l4193
  7059  1D28                     l4185:	
  7060  1D28  3020               	movlw	32
  7061  1D29  022A               	subwf	___fltol@exp1,w
  7062  1D2A  1C03               	skipc
  7063  1D2B  2D2D               	goto	u5841
  7064  1D2C  2D2E               	goto	u5840
  7065  1D2D                     u5841:	
  7066  1D2D  2D3A               	goto	l561
  7067  1D2E                     u5840:	
  7068  1D2E  2CE1               	goto	l4163
  7069  1D2F                     l4191:	
  7070  1D2F  3001               	movlw	1
  7071  1D30  00A4               	movwf	??___fltol
  7072  1D31                     u5855:	
  7073  1D31  1003               	clrc
  7074  1D32  0DA0               	rlf	___fltol@f1,f
  7075  1D33  0DA1               	rlf	___fltol@f1+1,f
  7076  1D34  0DA2               	rlf	___fltol@f1+2,f
  7077  1D35  0DA3               	rlf	___fltol@f1+3,f
  7078  1D36  0BA4               	decfsz	??___fltol,f
  7079  1D37  2D31               	goto	u5855
  7080  1D38  3001               	movlw	1
  7081  1D39  02AA               	subwf	___fltol@exp1,f
  7082  1D3A                     l561:	
  7083  1D3A  082A               	movf	___fltol@exp1,w
  7084  1D3B  1D03               	btfss	3,2
  7085  1D3C  2D3E               	goto	u5861
  7086  1D3D  2D3F               	goto	u5860
  7087  1D3E                     u5861:	
  7088  1D3E  2D2F               	goto	l4191
  7089  1D3F                     u5860:	
  7090  1D3F                     l4193:	
  7091  1D3F  0829               	movf	___fltol@sign1,w
  7092  1D40  1903               	btfsc	3,2
  7093  1D41  2D43               	goto	u5871
  7094  1D42  2D44               	goto	u5870
  7095  1D43                     u5871:	
  7096  1D43  2D4F               	goto	l564
  7097  1D44                     u5870:	
  7098  1D44                     l4195:	
  7099  1D44  09A0               	comf	___fltol@f1,f
  7100  1D45  09A1               	comf	___fltol@f1+1,f
  7101  1D46  09A2               	comf	___fltol@f1+2,f
  7102  1D47  09A3               	comf	___fltol@f1+3,f
  7103  1D48  0AA0               	incf	___fltol@f1,f
  7104  1D49  1903               	skipnz
  7105  1D4A  0AA1               	incf	___fltol@f1+1,f
  7106  1D4B  1903               	skipnz
  7107  1D4C  0AA2               	incf	___fltol@f1+2,f
  7108  1D4D  1903               	skipnz
  7109  1D4E  0AA3               	incf	___fltol@f1+3,f
  7110  1D4F                     l564:	
  7111  1D4F                     l554:	
  7112  1D4F  0008               	return
  7113  1D50                     __end_of___fltol:	
  7114                           
  7115                           	psect	text17
  7116  0010                     __ptext17:	
  7117 ;; *************** function ___flge *****************
  7118 ;; Defined at:
  7119 ;;		line 4 in file "C:\Program Files (x86)\Microchip\xc8\v2.10\pic\sources\c90\common\flge.c"
  7120 ;; Parameters:    Size  Location     Type
  7121 ;;  ff1             4    0[COMMON] long 
  7122 ;;  ff2             4    4[COMMON] long 
  7123 ;; Auto vars:     Size  Location     Type
  7124 ;;		None
  7125 ;; Return value:  Size  Location     Type
  7126 ;;		None               void
  7127 ;; Registers used:
  7128 ;;		wreg, status,2, status,0
  7129 ;; Tracked objects:
  7130 ;;		On entry : 0/0
  7131 ;;		On exit  : 0/0
  7132 ;;		Unchanged: 0/0
  7133 ;; Data sizes:     COMMON   BANK0   BANK1   BANK3   BANK2
  7134 ;;      Params:         8       0       0       0       0
  7135 ;;      Locals:         0       0       0       0       0
  7136 ;;      Temps:          4       0       0       0       0
  7137 ;;      Totals:        12       0       0       0       0
  7138 ;;Total ram usage:       12 bytes
  7139 ;; Hardware stack levels used:    1
  7140 ;; This function calls:
  7141 ;;		Nothing
  7142 ;; This function is called by:
  7143 ;;		_pow
  7144 ;;		_exp
  7145 ;;		_floor
  7146 ;;		_ldexp
  7147 ;;		_log
  7148 ;; This function uses a non-reentrant model
  7149 ;;
  7150                           
  7151                           
  7152                           ;psect for function ___flge
  7153  0010                     ___flge:	
  7154  0010                     l4141:	
  7155                           ;incstack = 0
  7156                           ; Regs used in ___flge: [wreg+status,2+status,0]
  7157                           
  7158  0010  3000               	movlw	0
  7159  0011  0570               	andwf	___flge@ff1,w
  7160  0012  00F8               	movwf	??___flge
  7161  0013  3000               	movlw	0
  7162  0014  0571               	andwf	___flge@ff1+1,w
  7163  0015  00F9               	movwf	??___flge+1
  7164  0016  3080               	movlw	128
  7165  0017  0572               	andwf	___flge@ff1+2,w
  7166  0018  00FA               	movwf	??___flge+2
  7167  0019  307F               	movlw	127
  7168  001A  0573               	andwf	___flge@ff1+3,w
  7169  001B  00FB               	movwf	??___flge+3
  7170  001C  087B               	movf	??___flge+3,w
  7171  001D  047A               	iorwf	??___flge+2,w
  7172  001E  0479               	iorwf	??___flge+1,w
  7173  001F  0478               	iorwf	??___flge,w
  7174  0020  1D03               	skipz
  7175  0021  2823               	goto	u5711
  7176  0022  2824               	goto	u5710
  7177  0023                     u5711:	
  7178  0023  282C               	goto	l542
  7179  0024                     u5710:	
  7180  0024                     l4143:	
  7181  0024  3000               	movlw	0
  7182  0025  00F3               	movwf	___flge@ff1+3
  7183  0026  3000               	movlw	0
  7184  0027  00F2               	movwf	___flge@ff1+2
  7185  0028  3000               	movlw	0
  7186  0029  00F1               	movwf	___flge@ff1+1
  7187  002A  3000               	movlw	0
  7188  002B  00F0               	movwf	___flge@ff1
  7189  002C                     l542:	
  7190  002C  3000               	movlw	0
  7191  002D  0574               	andwf	___flge@ff2,w
  7192  002E  00F8               	movwf	??___flge
  7193  002F  3000               	movlw	0
  7194  0030  0575               	andwf	___flge@ff2+1,w
  7195  0031  00F9               	movwf	??___flge+1
  7196  0032  3080               	movlw	128
  7197  0033  0576               	andwf	___flge@ff2+2,w
  7198  0034  00FA               	movwf	??___flge+2
  7199  0035  307F               	movlw	127
  7200  0036  0577               	andwf	___flge@ff2+3,w
  7201  0037  00FB               	movwf	??___flge+3
  7202  0038  087B               	movf	??___flge+3,w
  7203  0039  047A               	iorwf	??___flge+2,w
  7204  003A  0479               	iorwf	??___flge+1,w
  7205  003B  0478               	iorwf	??___flge,w
  7206  003C  1D03               	skipz
  7207  003D  283F               	goto	u5721
  7208  003E  2840               	goto	u5720
  7209  003F                     u5721:	
  7210  003F  2848               	goto	l4147
  7211  0040                     u5720:	
  7212  0040                     l4145:	
  7213  0040  3000               	movlw	0
  7214  0041  00F7               	movwf	___flge@ff2+3
  7215  0042  3000               	movlw	0
  7216  0043  00F6               	movwf	___flge@ff2+2
  7217  0044  3000               	movlw	0
  7218  0045  00F5               	movwf	___flge@ff2+1
  7219  0046  3000               	movlw	0
  7220  0047  00F4               	movwf	___flge@ff2
  7221  0048                     l4147:	
  7222  0048  1FF3               	btfss	___flge@ff1+3,7
  7223  0049  284B               	goto	u5731
  7224  004A  284C               	goto	u5730
  7225  004B                     u5731:	
  7226  004B  2870               	goto	l4151
  7227  004C                     u5730:	
  7228  004C                     l4149:	
  7229  004C  3000               	movlw	0
  7230  004D  00F8               	movwf	??___flge
  7231  004E  3000               	movlw	0
  7232  004F  00F9               	movwf	??___flge+1
  7233  0050  3000               	movlw	0
  7234  0051  00FA               	movwf	??___flge+2
  7235  0052  3080               	movlw	128
  7236  0053  00FB               	movwf	??___flge+3
  7237  0054  0870               	movf	___flge@ff1,w
  7238  0055  02F8               	subwf	??___flge,f
  7239  0056  0871               	movf	___flge@ff1+1,w
  7240  0057  1C03               	skipc
  7241  0058  0F71               	incfsz	___flge@ff1+1,w
  7242  0059  285B               	goto	u5741
  7243  005A  285C               	goto	u5742
  7244  005B                     u5741:	
  7245  005B  02F9               	subwf	??___flge+1,f
  7246  005C                     u5742:	
  7247  005C  0872               	movf	___flge@ff1+2,w
  7248  005D  1C03               	skipc
  7249  005E  0F72               	incfsz	___flge@ff1+2,w
  7250  005F  2861               	goto	u5743
  7251  0060  2862               	goto	u5744
  7252  0061                     u5743:	
  7253  0061  02FA               	subwf	??___flge+2,f
  7254  0062                     u5744:	
  7255  0062  0873               	movf	___flge@ff1+3,w
  7256  0063  1C03               	skipc
  7257  0064  0F73               	incfsz	___flge@ff1+3,w
  7258  0065  2867               	goto	u5745
  7259  0066  2868               	goto	u5746
  7260  0067                     u5745:	
  7261  0067  02FB               	subwf	??___flge+3,f
  7262  0068                     u5746:	
  7263  0068  087B               	movf	??___flge+3,w
  7264  0069  00F3               	movwf	___flge@ff1+3
  7265  006A  087A               	movf	??___flge+2,w
  7266  006B  00F2               	movwf	___flge@ff1+2
  7267  006C  0879               	movf	??___flge+1,w
  7268  006D  00F1               	movwf	___flge@ff1+1
  7269  006E  0878               	movf	??___flge,w
  7270  006F  00F0               	movwf	___flge@ff1
  7271  0070                     l4151:	
  7272  0070  1FF7               	btfss	___flge@ff2+3,7
  7273  0071  2873               	goto	u5751
  7274  0072  2874               	goto	u5750
  7275  0073                     u5751:	
  7276  0073  2898               	goto	l545
  7277  0074                     u5750:	
  7278  0074                     l4153:	
  7279  0074  3000               	movlw	0
  7280  0075  00F8               	movwf	??___flge
  7281  0076  3000               	movlw	0
  7282  0077  00F9               	movwf	??___flge+1
  7283  0078  3000               	movlw	0
  7284  0079  00FA               	movwf	??___flge+2
  7285  007A  3080               	movlw	128
  7286  007B  00FB               	movwf	??___flge+3
  7287  007C  0874               	movf	___flge@ff2,w
  7288  007D  02F8               	subwf	??___flge,f
  7289  007E  0875               	movf	___flge@ff2+1,w
  7290  007F  1C03               	skipc
  7291  0080  0F75               	incfsz	___flge@ff2+1,w
  7292  0081  2883               	goto	u5761
  7293  0082  2884               	goto	u5762
  7294  0083                     u5761:	
  7295  0083  02F9               	subwf	??___flge+1,f
  7296  0084                     u5762:	
  7297  0084  0876               	movf	___flge@ff2+2,w
  7298  0085  1C03               	skipc
  7299  0086  0F76               	incfsz	___flge@ff2+2,w
  7300  0087  2889               	goto	u5763
  7301  0088  288A               	goto	u5764
  7302  0089                     u5763:	
  7303  0089  02FA               	subwf	??___flge+2,f
  7304  008A                     u5764:	
  7305  008A  0877               	movf	___flge@ff2+3,w
  7306  008B  1C03               	skipc
  7307  008C  0F77               	incfsz	___flge@ff2+3,w
  7308  008D  288F               	goto	u5765
  7309  008E  2890               	goto	u5766
  7310  008F                     u5765:	
  7311  008F  02FB               	subwf	??___flge+3,f
  7312  0090                     u5766:	
  7313  0090  087B               	movf	??___flge+3,w
  7314  0091  00F7               	movwf	___flge@ff2+3
  7315  0092  087A               	movf	??___flge+2,w
  7316  0093  00F6               	movwf	___flge@ff2+2
  7317  0094  0879               	movf	??___flge+1,w
  7318  0095  00F5               	movwf	___flge@ff2+1
  7319  0096  0878               	movf	??___flge,w
  7320  0097  00F4               	movwf	___flge@ff2
  7321  0098                     l545:	
  7322  0098  3080               	movlw	128
  7323  0099  06F3               	xorwf	___flge@ff1+3,f
  7324  009A  3080               	movlw	128
  7325  009B  06F7               	xorwf	___flge@ff2+3,f
  7326  009C  0877               	movf	___flge@ff2+3,w
  7327  009D  0273               	subwf	___flge@ff1+3,w
  7328  009E  1D03               	skipz
  7329  009F  28AA               	goto	u5775
  7330  00A0  0876               	movf	___flge@ff2+2,w
  7331  00A1  0272               	subwf	___flge@ff1+2,w
  7332  00A2  1D03               	skipz
  7333  00A3  28AA               	goto	u5775
  7334  00A4  0875               	movf	___flge@ff2+1,w
  7335  00A5  0271               	subwf	___flge@ff1+1,w
  7336  00A6  1D03               	skipz
  7337  00A7  28AA               	goto	u5775
  7338  00A8  0874               	movf	___flge@ff2,w
  7339  00A9  0270               	subwf	___flge@ff1,w
  7340  00AA                     u5775:	
  7341  00AA  1803               	skipnc
  7342  00AB  28AD               	goto	u5771
  7343  00AC  28AE               	goto	u5770
  7344  00AD                     u5771:	
  7345  00AD  28B0               	goto	l4157
  7346  00AE                     u5770:	
  7347  00AE                     l4155:	
  7348  00AE  1003               	clrc
  7349  00AF  28B1               	goto	l546
  7350  00B0                     l4157:	
  7351  00B0  1403               	setc
  7352  00B1                     l546:	
  7353  00B1  0008               	return
  7354  00B2                     __end_of___flge:	
  7355                           
  7356                           	psect	text18
  7357  1F24                     __ptext18:	
  7358 ;; *************** function _eval_poly *****************
  7359 ;; Defined at:
  7360 ;;		line 4 in file "C:\Program Files (x86)\Microchip\xc8\v2.10\pic\sources\c90\common\evalpoly.c"
  7361 ;; Parameters:    Size  Location     Type
  7362 ;;  x               4   65[BANK0 ] long 
  7363 ;;  d               1   69[BANK0 ] PTR const 
  7364 ;;		 -> log@coeff(36), exp@coeff(40), 
  7365 ;;  n               2   70[BANK0 ] int 
  7366 ;; Auto vars:     Size  Location     Type
  7367 ;;  res             4    0[BANK1 ] int 
  7368 ;; Return value:  Size  Location     Type
  7369 ;;                  4   65[BANK0 ] int 
  7370 ;; Registers used:
  7371 ;;		wreg, fsr0l, fsr0h, status,2, status,0, btemp+1, pclath, cstack
  7372 ;; Tracked objects:
  7373 ;;		On entry : 0/0
  7374 ;;		On exit  : 0/0
  7375 ;;		Unchanged: 0/0
  7376 ;; Data sizes:     COMMON   BANK0   BANK1   BANK3   BANK2
  7377 ;;      Params:         0       7       0       0       0
  7378 ;;      Locals:         0       0       4       0       0
  7379 ;;      Temps:          0       5       0       0       0
  7380 ;;      Totals:         0      12       4       0       0
  7381 ;;Total ram usage:       16 bytes
  7382 ;; Hardware stack levels used:    1
  7383 ;; Hardware stack levels required when called:    2
  7384 ;; This function calls:
  7385 ;;		___fladd
  7386 ;;		___flmul
  7387 ;; This function is called by:
  7388 ;;		_exp
  7389 ;;		_log
  7390 ;; This function uses a non-reentrant model
  7391 ;;
  7392                           
  7393                           
  7394                           ;psect for function _eval_poly
  7395  1F24                     _eval_poly:	
  7396  1F24                     l4779:	
  7397                           ;incstack = 0
  7398                           ; Regs used in _eval_poly: [wreg-fsr0h+status,2+status,0+btemp+1+pclath+cstack]
  7399                           
  7400  1F24  1283               	bcf	3,5	;RP0=0, select bank0
  7401  1F25  1303               	bcf	3,6	;RP1=0, select bank0
  7402  1F26  0866               	movf	eval_poly@n,w
  7403  1F27  00E8               	movwf	??_eval_poly
  7404  1F28  3001               	movlw	1
  7405  1F29                     u7215:	
  7406  1F29  1003               	clrc
  7407  1F2A  0DE8               	rlf	??_eval_poly,f
  7408  1F2B  3EFF               	addlw	-1
  7409  1F2C  1D03               	skipz
  7410  1F2D  2F29               	goto	u7215
  7411  1F2E  1003               	clrc
  7412  1F2F  0D68               	rlf	??_eval_poly,w
  7413  1F30  0765               	addwf	eval_poly@d,w
  7414  1F31  0084               	movwf	4
  7415  1F32  160A  158A  2000  160A  158A  	fcall	stringdir
  7416  1F37  00E9               	movwf	??_eval_poly+1
  7417  1F38  160A  158A  2000  160A  158A  	fcall	stringdir
  7418  1F3D  00EA               	movwf	??_eval_poly+2
  7419  1F3E  160A  158A  2000  160A  158A  	fcall	stringdir
  7420  1F43  00EB               	movwf	??_eval_poly+3
  7421  1F44  160A  158A  2000  160A  158A  	fcall	stringdir
  7422  1F49  00EC               	movwf	??_eval_poly+4
  7423  1F4A  086C               	movf	??_eval_poly+4,w
  7424  1F4B  1683               	bsf	3,5	;RP0=1, select bank1
  7425  1F4C  1303               	bcf	3,6	;RP1=0, select bank1
  7426  1F4D  00A3               	movwf	(eval_poly@res+3)^(0+128)
  7427  1F4E  1283               	bcf	3,5	;RP0=0, select bank0
  7428  1F4F  1303               	bcf	3,6	;RP1=0, select bank0
  7429  1F50  086B               	movf	??_eval_poly+3,w
  7430  1F51  1683               	bsf	3,5	;RP0=1, select bank1
  7431  1F52  1303               	bcf	3,6	;RP1=0, select bank1
  7432  1F53  00A2               	movwf	(eval_poly@res+2)^(0+128)
  7433  1F54  1283               	bcf	3,5	;RP0=0, select bank0
  7434  1F55  1303               	bcf	3,6	;RP1=0, select bank0
  7435  1F56  086A               	movf	??_eval_poly+2,w
  7436  1F57  1683               	bsf	3,5	;RP0=1, select bank1
  7437  1F58  1303               	bcf	3,6	;RP1=0, select bank1
  7438  1F59  00A1               	movwf	(eval_poly@res+1)^(0+128)
  7439  1F5A  1283               	bcf	3,5	;RP0=0, select bank0
  7440  1F5B  1303               	bcf	3,6	;RP1=0, select bank0
  7441  1F5C  0869               	movf	??_eval_poly+1,w
  7442  1F5D  1683               	bsf	3,5	;RP0=1, select bank1
  7443  1F5E  1303               	bcf	3,6	;RP1=0, select bank1
  7444  1F5F  00A0               	movwf	eval_poly@res^(0+128)
  7445  1F60  2FDF               	goto	l4783
  7446  1F61                     l4781:	
  7447  1F61  30FF               	movlw	255
  7448  1F62  07E6               	addwf	eval_poly@n,f
  7449  1F63  1803               	skipnc
  7450  1F64  0AE7               	incf	eval_poly@n+1,f
  7451  1F65  30FF               	movlw	255
  7452  1F66  07E7               	addwf	eval_poly@n+1,f
  7453  1F67  0866               	movf	eval_poly@n,w
  7454  1F68  00E8               	movwf	??_eval_poly
  7455  1F69  3001               	movlw	1
  7456  1F6A                     u7225:	
  7457  1F6A  1003               	clrc
  7458  1F6B  0DE8               	rlf	??_eval_poly,f
  7459  1F6C  3EFF               	addlw	-1
  7460  1F6D  1D03               	skipz
  7461  1F6E  2F6A               	goto	u7225
  7462  1F6F  1003               	clrc
  7463  1F70  0D68               	rlf	??_eval_poly,w
  7464  1F71  0765               	addwf	eval_poly@d,w
  7465  1F72  0084               	movwf	4
  7466  1F73  160A  158A  2000  160A  158A  	fcall	stringdir
  7467  1F78  00E9               	movwf	??_eval_poly+1
  7468  1F79  160A  158A  2000  160A  158A  	fcall	stringdir
  7469  1F7E  00EA               	movwf	??_eval_poly+2
  7470  1F7F  160A  158A  2000  160A  158A  	fcall	stringdir
  7471  1F84  00EB               	movwf	??_eval_poly+3
  7472  1F85  160A  158A  2000  160A  158A  	fcall	stringdir
  7473  1F8A  00EC               	movwf	??_eval_poly+4
  7474  1F8B  086C               	movf	??_eval_poly+4,w
  7475  1F8C  00D0               	movwf	___fladd@b+3
  7476  1F8D  086B               	movf	??_eval_poly+3,w
  7477  1F8E  00CF               	movwf	___fladd@b+2
  7478  1F8F  086A               	movf	??_eval_poly+2,w
  7479  1F90  00CE               	movwf	___fladd@b+1
  7480  1F91  0869               	movf	??_eval_poly+1,w
  7481  1F92  00CD               	movwf	___fladd@b
  7482  1F93  1683               	bsf	3,5	;RP0=1, select bank1
  7483  1F94  1303               	bcf	3,6	;RP1=0, select bank1
  7484  1F95  0823               	movf	(eval_poly@res+3)^(0+128),w
  7485  1F96  1283               	bcf	3,5	;RP0=0, select bank0
  7486  1F97  1303               	bcf	3,6	;RP1=0, select bank0
  7487  1F98  00B6               	movwf	___flmul@b+3
  7488  1F99  1683               	bsf	3,5	;RP0=1, select bank1
  7489  1F9A  1303               	bcf	3,6	;RP1=0, select bank1
  7490  1F9B  0822               	movf	(eval_poly@res+2)^(0+128),w
  7491  1F9C  1283               	bcf	3,5	;RP0=0, select bank0
  7492  1F9D  1303               	bcf	3,6	;RP1=0, select bank0
  7493  1F9E  00B5               	movwf	___flmul@b+2
  7494  1F9F  1683               	bsf	3,5	;RP0=1, select bank1
  7495  1FA0  1303               	bcf	3,6	;RP1=0, select bank1
  7496  1FA1  0821               	movf	(eval_poly@res+1)^(0+128),w
  7497  1FA2  1283               	bcf	3,5	;RP0=0, select bank0
  7498  1FA3  1303               	bcf	3,6	;RP1=0, select bank0
  7499  1FA4  00B4               	movwf	___flmul@b+1
  7500  1FA5  1683               	bsf	3,5	;RP0=1, select bank1
  7501  1FA6  1303               	bcf	3,6	;RP1=0, select bank1
  7502  1FA7  0820               	movf	eval_poly@res^(0+128),w
  7503  1FA8  1283               	bcf	3,5	;RP0=0, select bank0
  7504  1FA9  1303               	bcf	3,6	;RP1=0, select bank0
  7505  1FAA  00B3               	movwf	___flmul@b
  7506  1FAB  0864               	movf	eval_poly@x+3,w
  7507  1FAC  00BA               	movwf	___flmul@a+3
  7508  1FAD  0863               	movf	eval_poly@x+2,w
  7509  1FAE  00B9               	movwf	___flmul@a+2
  7510  1FAF  0862               	movf	eval_poly@x+1,w
  7511  1FB0  00B8               	movwf	___flmul@a+1
  7512  1FB1  0861               	movf	eval_poly@x,w
  7513  1FB2  00B7               	movwf	___flmul@a
  7514  1FB3  120A  118A  20B2  160A  158A  	fcall	___flmul
  7515  1FB8  1283               	bcf	3,5	;RP0=0, select bank0
  7516  1FB9  1303               	bcf	3,6	;RP1=0, select bank0
  7517  1FBA  0836               	movf	?___flmul+3,w
  7518  1FBB  00D4               	movwf	___fladd@a+3
  7519  1FBC  0835               	movf	?___flmul+2,w
  7520  1FBD  00D3               	movwf	___fladd@a+2
  7521  1FBE  0834               	movf	?___flmul+1,w
  7522  1FBF  00D2               	movwf	___fladd@a+1
  7523  1FC0  0833               	movf	?___flmul,w
  7524  1FC1  00D1               	movwf	___fladd@a
  7525  1FC2  120A  158A  2578  160A  158A  	fcall	___fladd
  7526  1FC7  1283               	bcf	3,5	;RP0=0, select bank0
  7527  1FC8  1303               	bcf	3,6	;RP1=0, select bank0
  7528  1FC9  0850               	movf	?___fladd+3,w
  7529  1FCA  1683               	bsf	3,5	;RP0=1, select bank1
  7530  1FCB  1303               	bcf	3,6	;RP1=0, select bank1
  7531  1FCC  00A3               	movwf	(eval_poly@res+3)^(0+128)
  7532  1FCD  1283               	bcf	3,5	;RP0=0, select bank0
  7533  1FCE  1303               	bcf	3,6	;RP1=0, select bank0
  7534  1FCF  084F               	movf	?___fladd+2,w
  7535  1FD0  1683               	bsf	3,5	;RP0=1, select bank1
  7536  1FD1  1303               	bcf	3,6	;RP1=0, select bank1
  7537  1FD2  00A2               	movwf	(eval_poly@res+2)^(0+128)
  7538  1FD3  1283               	bcf	3,5	;RP0=0, select bank0
  7539  1FD4  1303               	bcf	3,6	;RP1=0, select bank0
  7540  1FD5  084E               	movf	?___fladd+1,w
  7541  1FD6  1683               	bsf	3,5	;RP0=1, select bank1
  7542  1FD7  1303               	bcf	3,6	;RP1=0, select bank1
  7543  1FD8  00A1               	movwf	(eval_poly@res+1)^(0+128)
  7544  1FD9  1283               	bcf	3,5	;RP0=0, select bank0
  7545  1FDA  1303               	bcf	3,6	;RP1=0, select bank0
  7546  1FDB  084D               	movf	?___fladd,w
  7547  1FDC  1683               	bsf	3,5	;RP0=1, select bank1
  7548  1FDD  1303               	bcf	3,6	;RP1=0, select bank1
  7549  1FDE  00A0               	movwf	eval_poly@res^(0+128)
  7550  1FDF                     l4783:	
  7551  1FDF  1283               	bcf	3,5	;RP0=0, select bank0
  7552  1FE0  1303               	bcf	3,6	;RP1=0, select bank0
  7553  1FE1  0866               	movf	eval_poly@n,w
  7554  1FE2  0467               	iorwf	eval_poly@n+1,w
  7555  1FE3  1D03               	btfss	3,2
  7556  1FE4  2FE6               	goto	u7231
  7557  1FE5  2FE7               	goto	u7230
  7558  1FE6                     u7231:	
  7559  1FE6  2F61               	goto	l4781
  7560  1FE7                     u7230:	
  7561  1FE7                     l4785:	
  7562  1FE7  1683               	bsf	3,5	;RP0=1, select bank1
  7563  1FE8  1303               	bcf	3,6	;RP1=0, select bank1
  7564  1FE9  0823               	movf	(eval_poly@res+3)^(0+128),w
  7565  1FEA  1283               	bcf	3,5	;RP0=0, select bank0
  7566  1FEB  1303               	bcf	3,6	;RP1=0, select bank0
  7567  1FEC  00E4               	movwf	?_eval_poly+3
  7568  1FED  1683               	bsf	3,5	;RP0=1, select bank1
  7569  1FEE  1303               	bcf	3,6	;RP1=0, select bank1
  7570  1FEF  0822               	movf	(eval_poly@res+2)^(0+128),w
  7571  1FF0  1283               	bcf	3,5	;RP0=0, select bank0
  7572  1FF1  1303               	bcf	3,6	;RP1=0, select bank0
  7573  1FF2  00E3               	movwf	?_eval_poly+2
  7574  1FF3  1683               	bsf	3,5	;RP0=1, select bank1
  7575  1FF4  1303               	bcf	3,6	;RP1=0, select bank1
  7576  1FF5  0821               	movf	(eval_poly@res+1)^(0+128),w
  7577  1FF6  1283               	bcf	3,5	;RP0=0, select bank0
  7578  1FF7  1303               	bcf	3,6	;RP1=0, select bank0
  7579  1FF8  00E2               	movwf	?_eval_poly+1
  7580  1FF9  1683               	bsf	3,5	;RP0=1, select bank1
  7581  1FFA  1303               	bcf	3,6	;RP1=0, select bank1
  7582  1FFB  0820               	movf	eval_poly@res^(0+128),w
  7583  1FFC  1283               	bcf	3,5	;RP0=0, select bank0
  7584  1FFD  1303               	bcf	3,6	;RP1=0, select bank0
  7585  1FFE  00E1               	movwf	?_eval_poly
  7586  1FFF                     l899:	
  7587  1FFF  0008               	return
  7588  2000                     __end_of_eval_poly:	
  7589                           
  7590                           	psect	text19
  7591  00B2                     __ptext19:	
  7592 ;; *************** function ___flmul *****************
  7593 ;; Defined at:
  7594 ;;		line 8 in file "C:\Program Files (x86)\Microchip\xc8\v2.10\pic\sources\c90\common\sprcmul.c"
  7595 ;; Parameters:    Size  Location     Type
  7596 ;;  b               4   19[BANK0 ] int 
  7597 ;;  a               4   23[BANK0 ] int 
  7598 ;; Auto vars:     Size  Location     Type
  7599 ;;  prod            4   39[BANK0 ] struct .
  7600 ;;  grs             4   34[BANK0 ] unsigned long 
  7601 ;;  temp            2   43[BANK0 ] struct .
  7602 ;;  bexp            1   38[BANK0 ] unsigned char 
  7603 ;;  aexp            1   33[BANK0 ] unsigned char 
  7604 ;;  sign            1   32[BANK0 ] unsigned char 
  7605 ;; Return value:  Size  Location     Type
  7606 ;;                  4   19[BANK0 ] unsigned char 
  7607 ;; Registers used:
  7608 ;;		wreg, status,2, status,0, btemp+1, pclath, cstack
  7609 ;; Tracked objects:
  7610 ;;		On entry : 0/0
  7611 ;;		On exit  : 0/0
  7612 ;;		Unchanged: 0/0
  7613 ;; Data sizes:     COMMON   BANK0   BANK1   BANK3   BANK2
  7614 ;;      Params:         0       8       0       0       0
  7615 ;;      Locals:         0      13       0       0       0
  7616 ;;      Temps:          0       5       0       0       0
  7617 ;;      Totals:         0      26       0       0       0
  7618 ;;Total ram usage:       26 bytes
  7619 ;; Hardware stack levels used:    1
  7620 ;; Hardware stack levels required when called:    1
  7621 ;; This function calls:
  7622 ;;		__Umul8_16
  7623 ;; This function is called by:
  7624 ;;		_pow
  7625 ;;		_exp
  7626 ;;		_log
  7627 ;;		_eval_poly
  7628 ;; This function uses a non-reentrant model
  7629 ;;
  7630                           
  7631                           
  7632                           ;psect for function ___flmul
  7633  00B2                     ___flmul:	
  7634  00B2                     l4391:	
  7635                           ;incstack = 0
  7636                           ; Regs used in ___flmul: [wreg+status,2+status,0+btemp+1+pclath+cstack]
  7637                           
  7638  00B2  1283               	bcf	3,5	;RP0=0, select bank0
  7639  00B3  1303               	bcf	3,6	;RP1=0, select bank0
  7640  00B4  0836               	movf	___flmul@b+3,w
  7641  00B5  3980               	andlw	128
  7642  00B6  00BB               	movwf	??___flmul
  7643  00B7  083B               	movf	??___flmul,w
  7644  00B8  00C0               	movwf	___flmul@sign
  7645  00B9                     l4393:	
  7646  00B9  0836               	movf	___flmul@b+3,w
  7647  00BA  00BB               	movwf	??___flmul
  7648  00BB  073B               	addwf	??___flmul,w
  7649  00BC  00BC               	movwf	??___flmul+1
  7650  00BD  083C               	movf	??___flmul+1,w
  7651  00BE  00C6               	movwf	___flmul@bexp
  7652  00BF                     l4395:	
  7653  00BF  1FB5               	btfss	___flmul@b+2,7
  7654  00C0  28C2               	goto	u6341
  7655  00C1  28C3               	goto	u6340
  7656  00C2                     u6341:	
  7657  00C2  28C4               	goto	l4399
  7658  00C3                     u6340:	
  7659  00C3                     l4397:	
  7660  00C3  1446               	bsf	___flmul@bexp,0
  7661  00C4                     l4399:	
  7662  00C4  0846               	movf	___flmul@bexp,w
  7663  00C5  1903               	btfsc	3,2
  7664  00C6  28C8               	goto	u6351
  7665  00C7  28C9               	goto	u6350
  7666  00C8                     u6351:	
  7667  00C8  28D8               	goto	l4407
  7668  00C9                     u6350:	
  7669  00C9                     l4401:	
  7670  00C9  0A46               	incf	___flmul@bexp,w
  7671  00CA  1D03               	btfss	3,2
  7672  00CB  28CD               	goto	u6361
  7673  00CC  28CE               	goto	u6360
  7674  00CD                     u6361:	
  7675  00CD  28D6               	goto	l4405
  7676  00CE                     u6360:	
  7677  00CE                     l4403:	
  7678  00CE  3000               	movlw	0
  7679  00CF  00B6               	movwf	___flmul@b+3
  7680  00D0  3000               	movlw	0
  7681  00D1  00B5               	movwf	___flmul@b+2
  7682  00D2  3000               	movlw	0
  7683  00D3  00B4               	movwf	___flmul@b+1
  7684  00D4  3000               	movlw	0
  7685  00D5  00B3               	movwf	___flmul@b
  7686  00D6                     l4405:	
  7687  00D6  17B5               	bsf	___flmul@b+2,7
  7688  00D7  28E0               	goto	l4409
  7689  00D8                     l4407:	
  7690  00D8  3000               	movlw	0
  7691  00D9  00B6               	movwf	___flmul@b+3
  7692  00DA  3000               	movlw	0
  7693  00DB  00B5               	movwf	___flmul@b+2
  7694  00DC  3000               	movlw	0
  7695  00DD  00B4               	movwf	___flmul@b+1
  7696  00DE  3000               	movlw	0
  7697  00DF  00B3               	movwf	___flmul@b
  7698  00E0                     l4409:	
  7699  00E0  083A               	movf	___flmul@a+3,w
  7700  00E1  3980               	andlw	128
  7701  00E2  00BB               	movwf	??___flmul
  7702  00E3  083B               	movf	??___flmul,w
  7703  00E4  06C0               	xorwf	___flmul@sign,f
  7704  00E5                     l4411:	
  7705  00E5  083A               	movf	___flmul@a+3,w
  7706  00E6  00BB               	movwf	??___flmul
  7707  00E7  073B               	addwf	??___flmul,w
  7708  00E8  00BC               	movwf	??___flmul+1
  7709  00E9  083C               	movf	??___flmul+1,w
  7710  00EA  00C1               	movwf	___flmul@aexp
  7711  00EB                     l4413:	
  7712  00EB  1FB9               	btfss	___flmul@a+2,7
  7713  00EC  28EE               	goto	u6371
  7714  00ED  28EF               	goto	u6370
  7715  00EE                     u6371:	
  7716  00EE  28F0               	goto	l4417
  7717  00EF                     u6370:	
  7718  00EF                     l4415:	
  7719  00EF  1441               	bsf	___flmul@aexp,0
  7720  00F0                     l4417:	
  7721  00F0  0841               	movf	___flmul@aexp,w
  7722  00F1  1903               	btfsc	3,2
  7723  00F2  28F4               	goto	u6381
  7724  00F3  28F5               	goto	u6380
  7725  00F4                     u6381:	
  7726  00F4  2904               	goto	l4425
  7727  00F5                     u6380:	
  7728  00F5                     l4419:	
  7729  00F5  0A41               	incf	___flmul@aexp,w
  7730  00F6  1D03               	btfss	3,2
  7731  00F7  28F9               	goto	u6391
  7732  00F8  28FA               	goto	u6390
  7733  00F9                     u6391:	
  7734  00F9  2902               	goto	l4423
  7735  00FA                     u6390:	
  7736  00FA                     l4421:	
  7737  00FA  3000               	movlw	0
  7738  00FB  00BA               	movwf	___flmul@a+3
  7739  00FC  3000               	movlw	0
  7740  00FD  00B9               	movwf	___flmul@a+2
  7741  00FE  3000               	movlw	0
  7742  00FF  00B8               	movwf	___flmul@a+1
  7743  0100  3000               	movlw	0
  7744  0101  00B7               	movwf	___flmul@a
  7745  0102                     l4423:	
  7746  0102  17B9               	bsf	___flmul@a+2,7
  7747  0103  290C               	goto	l4427
  7748  0104                     l4425:	
  7749  0104  3000               	movlw	0
  7750  0105  00BA               	movwf	___flmul@a+3
  7751  0106  3000               	movlw	0
  7752  0107  00B9               	movwf	___flmul@a+2
  7753  0108  3000               	movlw	0
  7754  0109  00B8               	movwf	___flmul@a+1
  7755  010A  3000               	movlw	0
  7756  010B  00B7               	movwf	___flmul@a
  7757  010C                     l4427:	
  7758  010C  0841               	movf	___flmul@aexp,w
  7759  010D  1903               	btfsc	3,2
  7760  010E  2910               	goto	u6401
  7761  010F  2911               	goto	u6400
  7762  0110                     u6401:	
  7763  0110  2916               	goto	l4431
  7764  0111                     u6400:	
  7765  0111                     l4429:	
  7766  0111  0846               	movf	___flmul@bexp,w
  7767  0112  1D03               	btfss	3,2
  7768  0113  2915               	goto	u6411
  7769  0114  2916               	goto	u6410
  7770  0115                     u6411:	
  7771  0115  291F               	goto	l4435
  7772  0116                     u6410:	
  7773  0116                     l4431:	
  7774  0116  3000               	movlw	0
  7775  0117  00B6               	movwf	?___flmul+3
  7776  0118  3000               	movlw	0
  7777  0119  00B5               	movwf	?___flmul+2
  7778  011A  3000               	movlw	0
  7779  011B  00B4               	movwf	?___flmul+1
  7780  011C  3000               	movlw	0
  7781  011D  00B3               	movwf	?___flmul
  7782  011E  2C12               	goto	l757
  7783  011F                     l4435:	
  7784  011F  0833               	movf	___flmul@b,w
  7785  0120  00BB               	movwf	??___flmul
  7786  0121  083B               	movf	??___flmul,w
  7787  0122  00F0               	movwf	__Umul8_16@multiplicand
  7788  0123  0839               	movf	___flmul@a+2,w
  7789  0124  160A  158A  21E9  120A  118A  	fcall	__Umul8_16
  7790  0129  0871               	movf	?__Umul8_16+1,w
  7791  012A  1283               	bcf	3,5	;RP0=0, select bank0
  7792  012B  1303               	bcf	3,6	;RP1=0, select bank0
  7793  012C  00CC               	movwf	___flmul@temp+1
  7794  012D  0870               	movf	?__Umul8_16,w
  7795  012E  00CB               	movwf	___flmul@temp
  7796  012F                     l4437:	
  7797  012F  084B               	movf	___flmul@temp,w
  7798  0130  00BB               	movwf	??___flmul
  7799  0131  01BC               	clrf	??___flmul+1
  7800  0132  01BD               	clrf	??___flmul+2
  7801  0133  01BE               	clrf	??___flmul+3
  7802  0134  083E               	movf	??___flmul+3,w
  7803  0135  00C5               	movwf	___flmul@grs+3
  7804  0136  083D               	movf	??___flmul+2,w
  7805  0137  00C4               	movwf	___flmul@grs+2
  7806  0138  083C               	movf	??___flmul+1,w
  7807  0139  00C3               	movwf	___flmul@grs+1
  7808  013A  083B               	movf	??___flmul,w
  7809  013B  00C2               	movwf	___flmul@grs
  7810  013C                     l4439:	
  7811  013C  084C               	movf	___flmul@temp+1,w
  7812  013D  00BB               	movwf	??___flmul
  7813  013E  01BC               	clrf	??___flmul+1
  7814  013F  01BD               	clrf	??___flmul+2
  7815  0140  01BE               	clrf	??___flmul+3
  7816  0141  083E               	movf	??___flmul+3,w
  7817  0142  00CA               	movwf	___flmul@prod+3
  7818  0143  083D               	movf	??___flmul+2,w
  7819  0144  00C9               	movwf	___flmul@prod+2
  7820  0145  083C               	movf	??___flmul+1,w
  7821  0146  00C8               	movwf	___flmul@prod+1
  7822  0147  083B               	movf	??___flmul,w
  7823  0148  00C7               	movwf	___flmul@prod
  7824  0149  0834               	movf	___flmul@b+1,w
  7825  014A  00BB               	movwf	??___flmul
  7826  014B  083B               	movf	??___flmul,w
  7827  014C  00F0               	movwf	__Umul8_16@multiplicand
  7828  014D  0838               	movf	___flmul@a+1,w
  7829  014E  160A  158A  21E9  120A  118A  	fcall	__Umul8_16
  7830  0153  0871               	movf	?__Umul8_16+1,w
  7831  0154  1283               	bcf	3,5	;RP0=0, select bank0
  7832  0155  1303               	bcf	3,6	;RP1=0, select bank0
  7833  0156  00CC               	movwf	___flmul@temp+1
  7834  0157  0870               	movf	?__Umul8_16,w
  7835  0158  00CB               	movwf	___flmul@temp
  7836  0159                     l4441:	
  7837  0159  084B               	movf	___flmul@temp,w
  7838  015A  00BB               	movwf	??___flmul
  7839  015B  01BC               	clrf	??___flmul+1
  7840  015C  01BD               	clrf	??___flmul+2
  7841  015D  01BE               	clrf	??___flmul+3
  7842  015E  083B               	movf	??___flmul,w
  7843  015F  07C2               	addwf	___flmul@grs,f
  7844  0160  083C               	movf	??___flmul+1,w
  7845  0161  1103               	clrz
  7846  0162  1803               	skipnc
  7847  0163  3E01               	addlw	1
  7848  0164  1903               	skipnz
  7849  0165  2967               	goto	u6421
  7850  0166  07C3               	addwf	___flmul@grs+1,f
  7851  0167                     u6421:	
  7852  0167  083D               	movf	??___flmul+2,w
  7853  0168  1103               	clrz
  7854  0169  1803               	skipnc
  7855  016A  3E01               	addlw	1
  7856  016B  1903               	skipnz
  7857  016C  296E               	goto	u6422
  7858  016D  07C4               	addwf	___flmul@grs+2,f
  7859  016E                     u6422:	
  7860  016E  083E               	movf	??___flmul+3,w
  7861  016F  1103               	clrz
  7862  0170  1803               	skipnc
  7863  0171  3E01               	addlw	1
  7864  0172  1903               	skipnz
  7865  0173  2975               	goto	u6423
  7866  0174  07C5               	addwf	___flmul@grs+3,f
  7867  0175                     u6423:	
  7868  0175                     l4443:	
  7869  0175  084C               	movf	___flmul@temp+1,w
  7870  0176  00BB               	movwf	??___flmul
  7871  0177  01BC               	clrf	??___flmul+1
  7872  0178  01BD               	clrf	??___flmul+2
  7873  0179  01BE               	clrf	??___flmul+3
  7874  017A  083B               	movf	??___flmul,w
  7875  017B  07C7               	addwf	___flmul@prod,f
  7876  017C  083C               	movf	??___flmul+1,w
  7877  017D  1103               	clrz
  7878  017E  1803               	skipnc
  7879  017F  3E01               	addlw	1
  7880  0180  1903               	skipnz
  7881  0181  2983               	goto	u6431
  7882  0182  07C8               	addwf	___flmul@prod+1,f
  7883  0183                     u6431:	
  7884  0183  083D               	movf	??___flmul+2,w
  7885  0184  1103               	clrz
  7886  0185  1803               	skipnc
  7887  0186  3E01               	addlw	1
  7888  0187  1903               	skipnz
  7889  0188  298A               	goto	u6432
  7890  0189  07C9               	addwf	___flmul@prod+2,f
  7891  018A                     u6432:	
  7892  018A  083E               	movf	??___flmul+3,w
  7893  018B  1103               	clrz
  7894  018C  1803               	skipnc
  7895  018D  3E01               	addlw	1
  7896  018E  1903               	skipnz
  7897  018F  2991               	goto	u6433
  7898  0190  07CA               	addwf	___flmul@prod+3,f
  7899  0191                     u6433:	
  7900  0191  0835               	movf	___flmul@b+2,w
  7901  0192  00BB               	movwf	??___flmul
  7902  0193  083B               	movf	??___flmul,w
  7903  0194  00F0               	movwf	__Umul8_16@multiplicand
  7904  0195  0837               	movf	___flmul@a,w
  7905  0196  160A  158A  21E9  120A  118A  	fcall	__Umul8_16
  7906  019B  0871               	movf	?__Umul8_16+1,w
  7907  019C  1283               	bcf	3,5	;RP0=0, select bank0
  7908  019D  1303               	bcf	3,6	;RP1=0, select bank0
  7909  019E  00CC               	movwf	___flmul@temp+1
  7910  019F  0870               	movf	?__Umul8_16,w
  7911  01A0  00CB               	movwf	___flmul@temp
  7912  01A1                     l4445:	
  7913  01A1  084B               	movf	___flmul@temp,w
  7914  01A2  00BB               	movwf	??___flmul
  7915  01A3  01BC               	clrf	??___flmul+1
  7916  01A4  01BD               	clrf	??___flmul+2
  7917  01A5  01BE               	clrf	??___flmul+3
  7918  01A6  083B               	movf	??___flmul,w
  7919  01A7  07C2               	addwf	___flmul@grs,f
  7920  01A8  083C               	movf	??___flmul+1,w
  7921  01A9  1103               	clrz
  7922  01AA  1803               	skipnc
  7923  01AB  3E01               	addlw	1
  7924  01AC  1903               	skipnz
  7925  01AD  29AF               	goto	u6441
  7926  01AE  07C3               	addwf	___flmul@grs+1,f
  7927  01AF                     u6441:	
  7928  01AF  083D               	movf	??___flmul+2,w
  7929  01B0  1103               	clrz
  7930  01B1  1803               	skipnc
  7931  01B2  3E01               	addlw	1
  7932  01B3  1903               	skipnz
  7933  01B4  29B6               	goto	u6442
  7934  01B5  07C4               	addwf	___flmul@grs+2,f
  7935  01B6                     u6442:	
  7936  01B6  083E               	movf	??___flmul+3,w
  7937  01B7  1103               	clrz
  7938  01B8  1803               	skipnc
  7939  01B9  3E01               	addlw	1
  7940  01BA  1903               	skipnz
  7941  01BB  29BD               	goto	u6443
  7942  01BC  07C5               	addwf	___flmul@grs+3,f
  7943  01BD                     u6443:	
  7944  01BD                     l4447:	
  7945  01BD  084C               	movf	___flmul@temp+1,w
  7946  01BE  00BB               	movwf	??___flmul
  7947  01BF  01BC               	clrf	??___flmul+1
  7948  01C0  01BD               	clrf	??___flmul+2
  7949  01C1  01BE               	clrf	??___flmul+3
  7950  01C2  083B               	movf	??___flmul,w
  7951  01C3  07C7               	addwf	___flmul@prod,f
  7952  01C4  083C               	movf	??___flmul+1,w
  7953  01C5  1103               	clrz
  7954  01C6  1803               	skipnc
  7955  01C7  3E01               	addlw	1
  7956  01C8  1903               	skipnz
  7957  01C9  29CB               	goto	u6451
  7958  01CA  07C8               	addwf	___flmul@prod+1,f
  7959  01CB                     u6451:	
  7960  01CB  083D               	movf	??___flmul+2,w
  7961  01CC  1103               	clrz
  7962  01CD  1803               	skipnc
  7963  01CE  3E01               	addlw	1
  7964  01CF  1903               	skipnz
  7965  01D0  29D2               	goto	u6452
  7966  01D1  07C9               	addwf	___flmul@prod+2,f
  7967  01D2                     u6452:	
  7968  01D2  083E               	movf	??___flmul+3,w
  7969  01D3  1103               	clrz
  7970  01D4  1803               	skipnc
  7971  01D5  3E01               	addlw	1
  7972  01D6  1903               	skipnz
  7973  01D7  29D9               	goto	u6453
  7974  01D8  07CA               	addwf	___flmul@prod+3,f
  7975  01D9                     u6453:	
  7976  01D9                     l4449:	
  7977  01D9  3008               	movlw	8
  7978  01DA  00BB               	movwf	??___flmul
  7979  01DB                     u6465:	
  7980  01DB  1003               	clrc
  7981  01DC  0DC2               	rlf	___flmul@grs,f
  7982  01DD  0DC3               	rlf	___flmul@grs+1,f
  7983  01DE  0DC4               	rlf	___flmul@grs+2,f
  7984  01DF  0DC5               	rlf	___flmul@grs+3,f
  7985  01E0  0BBB               	decfsz	??___flmul,f
  7986  01E1  29DB               	goto	u6465
  7987  01E2                     l4451:	
  7988  01E2  0834               	movf	___flmul@b+1,w
  7989  01E3  00BB               	movwf	??___flmul
  7990  01E4  083B               	movf	??___flmul,w
  7991  01E5  00F0               	movwf	__Umul8_16@multiplicand
  7992  01E6  0837               	movf	___flmul@a,w
  7993  01E7  160A  158A  21E9  120A  118A  	fcall	__Umul8_16
  7994  01EC  0871               	movf	?__Umul8_16+1,w
  7995  01ED  1283               	bcf	3,5	;RP0=0, select bank0
  7996  01EE  1303               	bcf	3,6	;RP1=0, select bank0
  7997  01EF  00CC               	movwf	___flmul@temp+1
  7998  01F0  0870               	movf	?__Umul8_16,w
  7999  01F1  00CB               	movwf	___flmul@temp
  8000  01F2                     l4453:	
  8001  01F2  084B               	movf	___flmul@temp,w
  8002  01F3  00BB               	movwf	??___flmul
  8003  01F4  084C               	movf	___flmul@temp+1,w
  8004  01F5  00BC               	movwf	??___flmul+1
  8005  01F6  01BD               	clrf	??___flmul+2
  8006  01F7  01BE               	clrf	??___flmul+3
  8007  01F8  083B               	movf	??___flmul,w
  8008  01F9  07C2               	addwf	___flmul@grs,f
  8009  01FA  083C               	movf	??___flmul+1,w
  8010  01FB  1103               	clrz
  8011  01FC  1803               	skipnc
  8012  01FD  3E01               	addlw	1
  8013  01FE  1903               	skipnz
  8014  01FF  2A01               	goto	u6471
  8015  0200  07C3               	addwf	___flmul@grs+1,f
  8016  0201                     u6471:	
  8017  0201  083D               	movf	??___flmul+2,w
  8018  0202  1103               	clrz
  8019  0203  1803               	skipnc
  8020  0204  3E01               	addlw	1
  8021  0205  1903               	skipnz
  8022  0206  2A08               	goto	u6472
  8023  0207  07C4               	addwf	___flmul@grs+2,f
  8024  0208                     u6472:	
  8025  0208  083E               	movf	??___flmul+3,w
  8026  0209  1103               	clrz
  8027  020A  1803               	skipnc
  8028  020B  3E01               	addlw	1
  8029  020C  1903               	skipnz
  8030  020D  2A0F               	goto	u6473
  8031  020E  07C5               	addwf	___flmul@grs+3,f
  8032  020F                     u6473:	
  8033  020F                     l4455:	
  8034  020F  0833               	movf	___flmul@b,w
  8035  0210  00BB               	movwf	??___flmul
  8036  0211  083B               	movf	??___flmul,w
  8037  0212  00F0               	movwf	__Umul8_16@multiplicand
  8038  0213  0838               	movf	___flmul@a+1,w
  8039  0214  160A  158A  21E9  120A  118A  	fcall	__Umul8_16
  8040  0219  0871               	movf	?__Umul8_16+1,w
  8041  021A  1283               	bcf	3,5	;RP0=0, select bank0
  8042  021B  1303               	bcf	3,6	;RP1=0, select bank0
  8043  021C  00CC               	movwf	___flmul@temp+1
  8044  021D  0870               	movf	?__Umul8_16,w
  8045  021E  00CB               	movwf	___flmul@temp
  8046  021F                     l4457:	
  8047  021F  084B               	movf	___flmul@temp,w
  8048  0220  00BB               	movwf	??___flmul
  8049  0221  084C               	movf	___flmul@temp+1,w
  8050  0222  00BC               	movwf	??___flmul+1
  8051  0223  01BD               	clrf	??___flmul+2
  8052  0224  01BE               	clrf	??___flmul+3
  8053  0225  083B               	movf	??___flmul,w
  8054  0226  07C2               	addwf	___flmul@grs,f
  8055  0227  083C               	movf	??___flmul+1,w
  8056  0228  1103               	clrz
  8057  0229  1803               	skipnc
  8058  022A  3E01               	addlw	1
  8059  022B  1903               	skipnz
  8060  022C  2A2E               	goto	u6481
  8061  022D  07C3               	addwf	___flmul@grs+1,f
  8062  022E                     u6481:	
  8063  022E  083D               	movf	??___flmul+2,w
  8064  022F  1103               	clrz
  8065  0230  1803               	skipnc
  8066  0231  3E01               	addlw	1
  8067  0232  1903               	skipnz
  8068  0233  2A35               	goto	u6482
  8069  0234  07C4               	addwf	___flmul@grs+2,f
  8070  0235                     u6482:	
  8071  0235  083E               	movf	??___flmul+3,w
  8072  0236  1103               	clrz
  8073  0237  1803               	skipnc
  8074  0238  3E01               	addlw	1
  8075  0239  1903               	skipnz
  8076  023A  2A3C               	goto	u6483
  8077  023B  07C5               	addwf	___flmul@grs+3,f
  8078  023C                     u6483:	
  8079  023C                     l4459:	
  8080  023C  3008               	movlw	8
  8081  023D  00BB               	movwf	??___flmul
  8082  023E                     u6495:	
  8083  023E  1003               	clrc
  8084  023F  0DC2               	rlf	___flmul@grs,f
  8085  0240  0DC3               	rlf	___flmul@grs+1,f
  8086  0241  0DC4               	rlf	___flmul@grs+2,f
  8087  0242  0DC5               	rlf	___flmul@grs+3,f
  8088  0243  0BBB               	decfsz	??___flmul,f
  8089  0244  2A3E               	goto	u6495
  8090  0245  0833               	movf	___flmul@b,w
  8091  0246  00BB               	movwf	??___flmul
  8092  0247  083B               	movf	??___flmul,w
  8093  0248  00F0               	movwf	__Umul8_16@multiplicand
  8094  0249  0837               	movf	___flmul@a,w
  8095  024A  160A  158A  21E9  120A  118A  	fcall	__Umul8_16
  8096  024F  0871               	movf	?__Umul8_16+1,w
  8097  0250  1283               	bcf	3,5	;RP0=0, select bank0
  8098  0251  1303               	bcf	3,6	;RP1=0, select bank0
  8099  0252  00CC               	movwf	___flmul@temp+1
  8100  0253  0870               	movf	?__Umul8_16,w
  8101  0254  00CB               	movwf	___flmul@temp
  8102  0255                     l4461:	
  8103  0255  084B               	movf	___flmul@temp,w
  8104  0256  00BB               	movwf	??___flmul
  8105  0257  084C               	movf	___flmul@temp+1,w
  8106  0258  00BC               	movwf	??___flmul+1
  8107  0259  01BD               	clrf	??___flmul+2
  8108  025A  01BE               	clrf	??___flmul+3
  8109  025B  083B               	movf	??___flmul,w
  8110  025C  07C2               	addwf	___flmul@grs,f
  8111  025D  083C               	movf	??___flmul+1,w
  8112  025E  1103               	clrz
  8113  025F  1803               	skipnc
  8114  0260  3E01               	addlw	1
  8115  0261  1903               	skipnz
  8116  0262  2A64               	goto	u6501
  8117  0263  07C3               	addwf	___flmul@grs+1,f
  8118  0264                     u6501:	
  8119  0264  083D               	movf	??___flmul+2,w
  8120  0265  1103               	clrz
  8121  0266  1803               	skipnc
  8122  0267  3E01               	addlw	1
  8123  0268  1903               	skipnz
  8124  0269  2A6B               	goto	u6502
  8125  026A  07C4               	addwf	___flmul@grs+2,f
  8126  026B                     u6502:	
  8127  026B  083E               	movf	??___flmul+3,w
  8128  026C  1103               	clrz
  8129  026D  1803               	skipnc
  8130  026E  3E01               	addlw	1
  8131  026F  1903               	skipnz
  8132  0270  2A72               	goto	u6503
  8133  0271  07C5               	addwf	___flmul@grs+3,f
  8134  0272                     u6503:	
  8135  0272                     l4463:	
  8136  0272  0834               	movf	___flmul@b+1,w
  8137  0273  00BB               	movwf	??___flmul
  8138  0274  083B               	movf	??___flmul,w
  8139  0275  00F0               	movwf	__Umul8_16@multiplicand
  8140  0276  0839               	movf	___flmul@a+2,w
  8141  0277  160A  158A  21E9  120A  118A  	fcall	__Umul8_16
  8142  027C  0871               	movf	?__Umul8_16+1,w
  8143  027D  1283               	bcf	3,5	;RP0=0, select bank0
  8144  027E  1303               	bcf	3,6	;RP1=0, select bank0
  8145  027F  00CC               	movwf	___flmul@temp+1
  8146  0280  0870               	movf	?__Umul8_16,w
  8147  0281  00CB               	movwf	___flmul@temp
  8148  0282  084B               	movf	___flmul@temp,w
  8149  0283  00BB               	movwf	??___flmul
  8150  0284  084C               	movf	___flmul@temp+1,w
  8151  0285  00BC               	movwf	??___flmul+1
  8152  0286  01BD               	clrf	??___flmul+2
  8153  0287  01BE               	clrf	??___flmul+3
  8154  0288  083B               	movf	??___flmul,w
  8155  0289  07C7               	addwf	___flmul@prod,f
  8156  028A  083C               	movf	??___flmul+1,w
  8157  028B  1103               	clrz
  8158  028C  1803               	skipnc
  8159  028D  3E01               	addlw	1
  8160  028E  1903               	skipnz
  8161  028F  2A91               	goto	u6511
  8162  0290  07C8               	addwf	___flmul@prod+1,f
  8163  0291                     u6511:	
  8164  0291  083D               	movf	??___flmul+2,w
  8165  0292  1103               	clrz
  8166  0293  1803               	skipnc
  8167  0294  3E01               	addlw	1
  8168  0295  1903               	skipnz
  8169  0296  2A98               	goto	u6512
  8170  0297  07C9               	addwf	___flmul@prod+2,f
  8171  0298                     u6512:	
  8172  0298  083E               	movf	??___flmul+3,w
  8173  0299  1103               	clrz
  8174  029A  1803               	skipnc
  8175  029B  3E01               	addlw	1
  8176  029C  1903               	skipnz
  8177  029D  2A9F               	goto	u6513
  8178  029E  07CA               	addwf	___flmul@prod+3,f
  8179  029F                     u6513:	
  8180  029F                     l4465:	
  8181  029F  0835               	movf	___flmul@b+2,w
  8182  02A0  00BB               	movwf	??___flmul
  8183  02A1  083B               	movf	??___flmul,w
  8184  02A2  00F0               	movwf	__Umul8_16@multiplicand
  8185  02A3  0838               	movf	___flmul@a+1,w
  8186  02A4  160A  158A  21E9  120A  118A  	fcall	__Umul8_16
  8187  02A9  0871               	movf	?__Umul8_16+1,w
  8188  02AA  1283               	bcf	3,5	;RP0=0, select bank0
  8189  02AB  1303               	bcf	3,6	;RP1=0, select bank0
  8190  02AC  00CC               	movwf	___flmul@temp+1
  8191  02AD  0870               	movf	?__Umul8_16,w
  8192  02AE  00CB               	movwf	___flmul@temp
  8193  02AF                     l4467:	
  8194  02AF  084B               	movf	___flmul@temp,w
  8195  02B0  00BB               	movwf	??___flmul
  8196  02B1  084C               	movf	___flmul@temp+1,w
  8197  02B2  00BC               	movwf	??___flmul+1
  8198  02B3  01BD               	clrf	??___flmul+2
  8199  02B4  01BE               	clrf	??___flmul+3
  8200  02B5  083B               	movf	??___flmul,w
  8201  02B6  07C7               	addwf	___flmul@prod,f
  8202  02B7  083C               	movf	??___flmul+1,w
  8203  02B8  1103               	clrz
  8204  02B9  1803               	skipnc
  8205  02BA  3E01               	addlw	1
  8206  02BB  1903               	skipnz
  8207  02BC  2ABE               	goto	u6521
  8208  02BD  07C8               	addwf	___flmul@prod+1,f
  8209  02BE                     u6521:	
  8210  02BE  083D               	movf	??___flmul+2,w
  8211  02BF  1103               	clrz
  8212  02C0  1803               	skipnc
  8213  02C1  3E01               	addlw	1
  8214  02C2  1903               	skipnz
  8215  02C3  2AC5               	goto	u6522
  8216  02C4  07C9               	addwf	___flmul@prod+2,f
  8217  02C5                     u6522:	
  8218  02C5  083E               	movf	??___flmul+3,w
  8219  02C6  1103               	clrz
  8220  02C7  1803               	skipnc
  8221  02C8  3E01               	addlw	1
  8222  02C9  1903               	skipnz
  8223  02CA  2ACC               	goto	u6523
  8224  02CB  07CA               	addwf	___flmul@prod+3,f
  8225  02CC                     u6523:	
  8226  02CC  0835               	movf	___flmul@b+2,w
  8227  02CD  00BB               	movwf	??___flmul
  8228  02CE  083B               	movf	??___flmul,w
  8229  02CF  00F0               	movwf	__Umul8_16@multiplicand
  8230  02D0  0839               	movf	___flmul@a+2,w
  8231  02D1  160A  158A  21E9  120A  118A  	fcall	__Umul8_16
  8232  02D6  0871               	movf	?__Umul8_16+1,w
  8233  02D7  1283               	bcf	3,5	;RP0=0, select bank0
  8234  02D8  1303               	bcf	3,6	;RP1=0, select bank0
  8235  02D9  00CC               	movwf	___flmul@temp+1
  8236  02DA  0870               	movf	?__Umul8_16,w
  8237  02DB  00CB               	movwf	___flmul@temp
  8238  02DC                     l4469:	
  8239  02DC  084B               	movf	___flmul@temp,w
  8240  02DD  00BB               	movwf	??___flmul
  8241  02DE  084C               	movf	___flmul@temp+1,w
  8242  02DF  00BC               	movwf	??___flmul+1
  8243  02E0  01BD               	clrf	??___flmul+2
  8244  02E1  01BE               	clrf	??___flmul+3
  8245  02E2  3008               	movlw	8
  8246  02E3                     u6535:	
  8247  02E3  1003               	clrc
  8248  02E4  0DBB               	rlf	??___flmul,f
  8249  02E5  0DBC               	rlf	??___flmul+1,f
  8250  02E6  0DBD               	rlf	??___flmul+2,f
  8251  02E7  0DBE               	rlf	??___flmul+3,f
  8252  02E8                     u6530:	
  8253  02E8  3EFF               	addlw	-1
  8254  02E9  1D03               	skipz
  8255  02EA  2AE3               	goto	u6535
  8256  02EB  083B               	movf	??___flmul,w
  8257  02EC  07C7               	addwf	___flmul@prod,f
  8258  02ED  083C               	movf	??___flmul+1,w
  8259  02EE  1103               	clrz
  8260  02EF  1803               	skipnc
  8261  02F0  3E01               	addlw	1
  8262  02F1  1903               	skipnz
  8263  02F2  2AF4               	goto	u6541
  8264  02F3  07C8               	addwf	___flmul@prod+1,f
  8265  02F4                     u6541:	
  8266  02F4  083D               	movf	??___flmul+2,w
  8267  02F5  1103               	clrz
  8268  02F6  1803               	skipnc
  8269  02F7  3E01               	addlw	1
  8270  02F8  1903               	skipnz
  8271  02F9  2AFB               	goto	u6542
  8272  02FA  07C9               	addwf	___flmul@prod+2,f
  8273  02FB                     u6542:	
  8274  02FB  083E               	movf	??___flmul+3,w
  8275  02FC  1103               	clrz
  8276  02FD  1803               	skipnc
  8277  02FE  3E01               	addlw	1
  8278  02FF  1903               	skipnz
  8279  0300  2B02               	goto	u6543
  8280  0301  07CA               	addwf	___flmul@prod+3,f
  8281  0302                     u6543:	
  8282  0302                     l4471:	
  8283  0302  0842               	movf	___flmul@grs,w
  8284  0303  00BB               	movwf	??___flmul
  8285  0304  0843               	movf	___flmul@grs+1,w
  8286  0305  00BC               	movwf	??___flmul+1
  8287  0306  0844               	movf	___flmul@grs+2,w
  8288  0307  00BD               	movwf	??___flmul+2
  8289  0308  0845               	movf	___flmul@grs+3,w
  8290  0309  00BE               	movwf	??___flmul+3
  8291  030A  3018               	movlw	24
  8292  030B                     u6555:	
  8293  030B  1003               	clrc
  8294  030C  0CBE               	rrf	??___flmul+3,f
  8295  030D  0CBD               	rrf	??___flmul+2,f
  8296  030E  0CBC               	rrf	??___flmul+1,f
  8297  030F  0CBB               	rrf	??___flmul,f
  8298  0310                     u6550:	
  8299  0310  3EFF               	addlw	-1
  8300  0311  1D03               	skipz
  8301  0312  2B0B               	goto	u6555
  8302  0313  083B               	movf	??___flmul,w
  8303  0314  07C7               	addwf	___flmul@prod,f
  8304  0315  083C               	movf	??___flmul+1,w
  8305  0316  1103               	clrz
  8306  0317  1803               	skipnc
  8307  0318  3E01               	addlw	1
  8308  0319  1903               	skipnz
  8309  031A  2B1C               	goto	u6561
  8310  031B  07C8               	addwf	___flmul@prod+1,f
  8311  031C                     u6561:	
  8312  031C  083D               	movf	??___flmul+2,w
  8313  031D  1103               	clrz
  8314  031E  1803               	skipnc
  8315  031F  3E01               	addlw	1
  8316  0320  1903               	skipnz
  8317  0321  2B23               	goto	u6562
  8318  0322  07C9               	addwf	___flmul@prod+2,f
  8319  0323                     u6562:	
  8320  0323  083E               	movf	??___flmul+3,w
  8321  0324  1103               	clrz
  8322  0325  1803               	skipnc
  8323  0326  3E01               	addlw	1
  8324  0327  1903               	skipnz
  8325  0328  2B2A               	goto	u6563
  8326  0329  07CA               	addwf	___flmul@prod+3,f
  8327  032A                     u6563:	
  8328  032A                     l4473:	
  8329  032A  3008               	movlw	8
  8330  032B  00BB               	movwf	??___flmul
  8331  032C                     u6575:	
  8332  032C  1003               	clrc
  8333  032D  0DC2               	rlf	___flmul@grs,f
  8334  032E  0DC3               	rlf	___flmul@grs+1,f
  8335  032F  0DC4               	rlf	___flmul@grs+2,f
  8336  0330  0DC5               	rlf	___flmul@grs+3,f
  8337  0331  0BBB               	decfsz	??___flmul,f
  8338  0332  2B2C               	goto	u6575
  8339  0333                     l4475:	
  8340  0333  0846               	movf	___flmul@bexp,w
  8341  0334  0741               	addwf	___flmul@aexp,w
  8342  0335  00BB               	movwf	??___flmul
  8343  0336  01BC               	clrf	??___flmul+1
  8344  0337  0DBC               	rlf	??___flmul+1,f
  8345  0338  083B               	movf	??___flmul,w
  8346  0339  3E82               	addlw	130
  8347  033A  00CB               	movwf	___flmul@temp
  8348  033B  083C               	movf	??___flmul+1,w
  8349  033C  1803               	skipnc
  8350  033D  3E01               	addlw	1
  8351  033E  3EFF               	addlw	255
  8352  033F  00CC               	movwf	___flmul@temp+1
  8353  0340  2B5E               	goto	l4487
  8354  0341                     l4477:	
  8355  0341  3001               	movlw	1
  8356  0342  00BB               	movwf	??___flmul
  8357  0343                     u6585:	
  8358  0343  1003               	clrc
  8359  0344  0DC7               	rlf	___flmul@prod,f
  8360  0345  0DC8               	rlf	___flmul@prod+1,f
  8361  0346  0DC9               	rlf	___flmul@prod+2,f
  8362  0347  0DCA               	rlf	___flmul@prod+3,f
  8363  0348  0BBB               	decfsz	??___flmul,f
  8364  0349  2B43               	goto	u6585
  8365  034A                     l4479:	
  8366  034A  1FC5               	btfss	___flmul@grs+3,7
  8367  034B  2B4D               	goto	u6591
  8368  034C  2B4E               	goto	u6590
  8369  034D                     u6591:	
  8370  034D  2B4F               	goto	l4483
  8371  034E                     u6590:	
  8372  034E                     l4481:	
  8373  034E  1447               	bsf	___flmul@prod,0
  8374  034F                     l4483:	
  8375  034F  3001               	movlw	1
  8376  0350  00BB               	movwf	??___flmul
  8377  0351                     u6605:	
  8378  0351  1003               	clrc
  8379  0352  0DC2               	rlf	___flmul@grs,f
  8380  0353  0DC3               	rlf	___flmul@grs+1,f
  8381  0354  0DC4               	rlf	___flmul@grs+2,f
  8382  0355  0DC5               	rlf	___flmul@grs+3,f
  8383  0356  0BBB               	decfsz	??___flmul,f
  8384  0357  2B51               	goto	u6605
  8385  0358                     l4485:	
  8386  0358  30FF               	movlw	255
  8387  0359  07CB               	addwf	___flmul@temp,f
  8388  035A  1803               	skipnc
  8389  035B  0ACC               	incf	___flmul@temp+1,f
  8390  035C  30FF               	movlw	255
  8391  035D  07CC               	addwf	___flmul@temp+1,f
  8392  035E                     l4487:	
  8393  035E  1FC9               	btfss	___flmul@prod+2,7
  8394  035F  2B61               	goto	u6611
  8395  0360  2B62               	goto	u6610
  8396  0361                     u6611:	
  8397  0361  2B41               	goto	l4477
  8398  0362                     u6610:	
  8399  0362                     l4489:	
  8400  0362  01C1               	clrf	___flmul@aexp
  8401  0363                     l4491:	
  8402  0363  1FC5               	btfss	___flmul@grs+3,7
  8403  0364  2B66               	goto	u6621
  8404  0365  2B67               	goto	u6620
  8405  0366                     u6621:	
  8406  0366  2B83               	goto	l4499
  8407  0367                     u6620:	
  8408  0367                     l4493:	
  8409  0367  30FF               	movlw	255
  8410  0368  0542               	andwf	___flmul@grs,w
  8411  0369  00BB               	movwf	??___flmul
  8412  036A  30FF               	movlw	255
  8413  036B  0543               	andwf	___flmul@grs+1,w
  8414  036C  00BC               	movwf	??___flmul+1
  8415  036D  30FF               	movlw	255
  8416  036E  0544               	andwf	___flmul@grs+2,w
  8417  036F  00BD               	movwf	??___flmul+2
  8418  0370  307F               	movlw	127
  8419  0371  0545               	andwf	___flmul@grs+3,w
  8420  0372  00BE               	movwf	??___flmul+3
  8421  0373  083E               	movf	??___flmul+3,w
  8422  0374  043D               	iorwf	??___flmul+2,w
  8423  0375  043C               	iorwf	??___flmul+1,w
  8424  0376  043B               	iorwf	??___flmul,w
  8425  0377  1903               	skipnz
  8426  0378  2B7A               	goto	u6631
  8427  0379  2B7B               	goto	u6630
  8428  037A                     u6631:	
  8429  037A  2B7E               	goto	l763
  8430  037B                     u6630:	
  8431  037B                     l4495:	
  8432  037B  01C1               	clrf	___flmul@aexp
  8433  037C  0AC1               	incf	___flmul@aexp,f
  8434  037D  2B83               	goto	l4499
  8435  037E                     l763:	
  8436  037E  1C47               	btfss	___flmul@prod,0
  8437  037F  2B81               	goto	u6641
  8438  0380  2B82               	goto	u6640
  8439  0381                     u6641:	
  8440  0381  2B83               	goto	l4499
  8441  0382                     u6640:	
  8442  0382  2B7B               	goto	l4495
  8443  0383                     l4499:	
  8444  0383  0841               	movf	___flmul@aexp,w
  8445  0384  1903               	btfsc	3,2
  8446  0385  2B87               	goto	u6651
  8447  0386  2B88               	goto	u6650
  8448  0387                     u6651:	
  8449  0387  2BB9               	goto	l4509
  8450  0388                     u6650:	
  8451  0388                     l4501:	
  8452  0388  3001               	movlw	1
  8453  0389  07C7               	addwf	___flmul@prod,f
  8454  038A  3000               	movlw	0
  8455  038B  1803               	skipnc
  8456  038C  3001               	movlw	1
  8457  038D  07C8               	addwf	___flmul@prod+1,f
  8458  038E  3000               	movlw	0
  8459  038F  1803               	skipnc
  8460  0390  3001               	movlw	1
  8461  0391  07C9               	addwf	___flmul@prod+2,f
  8462  0392  3000               	movlw	0
  8463  0393  1803               	skipnc
  8464  0394  3001               	movlw	1
  8465  0395  07CA               	addwf	___flmul@prod+3,f
  8466  0396                     l4503:	
  8467  0396  1C4A               	btfss	___flmul@prod+3,0
  8468  0397  2B99               	goto	u6661
  8469  0398  2B9A               	goto	u6660
  8470  0399                     u6661:	
  8471  0399  2BB9               	goto	l4509
  8472  039A                     u6660:	
  8473  039A                     l4505:	
  8474  039A  0847               	movf	___flmul@prod,w
  8475  039B  00BB               	movwf	??___flmul
  8476  039C  0848               	movf	___flmul@prod+1,w
  8477  039D  00BC               	movwf	??___flmul+1
  8478  039E  0849               	movf	___flmul@prod+2,w
  8479  039F  00BD               	movwf	??___flmul+2
  8480  03A0  084A               	movf	___flmul@prod+3,w
  8481  03A1  00BE               	movwf	??___flmul+3
  8482  03A2  3001               	movlw	1
  8483  03A3  00BF               	movwf	??___flmul+4
  8484  03A4                     u6675:	
  8485  03A4  0D3E               	rlf	??___flmul+3,w
  8486  03A5  0CBE               	rrf	??___flmul+3,f
  8487  03A6  0CBD               	rrf	??___flmul+2,f
  8488  03A7  0CBC               	rrf	??___flmul+1,f
  8489  03A8  0CBB               	rrf	??___flmul,f
  8490  03A9                     u6670:	
  8491  03A9  0BBF               	decfsz	??___flmul+4,f
  8492  03AA  2BA4               	goto	u6675
  8493  03AB  083E               	movf	??___flmul+3,w
  8494  03AC  00CA               	movwf	___flmul@prod+3
  8495  03AD  083D               	movf	??___flmul+2,w
  8496  03AE  00C9               	movwf	___flmul@prod+2
  8497  03AF  083C               	movf	??___flmul+1,w
  8498  03B0  00C8               	movwf	___flmul@prod+1
  8499  03B1  083B               	movf	??___flmul,w
  8500  03B2  00C7               	movwf	___flmul@prod
  8501  03B3                     l4507:	
  8502  03B3  3001               	movlw	1
  8503  03B4  07CB               	addwf	___flmul@temp,f
  8504  03B5  1803               	skipnc
  8505  03B6  0ACC               	incf	___flmul@temp+1,f
  8506  03B7  3000               	movlw	0
  8507  03B8  07CC               	addwf	___flmul@temp+1,f
  8508  03B9                     l4509:	
  8509  03B9  084C               	movf	___flmul@temp+1,w
  8510  03BA  3A80               	xorlw	128
  8511  03BB  00FF               	movwf	btemp+1
  8512  03BC  3080               	movlw	128
  8513  03BD  027F               	subwf	btemp+1,w
  8514  03BE  1D03               	skipz
  8515  03BF  2BC2               	goto	u6685
  8516  03C0  30FF               	movlw	255
  8517  03C1  024B               	subwf	___flmul@temp,w
  8518  03C2                     u6685:	
  8519  03C2  1C03               	skipc
  8520  03C3  2BC5               	goto	u6681
  8521  03C4  2BC6               	goto	u6680
  8522  03C5                     u6681:	
  8523  03C5  2BD1               	goto	l4513
  8524  03C6                     u6680:	
  8525  03C6                     l4511:	
  8526  03C6  307F               	movlw	127
  8527  03C7  1283               	bcf	3,5	;RP0=0, select bank0
  8528  03C8  1303               	bcf	3,6	;RP1=0, select bank0
  8529  03C9  00CA               	movwf	___flmul@prod+3
  8530  03CA  3080               	movlw	128
  8531  03CB  00C9               	movwf	___flmul@prod+2
  8532  03CC  3000               	movlw	0
  8533  03CD  00C8               	movwf	___flmul@prod+1
  8534  03CE  3000               	movlw	0
  8535  03CF  00C7               	movwf	___flmul@prod
  8536  03D0  2C06               	goto	l769
  8537  03D1                     l4513:	
  8538  03D1  1283               	bcf	3,5	;RP0=0, select bank0
  8539  03D2  1303               	bcf	3,6	;RP1=0, select bank0
  8540  03D3  084C               	movf	___flmul@temp+1,w
  8541  03D4  3A80               	xorlw	128
  8542  03D5  00FF               	movwf	btemp+1
  8543  03D6  3080               	movlw	128
  8544  03D7  027F               	subwf	btemp+1,w
  8545  03D8  1D03               	skipz
  8546  03D9  2BDC               	goto	u6695
  8547  03DA  3001               	movlw	1
  8548  03DB  024B               	subwf	___flmul@temp,w
  8549  03DC                     u6695:	
  8550  03DC  1803               	skipnc
  8551  03DD  2BDF               	goto	u6691
  8552  03DE  2BE0               	goto	u6690
  8553  03DF                     u6691:	
  8554  03DF  2BEC               	goto	l4519
  8555  03E0                     u6690:	
  8556  03E0                     l4515:	
  8557  03E0  3000               	movlw	0
  8558  03E1  1283               	bcf	3,5	;RP0=0, select bank0
  8559  03E2  1303               	bcf	3,6	;RP1=0, select bank0
  8560  03E3  00CA               	movwf	___flmul@prod+3
  8561  03E4  3000               	movlw	0
  8562  03E5  00C9               	movwf	___flmul@prod+2
  8563  03E6  3000               	movlw	0
  8564  03E7  00C8               	movwf	___flmul@prod+1
  8565  03E8  3000               	movlw	0
  8566  03E9  00C7               	movwf	___flmul@prod
  8567  03EA                     l4517:	
  8568  03EA  01C0               	clrf	___flmul@sign
  8569  03EB  2C06               	goto	l769
  8570  03EC                     l4519:	
  8571  03EC  1283               	bcf	3,5	;RP0=0, select bank0
  8572  03ED  1303               	bcf	3,6	;RP1=0, select bank0
  8573  03EE  084B               	movf	___flmul@temp,w
  8574  03EF  00BB               	movwf	??___flmul
  8575  03F0  083B               	movf	??___flmul,w
  8576  03F1  00C6               	movwf	___flmul@bexp
  8577  03F2  30FF               	movlw	255
  8578  03F3  05C7               	andwf	___flmul@prod,f
  8579  03F4  30FF               	movlw	255
  8580  03F5  05C8               	andwf	___flmul@prod+1,f
  8581  03F6  307F               	movlw	127
  8582  03F7  05C9               	andwf	___flmul@prod+2,f
  8583  03F8  3000               	movlw	0
  8584  03F9  05CA               	andwf	___flmul@prod+3,f
  8585  03FA                     l4521:	
  8586  03FA  1C46               	btfss	___flmul@bexp,0
  8587  03FB  2BFD               	goto	u6701
  8588  03FC  2BFE               	goto	u6700
  8589  03FD                     u6701:	
  8590  03FD  2BFF               	goto	l4525
  8591  03FE                     u6700:	
  8592  03FE                     l4523:	
  8593  03FE  17C9               	bsf	___flmul@prod+2,7
  8594  03FF                     l4525:	
  8595  03FF  0846               	movf	___flmul@bexp,w
  8596  0400  00BB               	movwf	??___flmul
  8597  0401  1003               	clrc
  8598  0402  0C3B               	rrf	??___flmul,w
  8599  0403  00BC               	movwf	??___flmul+1
  8600  0404  083C               	movf	??___flmul+1,w
  8601  0405  00CA               	movwf	___flmul@prod+3
  8602  0406                     l769:	
  8603  0406  0840               	movf	___flmul@sign,w
  8604  0407  00BB               	movwf	??___flmul
  8605  0408  083B               	movf	??___flmul,w
  8606  0409  04CA               	iorwf	___flmul@prod+3,f
  8607  040A                     l4527:	
  8608  040A  084A               	movf	___flmul@prod+3,w
  8609  040B  00B6               	movwf	?___flmul+3
  8610  040C  0849               	movf	___flmul@prod+2,w
  8611  040D  00B5               	movwf	?___flmul+2
  8612  040E  0848               	movf	___flmul@prod+1,w
  8613  040F  00B4               	movwf	?___flmul+1
  8614  0410  0847               	movf	___flmul@prod,w
  8615  0411  00B3               	movwf	?___flmul
  8616  0412                     l757:	
  8617  0412  0008               	return
  8618  0413                     __end_of___flmul:	
  8619                           
  8620                           	psect	text20
  8621  19E9                     __ptext20:	
  8622 ;; *************** function __Umul8_16 *****************
  8623 ;; Defined at:
  8624 ;;		line 4 in file "C:\Program Files (x86)\Microchip\xc8\v2.10\pic\sources\c90\common\Umul8_16.c"
  8625 ;; Parameters:    Size  Location     Type
  8626 ;;  multiplier      1    wreg     unsigned char 
  8627 ;;  multiplicand    1    0[COMMON] unsigned char 
  8628 ;; Auto vars:     Size  Location     Type
  8629 ;;  multiplier      1    8[COMMON] unsigned char 
  8630 ;;  word_mpld       2    6[COMMON] unsigned int 
  8631 ;;  product         2    4[COMMON] unsigned int 
  8632 ;; Return value:  Size  Location     Type
  8633 ;;                  2    0[COMMON] unsigned int 
  8634 ;; Registers used:
  8635 ;;		wreg, status,2, status,0
  8636 ;; Tracked objects:
  8637 ;;		On entry : 0/0
  8638 ;;		On exit  : 0/0
  8639 ;;		Unchanged: 0/0
  8640 ;; Data sizes:     COMMON   BANK0   BANK1   BANK3   BANK2
  8641 ;;      Params:         2       0       0       0       0
  8642 ;;      Locals:         5       0       0       0       0
  8643 ;;      Temps:          2       0       0       0       0
  8644 ;;      Totals:         9       0       0       0       0
  8645 ;;Total ram usage:        9 bytes
  8646 ;; Hardware stack levels used:    1
  8647 ;; This function calls:
  8648 ;;		Nothing
  8649 ;; This function is called by:
  8650 ;;		___flmul
  8651 ;; This function uses a non-reentrant model
  8652 ;;
  8653                           
  8654                           
  8655                           ;psect for function __Umul8_16
  8656  19E9                     __Umul8_16:	
  8657                           
  8658                           ;incstack = 0
  8659                           ; Regs used in __Umul8_16: [wreg+status,2+status,0]
  8660                           ;__Umul8_16@multiplier stored from wreg
  8661  19E9  00F8               	movwf	__Umul8_16@multiplier
  8662  19EA                     l4127:	
  8663  19EA  01F4               	clrf	__Umul8_16@product
  8664  19EB  01F5               	clrf	__Umul8_16@product+1
  8665  19EC                     l4129:	
  8666  19EC  0870               	movf	__Umul8_16@multiplicand,w
  8667  19ED  00F2               	movwf	??__Umul8_16
  8668  19EE  01F3               	clrf	??__Umul8_16+1
  8669  19EF  0872               	movf	??__Umul8_16,w
  8670  19F0  00F6               	movwf	__Umul8_16@word_mpld
  8671  19F1  0873               	movf	??__Umul8_16+1,w
  8672  19F2  00F7               	movwf	__Umul8_16@word_mpld+1
  8673  19F3                     l4131:	
  8674  19F3  1C78               	btfss	__Umul8_16@multiplier,0
  8675  19F4  29F6               	goto	u5681
  8676  19F5  29F7               	goto	u5680
  8677  19F6                     u5681:	
  8678  19F6  29FD               	goto	l829
  8679  19F7                     u5680:	
  8680  19F7                     l4133:	
  8681  19F7  0876               	movf	__Umul8_16@word_mpld,w
  8682  19F8  07F4               	addwf	__Umul8_16@product,f
  8683  19F9  1803               	skipnc
  8684  19FA  0AF5               	incf	__Umul8_16@product+1,f
  8685  19FB  0877               	movf	__Umul8_16@word_mpld+1,w
  8686  19FC  07F5               	addwf	__Umul8_16@product+1,f
  8687  19FD                     l829:	
  8688  19FD  3001               	movlw	1
  8689  19FE                     u5695:	
  8690  19FE  1003               	clrc
  8691  19FF  0DF6               	rlf	__Umul8_16@word_mpld,f
  8692  1A00  0DF7               	rlf	__Umul8_16@word_mpld+1,f
  8693  1A01  3EFF               	addlw	-1
  8694  1A02  1D03               	skipz
  8695  1A03  29FE               	goto	u5695
  8696  1A04  1003               	clrc
  8697  1A05  0CF8               	rrf	__Umul8_16@multiplier,f
  8698  1A06                     l4135:	
  8699  1A06  0878               	movf	__Umul8_16@multiplier,w
  8700  1A07  1D03               	btfss	3,2
  8701  1A08  2A0A               	goto	u5701
  8702  1A09  2A0B               	goto	u5700
  8703  1A0A                     u5701:	
  8704  1A0A  29F3               	goto	l4131
  8705  1A0B                     u5700:	
  8706  1A0B                     l4137:	
  8707  1A0B  0875               	movf	__Umul8_16@product+1,w
  8708  1A0C  00F1               	movwf	?__Umul8_16+1
  8709  1A0D  0874               	movf	__Umul8_16@product,w
  8710  1A0E  00F0               	movwf	?__Umul8_16
  8711  1A0F                     l831:	
  8712  1A0F  0008               	return
  8713  1A10                     __end_of__Umul8_16:	
  8714                           
  8715                           	psect	text21
  8716  19C5                     __ptext21:	
  8717 ;; *************** function ___flsub *****************
  8718 ;; Defined at:
  8719 ;;		line 242 in file "C:\Program Files (x86)\Microchip\xc8\v2.10\pic\sources\c90\common\sprcadd.c"
  8720 ;; Parameters:    Size  Location     Type
  8721 ;;  a               4   65[BANK0 ] unsigned int 
  8722 ;;  b               4   69[BANK0 ] unsigned int 
  8723 ;; Auto vars:     Size  Location     Type
  8724 ;;		None
  8725 ;; Return value:  Size  Location     Type
  8726 ;;                  4   65[BANK0 ] unsigned int 
  8727 ;; Registers used:
  8728 ;;		wreg, status,2, status,0, btemp+1, pclath, cstack
  8729 ;; Tracked objects:
  8730 ;;		On entry : 0/0
  8731 ;;		On exit  : 0/0
  8732 ;;		Unchanged: 0/0
  8733 ;; Data sizes:     COMMON   BANK0   BANK1   BANK3   BANK2
  8734 ;;      Params:         0       8       0       0       0
  8735 ;;      Locals:         0       0       0       0       0
  8736 ;;      Temps:          0       0       0       0       0
  8737 ;;      Totals:         0       8       0       0       0
  8738 ;;Total ram usage:        8 bytes
  8739 ;; Hardware stack levels used:    1
  8740 ;; Hardware stack levels required when called:    1
  8741 ;; This function calls:
  8742 ;;		___fladd
  8743 ;; This function is called by:
  8744 ;;		_exp
  8745 ;; This function uses a non-reentrant model
  8746 ;;
  8747                           
  8748                           
  8749                           ;psect for function ___flsub
  8750  19C5                     ___flsub:	
  8751  19C5                     l4603:	
  8752                           ;incstack = 0
  8753                           ; Regs used in ___flsub: [wreg+status,2+status,0+btemp+1+pclath+cstack]
  8754                           
  8755  19C5  3080               	movlw	128
  8756  19C6  1283               	bcf	3,5	;RP0=0, select bank0
  8757  19C7  1303               	bcf	3,6	;RP1=0, select bank0
  8758  19C8  06E4               	xorwf	___flsub@a+3,f
  8759  19C9                     l4605:	
  8760  19C9  0868               	movf	___flsub@b+3,w
  8761  19CA  00D0               	movwf	___fladd@b+3
  8762  19CB  0867               	movf	___flsub@b+2,w
  8763  19CC  00CF               	movwf	___fladd@b+2
  8764  19CD  0866               	movf	___flsub@b+1,w
  8765  19CE  00CE               	movwf	___fladd@b+1
  8766  19CF  0865               	movf	___flsub@b,w
  8767  19D0  00CD               	movwf	___fladd@b
  8768  19D1  0864               	movf	___flsub@a+3,w
  8769  19D2  00D4               	movwf	___fladd@a+3
  8770  19D3  0863               	movf	___flsub@a+2,w
  8771  19D4  00D3               	movwf	___fladd@a+2
  8772  19D5  0862               	movf	___flsub@a+1,w
  8773  19D6  00D2               	movwf	___fladd@a+1
  8774  19D7  0861               	movf	___flsub@a,w
  8775  19D8  00D1               	movwf	___fladd@a
  8776  19D9  120A  158A  2578  160A  158A  	fcall	___fladd
  8777  19DE  1283               	bcf	3,5	;RP0=0, select bank0
  8778  19DF  1303               	bcf	3,6	;RP1=0, select bank0
  8779  19E0  0850               	movf	?___fladd+3,w
  8780  19E1  00E4               	movwf	?___flsub+3
  8781  19E2  084F               	movf	?___fladd+2,w
  8782  19E3  00E3               	movwf	?___flsub+2
  8783  19E4  084E               	movf	?___fladd+1,w
  8784  19E5  00E2               	movwf	?___flsub+1
  8785  19E6  084D               	movf	?___fladd,w
  8786  19E7  00E1               	movwf	?___flsub
  8787  19E8                     l707:	
  8788  19E8  0008               	return
  8789  19E9                     __end_of___flsub:	
  8790                           
  8791                           	psect	text22
  8792  0D78                     __ptext22:	
  8793 ;; *************** function ___fladd *****************
  8794 ;; Defined at:
  8795 ;;		line 10 in file "C:\Program Files (x86)\Microchip\xc8\v2.10\pic\sources\c90\common\sprcadd.c"
  8796 ;; Parameters:    Size  Location     Type
  8797 ;;  b               4   45[BANK0 ] unsigned int 
  8798 ;;  a               4   49[BANK0 ] unsigned int 
  8799 ;; Auto vars:     Size  Location     Type
  8800 ;;  grs             1   64[BANK0 ] unsigned char 
  8801 ;;  bexp            1   63[BANK0 ] unsigned char 
  8802 ;;  aexp            1   62[BANK0 ] unsigned char 
  8803 ;;  signs           1   61[BANK0 ] unsigned char 
  8804 ;; Return value:  Size  Location     Type
  8805 ;;                  4   45[BANK0 ] unsigned char 
  8806 ;; Registers used:
  8807 ;;		wreg, status,2, status,0, btemp+1
  8808 ;; Tracked objects:
  8809 ;;		On entry : 0/0
  8810 ;;		On exit  : 0/0
  8811 ;;		Unchanged: 0/0
  8812 ;; Data sizes:     COMMON   BANK0   BANK1   BANK3   BANK2
  8813 ;;      Params:         0       8       0       0       0
  8814 ;;      Locals:         0       4       0       0       0
  8815 ;;      Temps:          0       8       0       0       0
  8816 ;;      Totals:         0      20       0       0       0
  8817 ;;Total ram usage:       20 bytes
  8818 ;; Hardware stack levels used:    1
  8819 ;; This function calls:
  8820 ;;		Nothing
  8821 ;; This function is called by:
  8822 ;;		___flsub
  8823 ;;		_floor
  8824 ;;		_log
  8825 ;;		_eval_poly
  8826 ;; This function uses a non-reentrant model
  8827 ;;
  8828                           
  8829                           
  8830                           ;psect for function ___fladd
  8831  0D78                     ___fladd:	
  8832  0D78                     l4197:	
  8833                           ;incstack = 0
  8834                           ; Regs used in ___fladd: [wreg+status,2+status,0+btemp+1]
  8835                           
  8836  0D78  1283               	bcf	3,5	;RP0=0, select bank0
  8837  0D79  1303               	bcf	3,6	;RP1=0, select bank0
  8838  0D7A  0850               	movf	___fladd@b+3,w
  8839  0D7B  3980               	andlw	128
  8840  0D7C  00D5               	movwf	??___fladd
  8841  0D7D  0855               	movf	??___fladd,w
  8842  0D7E  00DD               	movwf	___fladd@signs
  8843  0D7F                     l4199:	
  8844  0D7F  0850               	movf	___fladd@b+3,w
  8845  0D80  00D5               	movwf	??___fladd
  8846  0D81  0755               	addwf	??___fladd,w
  8847  0D82  00D6               	movwf	??___fladd+1
  8848  0D83  0856               	movf	??___fladd+1,w
  8849  0D84  00DF               	movwf	___fladd@bexp
  8850  0D85                     l4201:	
  8851  0D85  1FCF               	btfss	___fladd@b+2,7
  8852  0D86  2D88               	goto	u5881
  8853  0D87  2D89               	goto	u5880
  8854  0D88                     u5881:	
  8855  0D88  2D8A               	goto	l4205
  8856  0D89                     u5880:	
  8857  0D89                     l4203:	
  8858  0D89  145F               	bsf	___fladd@bexp,0
  8859  0D8A                     l4205:	
  8860  0D8A  085F               	movf	___fladd@bexp,w
  8861  0D8B  1903               	btfsc	3,2
  8862  0D8C  2D8E               	goto	u5891
  8863  0D8D  2D8F               	goto	u5890
  8864  0D8E                     u5891:	
  8865  0D8E  2D9F               	goto	l4215
  8866  0D8F                     u5890:	
  8867  0D8F                     l4207:	
  8868  0D8F  0A5F               	incf	___fladd@bexp,w
  8869  0D90  1D03               	btfss	3,2
  8870  0D91  2D93               	goto	u5901
  8871  0D92  2D94               	goto	u5900
  8872  0D93                     u5901:	
  8873  0D93  2D9C               	goto	l4211
  8874  0D94                     u5900:	
  8875  0D94                     l4209:	
  8876  0D94  3000               	movlw	0
  8877  0D95  00D0               	movwf	___fladd@b+3
  8878  0D96  3000               	movlw	0
  8879  0D97  00CF               	movwf	___fladd@b+2
  8880  0D98  3000               	movlw	0
  8881  0D99  00CE               	movwf	___fladd@b+1
  8882  0D9A  3000               	movlw	0
  8883  0D9B  00CD               	movwf	___fladd@b
  8884  0D9C                     l4211:	
  8885  0D9C  17CF               	bsf	___fladd@b+2,7
  8886  0D9D                     l4213:	
  8887  0D9D  01D0               	clrf	___fladd@b+3
  8888  0D9E  2DA7               	goto	l4217
  8889  0D9F                     l4215:	
  8890  0D9F  3000               	movlw	0
  8891  0DA0  00D0               	movwf	___fladd@b+3
  8892  0DA1  3000               	movlw	0
  8893  0DA2  00CF               	movwf	___fladd@b+2
  8894  0DA3  3000               	movlw	0
  8895  0DA4  00CE               	movwf	___fladd@b+1
  8896  0DA5  3000               	movlw	0
  8897  0DA6  00CD               	movwf	___fladd@b
  8898  0DA7                     l4217:	
  8899  0DA7  0854               	movf	___fladd@a+3,w
  8900  0DA8  3980               	andlw	128
  8901  0DA9  00D5               	movwf	??___fladd
  8902  0DAA  0855               	movf	??___fladd,w
  8903  0DAB  00DE               	movwf	___fladd@aexp
  8904  0DAC                     l4219:	
  8905  0DAC  085E               	movf	___fladd@aexp,w
  8906  0DAD  065D               	xorwf	___fladd@signs,w
  8907  0DAE  1903               	skipnz
  8908  0DAF  2DB1               	goto	u5911
  8909  0DB0  2DB2               	goto	u5910
  8910  0DB1                     u5911:	
  8911  0DB1  2DB3               	goto	l4223
  8912  0DB2                     u5910:	
  8913  0DB2                     l4221:	
  8914  0DB2  175D               	bsf	___fladd@signs,6
  8915  0DB3                     l4223:	
  8916  0DB3  0854               	movf	___fladd@a+3,w
  8917  0DB4  00D5               	movwf	??___fladd
  8918  0DB5  0755               	addwf	??___fladd,w
  8919  0DB6  00D6               	movwf	??___fladd+1
  8920  0DB7  0856               	movf	??___fladd+1,w
  8921  0DB8  00DE               	movwf	___fladd@aexp
  8922  0DB9                     l4225:	
  8923  0DB9  1FD3               	btfss	___fladd@a+2,7
  8924  0DBA  2DBC               	goto	u5921
  8925  0DBB  2DBD               	goto	u5920
  8926  0DBC                     u5921:	
  8927  0DBC  2DBE               	goto	l4229
  8928  0DBD                     u5920:	
  8929  0DBD                     l4227:	
  8930  0DBD  145E               	bsf	___fladd@aexp,0
  8931  0DBE                     l4229:	
  8932  0DBE  085E               	movf	___fladd@aexp,w
  8933  0DBF  1903               	btfsc	3,2
  8934  0DC0  2DC2               	goto	u5931
  8935  0DC1  2DC3               	goto	u5930
  8936  0DC2                     u5931:	
  8937  0DC2  2DD3               	goto	l4239
  8938  0DC3                     u5930:	
  8939  0DC3                     l4231:	
  8940  0DC3  0A5E               	incf	___fladd@aexp,w
  8941  0DC4  1D03               	btfss	3,2
  8942  0DC5  2DC7               	goto	u5941
  8943  0DC6  2DC8               	goto	u5940
  8944  0DC7                     u5941:	
  8945  0DC7  2DD0               	goto	l4235
  8946  0DC8                     u5940:	
  8947  0DC8                     l4233:	
  8948  0DC8  3000               	movlw	0
  8949  0DC9  00D4               	movwf	___fladd@a+3
  8950  0DCA  3000               	movlw	0
  8951  0DCB  00D3               	movwf	___fladd@a+2
  8952  0DCC  3000               	movlw	0
  8953  0DCD  00D2               	movwf	___fladd@a+1
  8954  0DCE  3000               	movlw	0
  8955  0DCF  00D1               	movwf	___fladd@a
  8956  0DD0                     l4235:	
  8957  0DD0  17D3               	bsf	___fladd@a+2,7
  8958  0DD1                     l4237:	
  8959  0DD1  01D4               	clrf	___fladd@a+3
  8960  0DD2  2DDB               	goto	l661
  8961  0DD3                     l4239:	
  8962  0DD3  3000               	movlw	0
  8963  0DD4  00D4               	movwf	___fladd@a+3
  8964  0DD5  3000               	movlw	0
  8965  0DD6  00D3               	movwf	___fladd@a+2
  8966  0DD7  3000               	movlw	0
  8967  0DD8  00D2               	movwf	___fladd@a+1
  8968  0DD9  3000               	movlw	0
  8969  0DDA  00D1               	movwf	___fladd@a
  8970  0DDB                     l661:	
  8971  0DDB  085F               	movf	___fladd@bexp,w
  8972  0DDC  025E               	subwf	___fladd@aexp,w
  8973  0DDD  1803               	skipnc
  8974  0DDE  2DE0               	goto	u5951
  8975  0DDF  2DE1               	goto	u5950
  8976  0DE0                     u5951:	
  8977  0DE0  2E25               	goto	l4275
  8978  0DE1                     u5950:	
  8979  0DE1                     l4241:	
  8980  0DE1  1F5D               	btfss	___fladd@signs,6
  8981  0DE2  2DE4               	goto	u5961
  8982  0DE3  2DE5               	goto	u5960
  8983  0DE4                     u5961:	
  8984  0DE4  2DE9               	goto	l4245
  8985  0DE5                     u5960:	
  8986  0DE5                     l4243:	
  8987  0DE5  3080               	movlw	128
  8988  0DE6  00D5               	movwf	??___fladd
  8989  0DE7  0855               	movf	??___fladd,w
  8990  0DE8  06DD               	xorwf	___fladd@signs,f
  8991  0DE9                     l4245:	
  8992  0DE9  085F               	movf	___fladd@bexp,w
  8993  0DEA  00D5               	movwf	??___fladd
  8994  0DEB  0855               	movf	??___fladd,w
  8995  0DEC  00E0               	movwf	___fladd@grs
  8996  0DED                     l4247:	
  8997  0DED  085E               	movf	___fladd@aexp,w
  8998  0DEE  00D5               	movwf	??___fladd
  8999  0DEF  0855               	movf	??___fladd,w
  9000  0DF0  00DF               	movwf	___fladd@bexp
  9001  0DF1                     l4249:	
  9002  0DF1  0860               	movf	___fladd@grs,w
  9003  0DF2  00D5               	movwf	??___fladd
  9004  0DF3  0855               	movf	??___fladd,w
  9005  0DF4  00DE               	movwf	___fladd@aexp
  9006  0DF5                     l4251:	
  9007  0DF5  084D               	movf	___fladd@b,w
  9008  0DF6  00D5               	movwf	??___fladd
  9009  0DF7  0855               	movf	??___fladd,w
  9010  0DF8  00E0               	movwf	___fladd@grs
  9011  0DF9                     l4253:	
  9012  0DF9  0851               	movf	___fladd@a,w
  9013  0DFA  00D5               	movwf	??___fladd
  9014  0DFB  0855               	movf	??___fladd,w
  9015  0DFC  00CD               	movwf	___fladd@b
  9016  0DFD                     l4255:	
  9017  0DFD  0860               	movf	___fladd@grs,w
  9018  0DFE  00D5               	movwf	??___fladd
  9019  0DFF  0855               	movf	??___fladd,w
  9020  0E00  00D1               	movwf	___fladd@a
  9021  0E01                     l4257:	
  9022  0E01  084E               	movf	___fladd@b+1,w
  9023  0E02  00D5               	movwf	??___fladd
  9024  0E03  0855               	movf	??___fladd,w
  9025  0E04  00E0               	movwf	___fladd@grs
  9026  0E05                     l4259:	
  9027  0E05  0852               	movf	___fladd@a+1,w
  9028  0E06  00D5               	movwf	??___fladd
  9029  0E07  0855               	movf	??___fladd,w
  9030  0E08  00CE               	movwf	___fladd@b+1
  9031  0E09                     l4261:	
  9032  0E09  0860               	movf	___fladd@grs,w
  9033  0E0A  00D5               	movwf	??___fladd
  9034  0E0B  0855               	movf	??___fladd,w
  9035  0E0C  00D2               	movwf	___fladd@a+1
  9036  0E0D                     l4263:	
  9037  0E0D  084F               	movf	___fladd@b+2,w
  9038  0E0E  00D5               	movwf	??___fladd
  9039  0E0F  0855               	movf	??___fladd,w
  9040  0E10  00E0               	movwf	___fladd@grs
  9041  0E11                     l4265:	
  9042  0E11  0853               	movf	___fladd@a+2,w
  9043  0E12  00D5               	movwf	??___fladd
  9044  0E13  0855               	movf	??___fladd,w
  9045  0E14  00CF               	movwf	___fladd@b+2
  9046  0E15                     l4267:	
  9047  0E15  0860               	movf	___fladd@grs,w
  9048  0E16  00D5               	movwf	??___fladd
  9049  0E17  0855               	movf	??___fladd,w
  9050  0E18  00D3               	movwf	___fladd@a+2
  9051  0E19                     l4269:	
  9052  0E19  0850               	movf	___fladd@b+3,w
  9053  0E1A  00D5               	movwf	??___fladd
  9054  0E1B  0855               	movf	??___fladd,w
  9055  0E1C  00E0               	movwf	___fladd@grs
  9056  0E1D                     l4271:	
  9057  0E1D  0854               	movf	___fladd@a+3,w
  9058  0E1E  00D5               	movwf	??___fladd
  9059  0E1F  0855               	movf	??___fladd,w
  9060  0E20  00D0               	movwf	___fladd@b+3
  9061  0E21                     l4273:	
  9062  0E21  0860               	movf	___fladd@grs,w
  9063  0E22  00D5               	movwf	??___fladd
  9064  0E23  0855               	movf	??___fladd,w
  9065  0E24  00D4               	movwf	___fladd@a+3
  9066  0E25                     l4275:	
  9067  0E25  01E0               	clrf	___fladd@grs
  9068  0E26                     l4277:	
  9069  0E26  085E               	movf	___fladd@aexp,w
  9070  0E27  00D5               	movwf	??___fladd
  9071  0E28  01D6               	clrf	??___fladd+1
  9072  0E29  0856               	movf	??___fladd+1,w
  9073  0E2A  00D8               	movwf	??___fladd+3
  9074  0E2B  085F               	movf	___fladd@bexp,w
  9075  0E2C  0255               	subwf	??___fladd,w
  9076  0E2D  00D7               	movwf	??___fladd+2
  9077  0E2E  1C03               	skipc
  9078  0E2F  03D8               	decf	??___fladd+3,f
  9079  0E30  0858               	movf	??___fladd+3,w
  9080  0E31  3A80               	xorlw	128
  9081  0E32  00FF               	movwf	btemp+1
  9082  0E33  3080               	movlw	128
  9083  0E34  027F               	subwf	btemp+1,w
  9084  0E35  1D03               	skipz
  9085  0E36  2E39               	goto	u5975
  9086  0E37  301A               	movlw	26
  9087  0E38  0257               	subwf	??___fladd+2,w
  9088  0E39                     u5975:	
  9089  0E39  1C03               	skipc
  9090  0E3A  2E3C               	goto	u5971
  9091  0E3B  2E3D               	goto	u5970
  9092  0E3C                     u5971:	
  9093  0E3C  2E7A               	goto	l4293
  9094  0E3D                     u5970:	
  9095  0E3D                     l4279:	
  9096  0E3D  1283               	bcf	3,5	;RP0=0, select bank0
  9097  0E3E  1303               	bcf	3,6	;RP1=0, select bank0
  9098  0E3F  0850               	movf	___fladd@b+3,w
  9099  0E40  044F               	iorwf	___fladd@b+2,w
  9100  0E41  044E               	iorwf	___fladd@b+1,w
  9101  0E42  044D               	iorwf	___fladd@b,w
  9102  0E43  1D03               	skipz
  9103  0E44  2E46               	goto	u5981
  9104  0E45  2E48               	goto	u5980
  9105  0E46                     u5981:	
  9106  0E46  3001               	movlw	1
  9107  0E47  2E49               	goto	u5990
  9108  0E48                     u5980:	
  9109  0E48  3000               	movlw	0
  9110  0E49                     u5990:	
  9111  0E49  00D5               	movwf	??___fladd
  9112  0E4A  0855               	movf	??___fladd,w
  9113  0E4B  00E0               	movwf	___fladd@grs
  9114  0E4C  3000               	movlw	0
  9115  0E4D  00D0               	movwf	___fladd@b+3
  9116  0E4E  3000               	movlw	0
  9117  0E4F  00CF               	movwf	___fladd@b+2
  9118  0E50  3000               	movlw	0
  9119  0E51  00CE               	movwf	___fladd@b+1
  9120  0E52  3000               	movlw	0
  9121  0E53  00CD               	movwf	___fladd@b
  9122  0E54  085E               	movf	___fladd@aexp,w
  9123  0E55  00D5               	movwf	??___fladd
  9124  0E56  0855               	movf	??___fladd,w
  9125  0E57  00DF               	movwf	___fladd@bexp
  9126  0E58  2E82               	goto	l665
  9127  0E59                     l667:	
  9128  0E59  1C60               	btfss	___fladd@grs,0
  9129  0E5A  2E5C               	goto	u6001
  9130  0E5B  2E5D               	goto	u6000
  9131  0E5C                     u6001:	
  9132  0E5C  2E66               	goto	l4283
  9133  0E5D                     u6000:	
  9134  0E5D                     l4281:	
  9135  0E5D  0860               	movf	___fladd@grs,w
  9136  0E5E  00D5               	movwf	??___fladd
  9137  0E5F  1003               	clrc
  9138  0E60  0C55               	rrf	??___fladd,w
  9139  0E61  3801               	iorlw	1
  9140  0E62  00D6               	movwf	??___fladd+1
  9141  0E63  0856               	movf	??___fladd+1,w
  9142  0E64  00E0               	movwf	___fladd@grs
  9143  0E65  2E68               	goto	l4285
  9144  0E66                     l4283:	
  9145  0E66  1003               	clrc
  9146  0E67  0CE0               	rrf	___fladd@grs,f
  9147  0E68                     l4285:	
  9148  0E68  1C4D               	btfss	___fladd@b,0
  9149  0E69  2E6B               	goto	u6011
  9150  0E6A  2E6C               	goto	u6010
  9151  0E6B                     u6011:	
  9152  0E6B  2E6D               	goto	l4289
  9153  0E6C                     u6010:	
  9154  0E6C                     l4287:	
  9155  0E6C  17E0               	bsf	___fladd@grs,7
  9156  0E6D                     l4289:	
  9157  0E6D  3001               	movlw	1
  9158  0E6E  00D5               	movwf	??___fladd
  9159  0E6F                     u6025:	
  9160  0E6F  0D50               	rlf	___fladd@b+3,w
  9161  0E70  0CD0               	rrf	___fladd@b+3,f
  9162  0E71  0CCF               	rrf	___fladd@b+2,f
  9163  0E72  0CCE               	rrf	___fladd@b+1,f
  9164  0E73  0CCD               	rrf	___fladd@b,f
  9165  0E74  0BD5               	decfsz	??___fladd& (0+127),f
  9166  0E75  2E6F               	goto	u6025
  9167  0E76                     l4291:	
  9168  0E76  3001               	movlw	1
  9169  0E77  00D5               	movwf	??___fladd
  9170  0E78  0855               	movf	??___fladd,w
  9171  0E79  07DF               	addwf	___fladd@bexp,f
  9172  0E7A                     l4293:	
  9173  0E7A  1283               	bcf	3,5	;RP0=0, select bank0
  9174  0E7B  1303               	bcf	3,6	;RP1=0, select bank0
  9175  0E7C  085E               	movf	___fladd@aexp,w
  9176  0E7D  025F               	subwf	___fladd@bexp,w
  9177  0E7E  1C03               	skipc
  9178  0E7F  2E81               	goto	u6031
  9179  0E80  2E82               	goto	u6030
  9180  0E81                     u6031:	
  9181  0E81  2E59               	goto	l667
  9182  0E82                     u6030:	
  9183  0E82                     l665:	
  9184  0E82  1B5D               	btfsc	___fladd@signs,6
  9185  0E83  2E85               	goto	u6041
  9186  0E84  2E86               	goto	u6040
  9187  0E85                     u6041:	
  9188  0E85  2ED1               	goto	l4319
  9189  0E86                     u6040:	
  9190  0E86                     l4295:	
  9191  0E86  085F               	movf	___fladd@bexp,w
  9192  0E87  1D03               	btfss	3,2
  9193  0E88  2E8A               	goto	u6051
  9194  0E89  2E8B               	goto	u6050
  9195  0E8A                     u6051:	
  9196  0E8A  2E94               	goto	l4301
  9197  0E8B                     u6050:	
  9198  0E8B                     l4297:	
  9199  0E8B  3000               	movlw	0
  9200  0E8C  00D0               	movwf	?___fladd+3
  9201  0E8D  3000               	movlw	0
  9202  0E8E  00CF               	movwf	?___fladd+2
  9203  0E8F  3000               	movlw	0
  9204  0E90  00CE               	movwf	?___fladd+1
  9205  0E91  3000               	movlw	0
  9206  0E92  00CD               	movwf	?___fladd
  9207  0E93  2FFF               	goto	l674
  9208  0E94                     l4301:	
  9209  0E94  0851               	movf	___fladd@a,w
  9210  0E95  07CD               	addwf	___fladd@b,f
  9211  0E96  0852               	movf	___fladd@a+1,w
  9212  0E97  1103               	clrz
  9213  0E98  1803               	skipnc
  9214  0E99  3E01               	addlw	1
  9215  0E9A  1903               	skipnz
  9216  0E9B  2E9D               	goto	u6061
  9217  0E9C  07CE               	addwf	___fladd@b+1,f
  9218  0E9D                     u6061:	
  9219  0E9D  0853               	movf	___fladd@a+2,w
  9220  0E9E  1103               	clrz
  9221  0E9F  1803               	skipnc
  9222  0EA0  3E01               	addlw	1
  9223  0EA1  1903               	skipnz
  9224  0EA2  2EA4               	goto	u6062
  9225  0EA3  07CF               	addwf	___fladd@b+2,f
  9226  0EA4                     u6062:	
  9227  0EA4  0854               	movf	___fladd@a+3,w
  9228  0EA5  1103               	clrz
  9229  0EA6  1803               	skipnc
  9230  0EA7  3E01               	addlw	1
  9231  0EA8  1903               	skipnz
  9232  0EA9  2EAB               	goto	u6063
  9233  0EAA  07D0               	addwf	___fladd@b+3,f
  9234  0EAB                     u6063:	
  9235  0EAB                     l4303:	
  9236  0EAB  1C50               	btfss	___fladd@b+3,0
  9237  0EAC  2EAE               	goto	u6071
  9238  0EAD  2EAF               	goto	u6070
  9239  0EAE                     u6071:	
  9240  0EAE  2F85               	goto	l4353
  9241  0EAF                     u6070:	
  9242  0EAF                     l4305:	
  9243  0EAF  1C60               	btfss	___fladd@grs,0
  9244  0EB0  2EB2               	goto	u6081
  9245  0EB1  2EB3               	goto	u6080
  9246  0EB2                     u6081:	
  9247  0EB2  2EBC               	goto	l4309
  9248  0EB3                     u6080:	
  9249  0EB3                     l4307:	
  9250  0EB3  0860               	movf	___fladd@grs,w
  9251  0EB4  00D5               	movwf	??___fladd
  9252  0EB5  1003               	clrc
  9253  0EB6  0C55               	rrf	??___fladd,w
  9254  0EB7  3801               	iorlw	1
  9255  0EB8  00D6               	movwf	??___fladd+1
  9256  0EB9  0856               	movf	??___fladd+1,w
  9257  0EBA  00E0               	movwf	___fladd@grs
  9258  0EBB  2EBE               	goto	l4311
  9259  0EBC                     l4309:	
  9260  0EBC  1003               	clrc
  9261  0EBD  0CE0               	rrf	___fladd@grs,f
  9262  0EBE                     l4311:	
  9263  0EBE  1C4D               	btfss	___fladd@b,0
  9264  0EBF  2EC1               	goto	u6091
  9265  0EC0  2EC2               	goto	u6090
  9266  0EC1                     u6091:	
  9267  0EC1  2EC3               	goto	l4315
  9268  0EC2                     u6090:	
  9269  0EC2                     l4313:	
  9270  0EC2  17E0               	bsf	___fladd@grs,7
  9271  0EC3                     l4315:	
  9272  0EC3  3001               	movlw	1
  9273  0EC4  00D5               	movwf	??___fladd
  9274  0EC5                     u6105:	
  9275  0EC5  0D50               	rlf	___fladd@b+3,w
  9276  0EC6  0CD0               	rrf	___fladd@b+3,f
  9277  0EC7  0CCF               	rrf	___fladd@b+2,f
  9278  0EC8  0CCE               	rrf	___fladd@b+1,f
  9279  0EC9  0CCD               	rrf	___fladd@b,f
  9280  0ECA  0BD5               	decfsz	??___fladd& (0+127),f
  9281  0ECB  2EC5               	goto	u6105
  9282  0ECC                     l4317:	
  9283  0ECC  3001               	movlw	1
  9284  0ECD  00D5               	movwf	??___fladd
  9285  0ECE  0855               	movf	??___fladd,w
  9286  0ECF  07DF               	addwf	___fladd@bexp,f
  9287  0ED0  2F85               	goto	l4353
  9288  0ED1                     l4319:	
  9289  0ED1  0850               	movf	___fladd@b+3,w
  9290  0ED2  3A80               	xorlw	128
  9291  0ED3  00FF               	movwf	btemp+1
  9292  0ED4  0854               	movf	___fladd@a+3,w
  9293  0ED5  3A80               	xorlw	128
  9294  0ED6  027F               	subwf	btemp+1,w
  9295  0ED7  1D03               	skipz
  9296  0ED8  2EE3               	goto	u6113
  9297  0ED9  0853               	movf	___fladd@a+2,w
  9298  0EDA  024F               	subwf	___fladd@b+2,w
  9299  0EDB  1D03               	skipz
  9300  0EDC  2EE3               	goto	u6113
  9301  0EDD  0852               	movf	___fladd@a+1,w
  9302  0EDE  024E               	subwf	___fladd@b+1,w
  9303  0EDF  1D03               	skipz
  9304  0EE0  2EE3               	goto	u6113
  9305  0EE1  0851               	movf	___fladd@a,w
  9306  0EE2  024D               	subwf	___fladd@b,w
  9307  0EE3                     u6113:	
  9308  0EE3  1803               	skipnc
  9309  0EE4  2EE6               	goto	u6111
  9310  0EE5  2EE7               	goto	u6110
  9311  0EE6                     u6111:	
  9312  0EE6  2F3F               	goto	l4329
  9313  0EE7                     u6110:	
  9314  0EE7                     l4321:	
  9315  0EE7  30FF               	movlw	255
  9316  0EE8  00D5               	movwf	??___fladd
  9317  0EE9  30FF               	movlw	255
  9318  0EEA  00D6               	movwf	??___fladd+1
  9319  0EEB  30FF               	movlw	255
  9320  0EEC  00D7               	movwf	??___fladd+2
  9321  0EED  30FF               	movlw	255
  9322  0EEE  00D8               	movwf	??___fladd+3
  9323  0EEF  0851               	movf	___fladd@a,w
  9324  0EF0  00D9               	movwf	??___fladd+4
  9325  0EF1  0852               	movf	___fladd@a+1,w
  9326  0EF2  00DA               	movwf	??___fladd+5
  9327  0EF3  0853               	movf	___fladd@a+2,w
  9328  0EF4  00DB               	movwf	??___fladd+6
  9329  0EF5  0854               	movf	___fladd@a+3,w
  9330  0EF6  00DC               	movwf	??___fladd+7
  9331  0EF7  084D               	movf	___fladd@b,w
  9332  0EF8  02D9               	subwf	??___fladd+4,f
  9333  0EF9  084E               	movf	___fladd@b+1,w
  9334  0EFA  1C03               	skipc
  9335  0EFB  0F4E               	incfsz	___fladd@b+1,w
  9336  0EFC  2EFE               	goto	u6121
  9337  0EFD  2EFF               	goto	u6122
  9338  0EFE                     u6121:	
  9339  0EFE  02DA               	subwf	??___fladd+5,f
  9340  0EFF                     u6122:	
  9341  0EFF  084F               	movf	___fladd@b+2,w
  9342  0F00  1C03               	skipc
  9343  0F01  0F4F               	incfsz	___fladd@b+2,w
  9344  0F02  2F04               	goto	u6123
  9345  0F03  2F05               	goto	u6124
  9346  0F04                     u6123:	
  9347  0F04  02DB               	subwf	??___fladd+6,f
  9348  0F05                     u6124:	
  9349  0F05  0850               	movf	___fladd@b+3,w
  9350  0F06  1C03               	skipc
  9351  0F07  0F50               	incfsz	___fladd@b+3,w
  9352  0F08  2F0A               	goto	u6125
  9353  0F09  2F0B               	goto	u6126
  9354  0F0A                     u6125:	
  9355  0F0A  02DC               	subwf	??___fladd+7,f
  9356  0F0B                     u6126:	
  9357  0F0B  0859               	movf	??___fladd+4,w
  9358  0F0C  07D5               	addwf	??___fladd,f
  9359  0F0D  085A               	movf	??___fladd+5,w
  9360  0F0E  1803               	skipnc
  9361  0F0F  0F5A               	incfsz	??___fladd+5,w
  9362  0F10  2F12               	goto	u6130
  9363  0F11  2F13               	goto	u6131
  9364  0F12                     u6130:	
  9365  0F12  07D6               	addwf	??___fladd+1,f
  9366  0F13                     u6131:	
  9367  0F13  085B               	movf	??___fladd+6,w
  9368  0F14  1803               	skipnc
  9369  0F15  0F5B               	incfsz	??___fladd+6,w
  9370  0F16  2F18               	goto	u6132
  9371  0F17  2F19               	goto	u6133
  9372  0F18                     u6132:	
  9373  0F18  07D7               	addwf	??___fladd+2,f
  9374  0F19                     u6133:	
  9375  0F19  085C               	movf	??___fladd+7,w
  9376  0F1A  1803               	skipnc
  9377  0F1B  0A5C               	incf	??___fladd+7,w
  9378  0F1C  07D8               	addwf	??___fladd+3,f
  9379  0F1D  0858               	movf	??___fladd+3,w
  9380  0F1E  00D0               	movwf	___fladd@b+3
  9381  0F1F  0857               	movf	??___fladd+2,w
  9382  0F20  00CF               	movwf	___fladd@b+2
  9383  0F21  0856               	movf	??___fladd+1,w
  9384  0F22  00CE               	movwf	___fladd@b+1
  9385  0F23  0855               	movf	??___fladd,w
  9386  0F24  00CD               	movwf	___fladd@b
  9387  0F25                     l4323:	
  9388  0F25  3080               	movlw	128
  9389  0F26  00D5               	movwf	??___fladd
  9390  0F27  0855               	movf	??___fladd,w
  9391  0F28  06DD               	xorwf	___fladd@signs,f
  9392  0F29  09E0               	comf	___fladd@grs,f
  9393  0F2A  0AE0               	incf	___fladd@grs,f
  9394  0F2B                     l4325:	
  9395  0F2B  0860               	movf	___fladd@grs,w
  9396  0F2C  1D03               	btfss	3,2
  9397  0F2D  2F2F               	goto	u6141
  9398  0F2E  2F30               	goto	u6140
  9399  0F2F                     u6141:	
  9400  0F2F  2F4D               	goto	l682
  9401  0F30                     u6140:	
  9402  0F30                     l4327:	
  9403  0F30  3001               	movlw	1
  9404  0F31  07CD               	addwf	___fladd@b,f
  9405  0F32  3000               	movlw	0
  9406  0F33  1803               	skipnc
  9407  0F34  3001               	movlw	1
  9408  0F35  07CE               	addwf	___fladd@b+1,f
  9409  0F36  3000               	movlw	0
  9410  0F37  1803               	skipnc
  9411  0F38  3001               	movlw	1
  9412  0F39  07CF               	addwf	___fladd@b+2,f
  9413  0F3A  3000               	movlw	0
  9414  0F3B  1803               	skipnc
  9415  0F3C  3001               	movlw	1
  9416  0F3D  07D0               	addwf	___fladd@b+3,f
  9417  0F3E  2F4D               	goto	l682
  9418  0F3F                     l4329:	
  9419  0F3F  0851               	movf	___fladd@a,w
  9420  0F40  02CD               	subwf	___fladd@b,f
  9421  0F41  0852               	movf	___fladd@a+1,w
  9422  0F42  1C03               	skipc
  9423  0F43  0F52               	incfsz	___fladd@a+1,w
  9424  0F44  02CE               	subwf	___fladd@b+1,f
  9425  0F45  0853               	movf	___fladd@a+2,w
  9426  0F46  1C03               	skipc
  9427  0F47  0F53               	incfsz	___fladd@a+2,w
  9428  0F48  02CF               	subwf	___fladd@b+2,f
  9429  0F49  0854               	movf	___fladd@a+3,w
  9430  0F4A  1C03               	skipc
  9431  0F4B  0F54               	incfsz	___fladd@a+3,w
  9432  0F4C  02D0               	subwf	___fladd@b+3,f
  9433  0F4D                     l682:	
  9434  0F4D  0850               	movf	___fladd@b+3,w
  9435  0F4E  044F               	iorwf	___fladd@b+2,w
  9436  0F4F  044E               	iorwf	___fladd@b+1,w
  9437  0F50  044D               	iorwf	___fladd@b,w
  9438  0F51  1D03               	skipz
  9439  0F52  2F54               	goto	u6151
  9440  0F53  2F55               	goto	u6150
  9441  0F54                     u6151:	
  9442  0F54  2F81               	goto	l4351
  9443  0F55                     u6150:	
  9444  0F55                     l4331:	
  9445  0F55  0860               	movf	___fladd@grs,w
  9446  0F56  1D03               	btfss	3,2
  9447  0F57  2F59               	goto	u6161
  9448  0F58  2F5A               	goto	u6160
  9449  0F59                     u6161:	
  9450  0F59  2F81               	goto	l4351
  9451  0F5A                     u6160:	
  9452  0F5A                     l4333:	
  9453  0F5A  3000               	movlw	0
  9454  0F5B  00D0               	movwf	?___fladd+3
  9455  0F5C  3000               	movlw	0
  9456  0F5D  00CF               	movwf	?___fladd+2
  9457  0F5E  3000               	movlw	0
  9458  0F5F  00CE               	movwf	?___fladd+1
  9459  0F60  3000               	movlw	0
  9460  0F61  00CD               	movwf	?___fladd
  9461  0F62  2FFF               	goto	l674
  9462  0F63                     l4337:	
  9463  0F63  3001               	movlw	1
  9464  0F64  00D5               	movwf	??___fladd
  9465  0F65                     u6175:	
  9466  0F65  1003               	clrc
  9467  0F66  0DCD               	rlf	___fladd@b,f
  9468  0F67  0DCE               	rlf	___fladd@b+1,f
  9469  0F68  0DCF               	rlf	___fladd@b+2,f
  9470  0F69  0DD0               	rlf	___fladd@b+3,f
  9471  0F6A  0BD5               	decfsz	??___fladd,f
  9472  0F6B  2F65               	goto	u6175
  9473  0F6C                     l4339:	
  9474  0F6C  1FE0               	btfss	___fladd@grs,7
  9475  0F6D  2F6F               	goto	u6181
  9476  0F6E  2F70               	goto	u6180
  9477  0F6F                     u6181:	
  9478  0F6F  2F71               	goto	l686
  9479  0F70                     u6180:	
  9480  0F70                     l4341:	
  9481  0F70  144D               	bsf	___fladd@b,0
  9482  0F71                     l686:	
  9483  0F71  1C60               	btfss	___fladd@grs,0
  9484  0F72  2F74               	goto	u6191
  9485  0F73  2F75               	goto	u6190
  9486  0F74                     u6191:	
  9487  0F74  2F78               	goto	l4345
  9488  0F75                     u6190:	
  9489  0F75                     l4343:	
  9490  0F75  1403               	setc
  9491  0F76  0DE0               	rlf	___fladd@grs,f
  9492  0F77  2F7A               	goto	l4347
  9493  0F78                     l4345:	
  9494  0F78  1003               	clrc
  9495  0F79  0DE0               	rlf	___fladd@grs,f
  9496  0F7A                     l4347:	
  9497  0F7A  085F               	movf	___fladd@bexp,w
  9498  0F7B  1903               	btfsc	3,2
  9499  0F7C  2F7E               	goto	u6201
  9500  0F7D  2F7F               	goto	u6200
  9501  0F7E                     u6201:	
  9502  0F7E  2F81               	goto	l4351
  9503  0F7F                     u6200:	
  9504  0F7F                     l4349:	
  9505  0F7F  3001               	movlw	1
  9506  0F80  02DF               	subwf	___fladd@bexp,f
  9507  0F81                     l4351:	
  9508  0F81  1FCF               	btfss	___fladd@b+2,7
  9509  0F82  2F84               	goto	u6211
  9510  0F83  2F85               	goto	u6210
  9511  0F84                     u6211:	
  9512  0F84  2F63               	goto	l4337
  9513  0F85                     u6210:	
  9514  0F85                     l4353:	
  9515  0F85  01DE               	clrf	___fladd@aexp
  9516  0F86                     l4355:	
  9517  0F86  1FE0               	btfss	___fladd@grs,7
  9518  0F87  2F89               	goto	u6221
  9519  0F88  2F8A               	goto	u6220
  9520  0F89                     u6221:	
  9521  0F89  2F98               	goto	l4363
  9522  0F8A                     u6220:	
  9523  0F8A                     l4357:	
  9524  0F8A  0860               	movf	___fladd@grs,w
  9525  0F8B  397F               	andlw	127
  9526  0F8C  1903               	btfsc	3,2
  9527  0F8D  2F8F               	goto	u6231
  9528  0F8E  2F90               	goto	u6230
  9529  0F8F                     u6231:	
  9530  0F8F  2F93               	goto	l692
  9531  0F90                     u6230:	
  9532  0F90                     l4359:	
  9533  0F90  01DE               	clrf	___fladd@aexp
  9534  0F91  0ADE               	incf	___fladd@aexp,f
  9535  0F92  2F98               	goto	l4363
  9536  0F93                     l692:	
  9537  0F93  1C4D               	btfss	___fladd@b,0
  9538  0F94  2F96               	goto	u6241
  9539  0F95  2F97               	goto	u6240
  9540  0F96                     u6241:	
  9541  0F96  2F98               	goto	l4363
  9542  0F97                     u6240:	
  9543  0F97  2F90               	goto	l4359
  9544  0F98                     l4363:	
  9545  0F98  085E               	movf	___fladd@aexp,w
  9546  0F99  1903               	btfsc	3,2
  9547  0F9A  2F9C               	goto	u6251
  9548  0F9B  2F9D               	goto	u6250
  9549  0F9C                     u6251:	
  9550  0F9C  2FD1               	goto	l695
  9551  0F9D                     u6250:	
  9552  0F9D                     l4365:	
  9553  0F9D  3001               	movlw	1
  9554  0F9E  07CD               	addwf	___fladd@b,f
  9555  0F9F  3000               	movlw	0
  9556  0FA0  1803               	skipnc
  9557  0FA1  3001               	movlw	1
  9558  0FA2  07CE               	addwf	___fladd@b+1,f
  9559  0FA3  3000               	movlw	0
  9560  0FA4  1803               	skipnc
  9561  0FA5  3001               	movlw	1
  9562  0FA6  07CF               	addwf	___fladd@b+2,f
  9563  0FA7  3000               	movlw	0
  9564  0FA8  1803               	skipnc
  9565  0FA9  3001               	movlw	1
  9566  0FAA  07D0               	addwf	___fladd@b+3,f
  9567  0FAB                     l4367:	
  9568  0FAB  1C50               	btfss	___fladd@b+3,0
  9569  0FAC  2FAE               	goto	u6261
  9570  0FAD  2FAF               	goto	u6260
  9571  0FAE                     u6261:	
  9572  0FAE  2FD1               	goto	l695
  9573  0FAF                     u6260:	
  9574  0FAF                     l4369:	
  9575  0FAF  084D               	movf	___fladd@b,w
  9576  0FB0  00D5               	movwf	??___fladd
  9577  0FB1  084E               	movf	___fladd@b+1,w
  9578  0FB2  00D6               	movwf	??___fladd+1
  9579  0FB3  084F               	movf	___fladd@b+2,w
  9580  0FB4  00D7               	movwf	??___fladd+2
  9581  0FB5  0850               	movf	___fladd@b+3,w
  9582  0FB6  00D8               	movwf	??___fladd+3
  9583  0FB7  3001               	movlw	1
  9584  0FB8  00D9               	movwf	??___fladd+4
  9585  0FB9                     u6275:	
  9586  0FB9  0D58               	rlf	??___fladd+3,w
  9587  0FBA  0CD8               	rrf	??___fladd+3,f
  9588  0FBB  0CD7               	rrf	??___fladd+2,f
  9589  0FBC  0CD6               	rrf	??___fladd+1,f
  9590  0FBD  0CD5               	rrf	??___fladd,f
  9591  0FBE                     u6270:	
  9592  0FBE  0BD9               	decfsz	??___fladd+4,f
  9593  0FBF  2FB9               	goto	u6275
  9594  0FC0  0858               	movf	??___fladd+3,w
  9595  0FC1  00D0               	movwf	___fladd@b+3
  9596  0FC2  0857               	movf	??___fladd+2,w
  9597  0FC3  00CF               	movwf	___fladd@b+2
  9598  0FC4  0856               	movf	??___fladd+1,w
  9599  0FC5  00CE               	movwf	___fladd@b+1
  9600  0FC6  0855               	movf	??___fladd,w
  9601  0FC7  00CD               	movwf	___fladd@b
  9602  0FC8  0A5F               	incf	___fladd@bexp,w
  9603  0FC9  1903               	btfsc	3,2
  9604  0FCA  2FCC               	goto	u6281
  9605  0FCB  2FCD               	goto	u6280
  9606  0FCC                     u6281:	
  9607  0FCC  2FD1               	goto	l695
  9608  0FCD                     u6280:	
  9609  0FCD                     l4371:	
  9610  0FCD  3001               	movlw	1
  9611  0FCE  00D5               	movwf	??___fladd
  9612  0FCF  0855               	movf	??___fladd,w
  9613  0FD0  07DF               	addwf	___fladd@bexp,f
  9614  0FD1                     l695:	
  9615  0FD1  0A5F               	incf	___fladd@bexp,w
  9616  0FD2  1903               	btfsc	3,2
  9617  0FD3  2FD5               	goto	u6291
  9618  0FD4  2FD6               	goto	u6290
  9619  0FD5                     u6291:	
  9620  0FD5  2FDB               	goto	l4375
  9621  0FD6                     u6290:	
  9622  0FD6                     l4373:	
  9623  0FD6  085F               	movf	___fladd@bexp,w
  9624  0FD7  1D03               	btfss	3,2
  9625  0FD8  2FDA               	goto	u6301
  9626  0FD9  2FDB               	goto	u6300
  9627  0FDA                     u6301:	
  9628  0FDA  2FE9               	goto	l4381
  9629  0FDB                     u6300:	
  9630  0FDB                     l4375:	
  9631  0FDB  3000               	movlw	0
  9632  0FDC  00D0               	movwf	___fladd@b+3
  9633  0FDD  3000               	movlw	0
  9634  0FDE  00CF               	movwf	___fladd@b+2
  9635  0FDF  3000               	movlw	0
  9636  0FE0  00CE               	movwf	___fladd@b+1
  9637  0FE1  3000               	movlw	0
  9638  0FE2  00CD               	movwf	___fladd@b
  9639  0FE3                     l4377:	
  9640  0FE3  085F               	movf	___fladd@bexp,w
  9641  0FE4  1D03               	btfss	3,2
  9642  0FE5  2FE7               	goto	u6311
  9643  0FE6  2FE8               	goto	u6310
  9644  0FE7                     u6311:	
  9645  0FE7  2FE9               	goto	l4381
  9646  0FE8                     u6310:	
  9647  0FE8                     l4379:	
  9648  0FE8  01DD               	clrf	___fladd@signs
  9649  0FE9                     l4381:	
  9650  0FE9  1C5F               	btfss	___fladd@bexp,0
  9651  0FEA  2FEC               	goto	u6321
  9652  0FEB  2FED               	goto	u6320
  9653  0FEC                     u6321:	
  9654  0FEC  2FEF               	goto	l4385
  9655  0FED                     u6320:	
  9656  0FED                     l4383:	
  9657  0FED  17CF               	bsf	___fladd@b+2,7
  9658  0FEE  2FF3               	goto	l703
  9659  0FEF                     l4385:	
  9660  0FEF  307F               	movlw	127
  9661  0FF0  00D5               	movwf	??___fladd
  9662  0FF1  0855               	movf	??___fladd,w
  9663  0FF2  05CF               	andwf	___fladd@b+2,f
  9664  0FF3                     l703:	
  9665  0FF3  085F               	movf	___fladd@bexp,w
  9666  0FF4  00D5               	movwf	??___fladd
  9667  0FF5  1003               	clrc
  9668  0FF6  0C55               	rrf	??___fladd,w
  9669  0FF7  00D6               	movwf	??___fladd+1
  9670  0FF8  0856               	movf	??___fladd+1,w
  9671  0FF9  00D0               	movwf	___fladd@b+3
  9672  0FFA                     l4387:	
  9673  0FFA  1FDD               	btfss	___fladd@signs,7
  9674  0FFB  2FFD               	goto	u6331
  9675  0FFC  2FFE               	goto	u6330
  9676  0FFD                     u6331:	
  9677  0FFD  2FFF               	goto	l704
  9678  0FFE                     u6330:	
  9679  0FFE                     l4389:	
  9680  0FFE  17D0               	bsf	___fladd@b+3,7
  9681  0FFF                     l704:	
  9682  0FFF                     l674:	
  9683  0FFF  0008               	return
  9684  1000                     __end_of___fladd:	
  9685                           
  9686                           	psect	text23
  9687  1936                     __ptext23:	
  9688 ;; *************** function ___flneg *****************
  9689 ;; Defined at:
  9690 ;;		line 15 in file "C:\Program Files (x86)\Microchip\xc8\v2.10\pic\sources\c90\common\flneg.c"
  9691 ;; Parameters:    Size  Location     Type
  9692 ;;  f1              4    0[COMMON] unsigned char 
  9693 ;; Auto vars:     Size  Location     Type
  9694 ;;		None
  9695 ;; Return value:  Size  Location     Type
  9696 ;;                  4    0[COMMON] unsigned char 
  9697 ;; Registers used:
  9698 ;;		wreg
  9699 ;; Tracked objects:
  9700 ;;		On entry : 0/0
  9701 ;;		On exit  : 0/0
  9702 ;;		Unchanged: 0/0
  9703 ;; Data sizes:     COMMON   BANK0   BANK1   BANK3   BANK2
  9704 ;;      Params:         4       0       0       0       0
  9705 ;;      Locals:         0       0       0       0       0
  9706 ;;      Temps:          0       0       0       0       0
  9707 ;;      Totals:         4       0       0       0       0
  9708 ;;Total ram usage:        4 bytes
  9709 ;; Hardware stack levels used:    1
  9710 ;; This function calls:
  9711 ;;		Nothing
  9712 ;; This function is called by:
  9713 ;;		_pow
  9714 ;;		_exp
  9715 ;; This function uses a non-reentrant model
  9716 ;;
  9717                           
  9718                           
  9719                           ;psect for function ___flneg
  9720  1936                     ___flneg:	
  9721  1936                     l4595:	
  9722                           ;incstack = 0
  9723                           ; Regs used in ___flneg: [wreg]
  9724                           
  9725  1936  0873               	movf	___flneg@f1+3,w
  9726  1937  0472               	iorwf	___flneg@f1+2,w
  9727  1938  0471               	iorwf	___flneg@f1+1,w
  9728  1939  0470               	iorwf	___flneg@f1,w
  9729  193A  1903               	skipnz
  9730  193B  293D               	goto	u6861
  9731  193C  293E               	goto	u6860
  9732  193D                     u6861:	
  9733  193D  2940               	goto	l4599
  9734  193E                     u6860:	
  9735  193E                     l4597:	
  9736  193E  3080               	movlw	128
  9737  193F  06F3               	xorwf	___flneg@f1+3,f
  9738  1940                     l4599:	
  9739  1940                     l550:	
  9740  1940  0008               	return
  9741  1941                     __end_of___flneg:	
  9742                           
  9743                           	psect	text24
  9744  161D                     __ptext24:	
  9745 ;; *************** function ___fldiv *****************
  9746 ;; Defined at:
  9747 ;;		line 8 in file "C:\Program Files (x86)\Microchip\xc8\v2.10\pic\sources\c90\common\sprcdiv.c"
  9748 ;; Parameters:    Size  Location     Type
  9749 ;;  a               4    0[COMMON] unsigned char 
  9750 ;;  b               4    4[COMMON] unsigned char 
  9751 ;; Auto vars:     Size  Location     Type
  9752 ;;  grs             4    7[BANK0 ] unsigned long 
  9753 ;;  rem             4    0[BANK0 ] unsigned long 
  9754 ;;  new_exp         2    5[BANK0 ] int 
  9755 ;;  aexp            1   12[BANK0 ] unsigned char 
  9756 ;;  bexp            1   11[BANK0 ] unsigned char 
  9757 ;;  sign            1    4[BANK0 ] unsigned char 
  9758 ;; Return value:  Size  Location     Type
  9759 ;;                  4    0[COMMON] unsigned char 
  9760 ;; Registers used:
  9761 ;;		wreg, status,2, status,0, btemp+1
  9762 ;; Tracked objects:
  9763 ;;		On entry : 0/0
  9764 ;;		On exit  : 0/0
  9765 ;;		Unchanged: 0/0
  9766 ;; Data sizes:     COMMON   BANK0   BANK1   BANK3   BANK2
  9767 ;;      Params:         8       0       0       0       0
  9768 ;;      Locals:         0      13       0       0       0
  9769 ;;      Temps:          5       0       0       0       0
  9770 ;;      Totals:        13      13       0       0       0
  9771 ;;Total ram usage:       26 bytes
  9772 ;; Hardware stack levels used:    1
  9773 ;; This function calls:
  9774 ;;		Nothing
  9775 ;; This function is called by:
  9776 ;;		_exp
  9777 ;; This function uses a non-reentrant model
  9778 ;;
  9779                           
  9780                           
  9781                           ;psect for function ___fldiv
  9782  161D                     ___fldiv:	
  9783  161D                     l4609:	
  9784                           ;incstack = 0
  9785                           ; Regs used in ___fldiv: [wreg+status,2+status,0+btemp+1]
  9786                           
  9787  161D  0877               	movf	___fldiv@b+3,w
  9788  161E  3980               	andlw	128
  9789  161F  00F8               	movwf	??___fldiv
  9790  1620  0878               	movf	??___fldiv,w
  9791  1621  1283               	bcf	3,5	;RP0=0, select bank0
  9792  1622  1303               	bcf	3,6	;RP1=0, select bank0
  9793  1623  00A4               	movwf	___fldiv@sign
  9794  1624                     l4611:	
  9795  1624  0877               	movf	___fldiv@b+3,w
  9796  1625  00F8               	movwf	??___fldiv
  9797  1626  0778               	addwf	??___fldiv,w
  9798  1627  00F9               	movwf	??___fldiv+1
  9799  1628  0879               	movf	??___fldiv+1,w
  9800  1629  00AB               	movwf	___fldiv@bexp
  9801  162A                     l4613:	
  9802  162A  1FF6               	btfss	___fldiv@b+2,7
  9803  162B  2E2D               	goto	u6871
  9804  162C  2E2E               	goto	u6870
  9805  162D                     u6871:	
  9806  162D  2E2F               	goto	l4617
  9807  162E                     u6870:	
  9808  162E                     l4615:	
  9809  162E  142B               	bsf	___fldiv@bexp,0
  9810  162F                     l4617:	
  9811  162F  082B               	movf	___fldiv@bexp,w
  9812  1630  1903               	btfsc	3,2
  9813  1631  2E33               	goto	u6881
  9814  1632  2E34               	goto	u6880
  9815  1633                     u6881:	
  9816  1633  2E44               	goto	l4627
  9817  1634                     u6880:	
  9818  1634                     l4619:	
  9819  1634  0A2B               	incf	___fldiv@bexp,w
  9820  1635  1D03               	btfss	3,2
  9821  1636  2E38               	goto	u6891
  9822  1637  2E39               	goto	u6890
  9823  1638                     u6891:	
  9824  1638  2E41               	goto	l4623
  9825  1639                     u6890:	
  9826  1639                     l4621:	
  9827  1639  3000               	movlw	0
  9828  163A  00F7               	movwf	___fldiv@b+3
  9829  163B  3000               	movlw	0
  9830  163C  00F6               	movwf	___fldiv@b+2
  9831  163D  3000               	movlw	0
  9832  163E  00F5               	movwf	___fldiv@b+1
  9833  163F  3000               	movlw	0
  9834  1640  00F4               	movwf	___fldiv@b
  9835  1641                     l4623:	
  9836  1641  17F6               	bsf	___fldiv@b+2,7
  9837  1642                     l4625:	
  9838  1642  01F7               	clrf	___fldiv@b+3
  9839  1643  2E4C               	goto	l4629
  9840  1644                     l4627:	
  9841  1644  3000               	movlw	0
  9842  1645  00F7               	movwf	___fldiv@b+3
  9843  1646  3000               	movlw	0
  9844  1647  00F6               	movwf	___fldiv@b+2
  9845  1648  3000               	movlw	0
  9846  1649  00F5               	movwf	___fldiv@b+1
  9847  164A  3000               	movlw	0
  9848  164B  00F4               	movwf	___fldiv@b
  9849  164C                     l4629:	
  9850  164C  0873               	movf	___fldiv@a+3,w
  9851  164D  3980               	andlw	128
  9852  164E  00F8               	movwf	??___fldiv
  9853  164F  0878               	movf	??___fldiv,w
  9854  1650  06A4               	xorwf	___fldiv@sign,f
  9855  1651                     l4631:	
  9856  1651  0873               	movf	___fldiv@a+3,w
  9857  1652  00F8               	movwf	??___fldiv
  9858  1653  0778               	addwf	??___fldiv,w
  9859  1654  00F9               	movwf	??___fldiv+1
  9860  1655  0879               	movf	??___fldiv+1,w
  9861  1656  00AC               	movwf	___fldiv@aexp
  9862  1657                     l4633:	
  9863  1657  1FF2               	btfss	___fldiv@a+2,7
  9864  1658  2E5A               	goto	u6901
  9865  1659  2E5B               	goto	u6900
  9866  165A                     u6901:	
  9867  165A  2E5C               	goto	l4637
  9868  165B                     u6900:	
  9869  165B                     l4635:	
  9870  165B  142C               	bsf	___fldiv@aexp,0
  9871  165C                     l4637:	
  9872  165C  082C               	movf	___fldiv@aexp,w
  9873  165D  1903               	btfsc	3,2
  9874  165E  2E60               	goto	u6911
  9875  165F  2E61               	goto	u6910
  9876  1660                     u6911:	
  9877  1660  2E71               	goto	l4647
  9878  1661                     u6910:	
  9879  1661                     l4639:	
  9880  1661  0A2C               	incf	___fldiv@aexp,w
  9881  1662  1D03               	btfss	3,2
  9882  1663  2E65               	goto	u6921
  9883  1664  2E66               	goto	u6920
  9884  1665                     u6921:	
  9885  1665  2E6E               	goto	l4643
  9886  1666                     u6920:	
  9887  1666                     l4641:	
  9888  1666  3000               	movlw	0
  9889  1667  00F3               	movwf	___fldiv@a+3
  9890  1668  3000               	movlw	0
  9891  1669  00F2               	movwf	___fldiv@a+2
  9892  166A  3000               	movlw	0
  9893  166B  00F1               	movwf	___fldiv@a+1
  9894  166C  3000               	movlw	0
  9895  166D  00F0               	movwf	___fldiv@a
  9896  166E                     l4643:	
  9897  166E  17F2               	bsf	___fldiv@a+2,7
  9898  166F                     l4645:	
  9899  166F  01F3               	clrf	___fldiv@a+3
  9900  1670  2E79               	goto	l717
  9901  1671                     l4647:	
  9902  1671  3000               	movlw	0
  9903  1672  00F3               	movwf	___fldiv@a+3
  9904  1673  3000               	movlw	0
  9905  1674  00F2               	movwf	___fldiv@a+2
  9906  1675  3000               	movlw	0
  9907  1676  00F1               	movwf	___fldiv@a+1
  9908  1677  3000               	movlw	0
  9909  1678  00F0               	movwf	___fldiv@a
  9910  1679                     l717:	
  9911  1679  0873               	movf	___fldiv@a+3,w
  9912  167A  0472               	iorwf	___fldiv@a+2,w
  9913  167B  0471               	iorwf	___fldiv@a+1,w
  9914  167C  0470               	iorwf	___fldiv@a,w
  9915  167D  1D03               	skipz
  9916  167E  2E80               	goto	u6931
  9917  167F  2E81               	goto	u6930
  9918  1680                     u6931:	
  9919  1680  2E9A               	goto	l4657
  9920  1681                     u6930:	
  9921  1681                     l4649:	
  9922  1681  3000               	movlw	0
  9923  1682  00F7               	movwf	___fldiv@b+3
  9924  1683  3000               	movlw	0
  9925  1684  00F6               	movwf	___fldiv@b+2
  9926  1685  3000               	movlw	0
  9927  1686  00F5               	movwf	___fldiv@b+1
  9928  1687  3000               	movlw	0
  9929  1688  00F4               	movwf	___fldiv@b
  9930  1689  3080               	movlw	128
  9931  168A  04F6               	iorwf	___fldiv@b+2,f
  9932  168B  307F               	movlw	127
  9933  168C  04F7               	iorwf	___fldiv@b+3,f
  9934  168D                     l4651:	
  9935  168D  0824               	movf	___fldiv@sign,w
  9936  168E  00F8               	movwf	??___fldiv
  9937  168F  0878               	movf	??___fldiv,w
  9938  1690  04F7               	iorwf	___fldiv@b+3,f
  9939  1691                     l4653:	
  9940  1691  0877               	movf	___fldiv@b+3,w
  9941  1692  00F3               	movwf	?___fldiv+3
  9942  1693  0876               	movf	___fldiv@b+2,w
  9943  1694  00F2               	movwf	?___fldiv+2
  9944  1695  0875               	movf	___fldiv@b+1,w
  9945  1696  00F1               	movwf	?___fldiv+1
  9946  1697  0874               	movf	___fldiv@b,w
  9947  1698  00F0               	movwf	?___fldiv
  9948  1699  2FFF               	goto	l719
  9949  169A                     l4657:	
  9950  169A  082B               	movf	___fldiv@bexp,w
  9951  169B  1D03               	btfss	3,2
  9952  169C  2E9E               	goto	u6941
  9953  169D  2E9F               	goto	u6940
  9954  169E                     u6941:	
  9955  169E  2EA8               	goto	l4663
  9956  169F                     u6940:	
  9957  169F                     l4659:	
  9958  169F  3000               	movlw	0
  9959  16A0  00F3               	movwf	?___fldiv+3
  9960  16A1  3000               	movlw	0
  9961  16A2  00F2               	movwf	?___fldiv+2
  9962  16A3  3000               	movlw	0
  9963  16A4  00F1               	movwf	?___fldiv+1
  9964  16A5  3000               	movlw	0
  9965  16A6  00F0               	movwf	?___fldiv
  9966  16A7  2FFF               	goto	l719
  9967  16A8                     l4663:	
  9968  16A8  082B               	movf	___fldiv@bexp,w
  9969  16A9  00F8               	movwf	??___fldiv
  9970  16AA  01F9               	clrf	??___fldiv+1
  9971  16AB  0879               	movf	??___fldiv+1,w
  9972  16AC  00FB               	movwf	??___fldiv+3
  9973  16AD  082C               	movf	___fldiv@aexp,w
  9974  16AE  0278               	subwf	??___fldiv,w
  9975  16AF  00FA               	movwf	??___fldiv+2
  9976  16B0  1C03               	skipc
  9977  16B1  03FB               	decf	??___fldiv+3,f
  9978  16B2  087A               	movf	??___fldiv+2,w
  9979  16B3  3E7F               	addlw	127
  9980  16B4  00A5               	movwf	___fldiv@new_exp
  9981  16B5  087B               	movf	??___fldiv+3,w
  9982  16B6  1803               	skipnc
  9983  16B7  3E01               	addlw	1
  9984  16B8  3E00               	addlw	0
  9985  16B9  00A6               	movwf	___fldiv@new_exp+1
  9986  16BA                     l4665:	
  9987  16BA  0877               	movf	___fldiv@b+3,w
  9988  16BB  00A3               	movwf	___fldiv@rem+3
  9989  16BC  0876               	movf	___fldiv@b+2,w
  9990  16BD  00A2               	movwf	___fldiv@rem+2
  9991  16BE  0875               	movf	___fldiv@b+1,w
  9992  16BF  00A1               	movwf	___fldiv@rem+1
  9993  16C0  0874               	movf	___fldiv@b,w
  9994  16C1  00A0               	movwf	___fldiv@rem
  9995  16C2                     l4667:	
  9996  16C2  3000               	movlw	0
  9997  16C3  00F7               	movwf	___fldiv@b+3
  9998  16C4  3000               	movlw	0
  9999  16C5  00F6               	movwf	___fldiv@b+2
 10000  16C6  3000               	movlw	0
 10001  16C7  00F5               	movwf	___fldiv@b+1
 10002  16C8  3000               	movlw	0
 10003  16C9  00F4               	movwf	___fldiv@b
 10004  16CA                     l4669:	
 10005  16CA  3000               	movlw	0
 10006  16CB  00AA               	movwf	___fldiv@grs+3
 10007  16CC  3000               	movlw	0
 10008  16CD  00A9               	movwf	___fldiv@grs+2
 10009  16CE  3000               	movlw	0
 10010  16CF  00A8               	movwf	___fldiv@grs+1
 10011  16D0  3000               	movlw	0
 10012  16D1  00A7               	movwf	___fldiv@grs
 10013  16D2                     l4671:	
 10014  16D2  01AC               	clrf	___fldiv@aexp
 10015  16D3  2F24               	goto	l4691
 10016  16D4                     l4673:	
 10017  16D4  082C               	movf	___fldiv@aexp,w
 10018  16D5  1903               	btfsc	3,2
 10019  16D6  2ED8               	goto	u6951
 10020  16D7  2ED9               	goto	u6950
 10021  16D8                     u6951:	
 10022  16D8  2EF9               	goto	l4683
 10023  16D9                     u6950:	
 10024  16D9                     l4675:	
 10025  16D9  3001               	movlw	1
 10026  16DA  00F8               	movwf	??___fldiv
 10027  16DB                     u6965:	
 10028  16DB  1003               	clrc
 10029  16DC  0DA0               	rlf	___fldiv@rem,f
 10030  16DD  0DA1               	rlf	___fldiv@rem+1,f
 10031  16DE  0DA2               	rlf	___fldiv@rem+2,f
 10032  16DF  0DA3               	rlf	___fldiv@rem+3,f
 10033  16E0  0BF8               	decfsz	??___fldiv,f
 10034  16E1  2EDB               	goto	u6965
 10035  16E2  3001               	movlw	1
 10036  16E3  00F8               	movwf	??___fldiv
 10037  16E4                     u6975:	
 10038  16E4  1003               	clrc
 10039  16E5  0DF4               	rlf	___fldiv@b,f
 10040  16E6  0DF5               	rlf	___fldiv@b+1,f
 10041  16E7  0DF6               	rlf	___fldiv@b+2,f
 10042  16E8  0DF7               	rlf	___fldiv@b+3,f
 10043  16E9  0BF8               	decfsz	??___fldiv,f
 10044  16EA  2EE4               	goto	u6975
 10045  16EB                     l4677:	
 10046  16EB  1FAA               	btfss	___fldiv@grs+3,7
 10047  16EC  2EEE               	goto	u6981
 10048  16ED  2EEF               	goto	u6980
 10049  16EE                     u6981:	
 10050  16EE  2EF0               	goto	l4681
 10051  16EF                     u6980:	
 10052  16EF                     l4679:	
 10053  16EF  1474               	bsf	___fldiv@b,0
 10054  16F0                     l4681:	
 10055  16F0  3001               	movlw	1
 10056  16F1  00F8               	movwf	??___fldiv
 10057  16F2                     u6995:	
 10058  16F2  1003               	clrc
 10059  16F3  0DA7               	rlf	___fldiv@grs,f
 10060  16F4  0DA8               	rlf	___fldiv@grs+1,f
 10061  16F5  0DA9               	rlf	___fldiv@grs+2,f
 10062  16F6  0DAA               	rlf	___fldiv@grs+3,f
 10063  16F7  0BF8               	decfsz	??___fldiv,f
 10064  16F8  2EF2               	goto	u6995
 10065  16F9                     l4683:	
 10066  16F9  0873               	movf	___fldiv@a+3,w
 10067  16FA  0223               	subwf	___fldiv@rem+3,w
 10068  16FB  1D03               	skipz
 10069  16FC  2F07               	goto	u7005
 10070  16FD  0872               	movf	___fldiv@a+2,w
 10071  16FE  0222               	subwf	___fldiv@rem+2,w
 10072  16FF  1D03               	skipz
 10073  1700  2F07               	goto	u7005
 10074  1701  0871               	movf	___fldiv@a+1,w
 10075  1702  0221               	subwf	___fldiv@rem+1,w
 10076  1703  1D03               	skipz
 10077  1704  2F07               	goto	u7005
 10078  1705  0870               	movf	___fldiv@a,w
 10079  1706  0220               	subwf	___fldiv@rem,w
 10080  1707                     u7005:	
 10081  1707  1C03               	skipc
 10082  1708  2F0A               	goto	u7001
 10083  1709  2F0B               	goto	u7000
 10084  170A                     u7001:	
 10085  170A  2F20               	goto	l4689
 10086  170B                     u7000:	
 10087  170B                     l4685:	
 10088  170B  172A               	bsf	___fldiv@grs+3,6
 10089  170C                     l4687:	
 10090  170C  0870               	movf	___fldiv@a,w
 10091  170D  02A0               	subwf	___fldiv@rem,f
 10092  170E  0871               	movf	___fldiv@a+1,w
 10093  170F  1C03               	skipc
 10094  1710  0F71               	incfsz	___fldiv@a+1,w
 10095  1711  2F13               	goto	u7015
 10096  1712  2F14               	goto	u7016
 10097  1713                     u7015:	
 10098  1713  02A1               	subwf	___fldiv@rem+1,f
 10099  1714                     u7016:	
 10100  1714  0872               	movf	___fldiv@a+2,w
 10101  1715  1C03               	skipc
 10102  1716  0F72               	incfsz	___fldiv@a+2,w
 10103  1717  2F19               	goto	u7017
 10104  1718  2F1A               	goto	u7018
 10105  1719                     u7017:	
 10106  1719  02A2               	subwf	___fldiv@rem+2,f
 10107  171A                     u7018:	
 10108  171A  0873               	movf	___fldiv@a+3,w
 10109  171B  1C03               	skipc
 10110  171C  0F73               	incfsz	___fldiv@a+3,w
 10111  171D  2F1F               	goto	u7019
 10112  171E  2F20               	goto	u7010
 10113  171F                     u7019:	
 10114  171F  02A3               	subwf	___fldiv@rem+3,f
 10115  1720                     u7010:	
 10116  1720                     l4689:	
 10117  1720  3001               	movlw	1
 10118  1721  00F8               	movwf	??___fldiv
 10119  1722  0878               	movf	??___fldiv,w
 10120  1723  07AC               	addwf	___fldiv@aexp,f
 10121  1724                     l4691:	
 10122  1724  301A               	movlw	26
 10123  1725  022C               	subwf	___fldiv@aexp,w
 10124  1726  1C03               	skipc
 10125  1727  2F29               	goto	u7021
 10126  1728  2F2A               	goto	u7020
 10127  1729                     u7021:	
 10128  1729  2ED4               	goto	l4673
 10129  172A                     u7020:	
 10130  172A                     l4693:	
 10131  172A  0823               	movf	___fldiv@rem+3,w
 10132  172B  0422               	iorwf	___fldiv@rem+2,w
 10133  172C  0421               	iorwf	___fldiv@rem+1,w
 10134  172D  0420               	iorwf	___fldiv@rem,w
 10135  172E  1903               	skipnz
 10136  172F  2F31               	goto	u7031
 10137  1730  2F32               	goto	u7030
 10138  1731                     u7031:	
 10139  1731  2F51               	goto	l4707
 10140  1732                     u7030:	
 10141  1732                     l4695:	
 10142  1732  1427               	bsf	___fldiv@grs,0
 10143  1733  2F51               	goto	l4707
 10144  1734                     l4697:	
 10145  1734  3001               	movlw	1
 10146  1735  00F8               	movwf	??___fldiv
 10147  1736                     u7045:	
 10148  1736  1003               	clrc
 10149  1737  0DF4               	rlf	___fldiv@b,f
 10150  1738  0DF5               	rlf	___fldiv@b+1,f
 10151  1739  0DF6               	rlf	___fldiv@b+2,f
 10152  173A  0DF7               	rlf	___fldiv@b+3,f
 10153  173B  0BF8               	decfsz	??___fldiv,f
 10154  173C  2F36               	goto	u7045
 10155  173D                     l4699:	
 10156  173D  1FAA               	btfss	___fldiv@grs+3,7
 10157  173E  2F40               	goto	u7051
 10158  173F  2F41               	goto	u7050
 10159  1740                     u7051:	
 10160  1740  2F42               	goto	l4703
 10161  1741                     u7050:	
 10162  1741                     l4701:	
 10163  1741  1474               	bsf	___fldiv@b,0
 10164  1742                     l4703:	
 10165  1742  3001               	movlw	1
 10166  1743  00F8               	movwf	??___fldiv
 10167  1744                     u7065:	
 10168  1744  1003               	clrc
 10169  1745  0DA7               	rlf	___fldiv@grs,f
 10170  1746  0DA8               	rlf	___fldiv@grs+1,f
 10171  1747  0DA9               	rlf	___fldiv@grs+2,f
 10172  1748  0DAA               	rlf	___fldiv@grs+3,f
 10173  1749  0BF8               	decfsz	??___fldiv,f
 10174  174A  2F44               	goto	u7065
 10175  174B                     l4705:	
 10176  174B  30FF               	movlw	255
 10177  174C  07A5               	addwf	___fldiv@new_exp,f
 10178  174D  1803               	skipnc
 10179  174E  0AA6               	incf	___fldiv@new_exp+1,f
 10180  174F  30FF               	movlw	255
 10181  1750  07A6               	addwf	___fldiv@new_exp+1,f
 10182  1751                     l4707:	
 10183  1751  1FF6               	btfss	___fldiv@b+2,7
 10184  1752  2F54               	goto	u7071
 10185  1753  2F55               	goto	u7070
 10186  1754                     u7071:	
 10187  1754  2F34               	goto	l4697
 10188  1755                     u7070:	
 10189  1755                     l4709:	
 10190  1755  01AC               	clrf	___fldiv@aexp
 10191  1756                     l4711:	
 10192  1756  1FAA               	btfss	___fldiv@grs+3,7
 10193  1757  2F59               	goto	u7081
 10194  1758  2F5A               	goto	u7080
 10195  1759                     u7081:	
 10196  1759  2F76               	goto	l4719
 10197  175A                     u7080:	
 10198  175A                     l4713:	
 10199  175A  30FF               	movlw	255
 10200  175B  0527               	andwf	___fldiv@grs,w
 10201  175C  00F8               	movwf	??___fldiv
 10202  175D  30FF               	movlw	255
 10203  175E  0528               	andwf	___fldiv@grs+1,w
 10204  175F  00F9               	movwf	??___fldiv+1
 10205  1760  30FF               	movlw	255
 10206  1761  0529               	andwf	___fldiv@grs+2,w
 10207  1762  00FA               	movwf	??___fldiv+2
 10208  1763  307F               	movlw	127
 10209  1764  052A               	andwf	___fldiv@grs+3,w
 10210  1765  00FB               	movwf	??___fldiv+3
 10211  1766  087B               	movf	??___fldiv+3,w
 10212  1767  047A               	iorwf	??___fldiv+2,w
 10213  1768  0479               	iorwf	??___fldiv+1,w
 10214  1769  0478               	iorwf	??___fldiv,w
 10215  176A  1903               	skipnz
 10216  176B  2F6D               	goto	u7091
 10217  176C  2F6E               	goto	u7090
 10218  176D                     u7091:	
 10219  176D  2F71               	goto	l733
 10220  176E                     u7090:	
 10221  176E                     l4715:	
 10222  176E  01AC               	clrf	___fldiv@aexp
 10223  176F  0AAC               	incf	___fldiv@aexp,f
 10224  1770  2F76               	goto	l4719
 10225  1771                     l733:	
 10226  1771  1C74               	btfss	___fldiv@b,0
 10227  1772  2F74               	goto	u7101
 10228  1773  2F75               	goto	u7100
 10229  1774                     u7101:	
 10230  1774  2F76               	goto	l4719
 10231  1775                     u7100:	
 10232  1775  2F6E               	goto	l4715
 10233  1776                     l4719:	
 10234  1776  082C               	movf	___fldiv@aexp,w
 10235  1777  1903               	btfsc	3,2
 10236  1778  2F7A               	goto	u7111
 10237  1779  2F7B               	goto	u7110
 10238  177A                     u7111:	
 10239  177A  2FAC               	goto	l4729
 10240  177B                     u7110:	
 10241  177B                     l4721:	
 10242  177B  3001               	movlw	1
 10243  177C  07F4               	addwf	___fldiv@b,f
 10244  177D  3000               	movlw	0
 10245  177E  1803               	skipnc
 10246  177F  3001               	movlw	1
 10247  1780  07F5               	addwf	___fldiv@b+1,f
 10248  1781  3000               	movlw	0
 10249  1782  1803               	skipnc
 10250  1783  3001               	movlw	1
 10251  1784  07F6               	addwf	___fldiv@b+2,f
 10252  1785  3000               	movlw	0
 10253  1786  1803               	skipnc
 10254  1787  3001               	movlw	1
 10255  1788  07F7               	addwf	___fldiv@b+3,f
 10256  1789                     l4723:	
 10257  1789  1C77               	btfss	___fldiv@b+3,0
 10258  178A  2F8C               	goto	u7121
 10259  178B  2F8D               	goto	u7120
 10260  178C                     u7121:	
 10261  178C  2FAC               	goto	l4729
 10262  178D                     u7120:	
 10263  178D                     l4725:	
 10264  178D  0874               	movf	___fldiv@b,w
 10265  178E  00F8               	movwf	??___fldiv
 10266  178F  0875               	movf	___fldiv@b+1,w
 10267  1790  00F9               	movwf	??___fldiv+1
 10268  1791  0876               	movf	___fldiv@b+2,w
 10269  1792  00FA               	movwf	??___fldiv+2
 10270  1793  0877               	movf	___fldiv@b+3,w
 10271  1794  00FB               	movwf	??___fldiv+3
 10272  1795  3001               	movlw	1
 10273  1796  00FC               	movwf	??___fldiv+4
 10274  1797                     u7135:	
 10275  1797  0D7B               	rlf	??___fldiv+3,w
 10276  1798  0CFB               	rrf	??___fldiv+3,f
 10277  1799  0CFA               	rrf	??___fldiv+2,f
 10278  179A  0CF9               	rrf	??___fldiv+1,f
 10279  179B  0CF8               	rrf	??___fldiv,f
 10280  179C                     u7130:	
 10281  179C  0BFC               	decfsz	??___fldiv+4,f
 10282  179D  2F97               	goto	u7135
 10283  179E  087B               	movf	??___fldiv+3,w
 10284  179F  00F7               	movwf	___fldiv@b+3
 10285  17A0  087A               	movf	??___fldiv+2,w
 10286  17A1  00F6               	movwf	___fldiv@b+2
 10287  17A2  0879               	movf	??___fldiv+1,w
 10288  17A3  00F5               	movwf	___fldiv@b+1
 10289  17A4  0878               	movf	??___fldiv,w
 10290  17A5  00F4               	movwf	___fldiv@b
 10291  17A6                     l4727:	
 10292  17A6  3001               	movlw	1
 10293  17A7  07A5               	addwf	___fldiv@new_exp,f
 10294  17A8  1803               	skipnc
 10295  17A9  0AA6               	incf	___fldiv@new_exp+1,f
 10296  17AA  3000               	movlw	0
 10297  17AB  07A6               	addwf	___fldiv@new_exp+1,f
 10298  17AC                     l4729:	
 10299  17AC  0826               	movf	___fldiv@new_exp+1,w
 10300  17AD  3A80               	xorlw	128
 10301  17AE  00FF               	movwf	btemp+1
 10302  17AF  3080               	movlw	128
 10303  17B0  027F               	subwf	btemp+1,w
 10304  17B1  1D03               	skipz
 10305  17B2  2FB5               	goto	u7145
 10306  17B3  30FF               	movlw	255
 10307  17B4  0225               	subwf	___fldiv@new_exp,w
 10308  17B5                     u7145:	
 10309  17B5  1C03               	skipc
 10310  17B6  2FB8               	goto	u7141
 10311  17B7  2FB9               	goto	u7140
 10312  17B8                     u7141:	
 10313  17B8  2FC7               	goto	l4733
 10314  17B9                     u7140:	
 10315  17B9                     l4731:	
 10316  17B9  30FF               	movlw	255
 10317  17BA  1283               	bcf	3,5	;RP0=0, select bank0
 10318  17BB  1303               	bcf	3,6	;RP1=0, select bank0
 10319  17BC  00A5               	movwf	___fldiv@new_exp
 10320  17BD  3000               	movlw	0
 10321  17BE  00A6               	movwf	___fldiv@new_exp+1
 10322  17BF  3000               	movlw	0
 10323  17C0  00F7               	movwf	___fldiv@b+3
 10324  17C1  3000               	movlw	0
 10325  17C2  00F6               	movwf	___fldiv@b+2
 10326  17C3  3000               	movlw	0
 10327  17C4  00F5               	movwf	___fldiv@b+1
 10328  17C5  3000               	movlw	0
 10329  17C6  00F4               	movwf	___fldiv@b
 10330  17C7                     l4733:	
 10331  17C7  1283               	bcf	3,5	;RP0=0, select bank0
 10332  17C8  1303               	bcf	3,6	;RP1=0, select bank0
 10333  17C9  0826               	movf	___fldiv@new_exp+1,w
 10334  17CA  3A80               	xorlw	128
 10335  17CB  00FF               	movwf	btemp+1
 10336  17CC  3080               	movlw	128
 10337  17CD  027F               	subwf	btemp+1,w
 10338  17CE  1D03               	skipz
 10339  17CF  2FD2               	goto	u7155
 10340  17D0  3001               	movlw	1
 10341  17D1  0225               	subwf	___fldiv@new_exp,w
 10342  17D2                     u7155:	
 10343  17D2  1803               	skipnc
 10344  17D3  2FD5               	goto	u7151
 10345  17D4  2FD6               	goto	u7150
 10346  17D5                     u7151:	
 10347  17D5  2FE3               	goto	l739
 10348  17D6                     u7150:	
 10349  17D6                     l4735:	
 10350  17D6  1283               	bcf	3,5	;RP0=0, select bank0
 10351  17D7  1303               	bcf	3,6	;RP1=0, select bank0
 10352  17D8  01A5               	clrf	___fldiv@new_exp
 10353  17D9  01A6               	clrf	___fldiv@new_exp+1
 10354  17DA                     l4737:	
 10355  17DA  3000               	movlw	0
 10356  17DB  00F7               	movwf	___fldiv@b+3
 10357  17DC  3000               	movlw	0
 10358  17DD  00F6               	movwf	___fldiv@b+2
 10359  17DE  3000               	movlw	0
 10360  17DF  00F5               	movwf	___fldiv@b+1
 10361  17E0  3000               	movlw	0
 10362  17E1  00F4               	movwf	___fldiv@b
 10363  17E2                     l4739:	
 10364  17E2  01A4               	clrf	___fldiv@sign
 10365  17E3                     l739:	
 10366  17E3  1283               	bcf	3,5	;RP0=0, select bank0
 10367  17E4  1303               	bcf	3,6	;RP1=0, select bank0
 10368  17E5  0825               	movf	___fldiv@new_exp,w
 10369  17E6  00F8               	movwf	??___fldiv
 10370  17E7  0878               	movf	??___fldiv,w
 10371  17E8  00AB               	movwf	___fldiv@bexp
 10372  17E9                     l4741:	
 10373  17E9  1C2B               	btfss	___fldiv@bexp,0
 10374  17EA  2FEC               	goto	u7161
 10375  17EB  2FED               	goto	u7160
 10376  17EC                     u7161:	
 10377  17EC  2FEF               	goto	l4745
 10378  17ED                     u7160:	
 10379  17ED                     l4743:	
 10380  17ED  17F6               	bsf	___fldiv@b+2,7
 10381  17EE  2FF3               	goto	l741
 10382  17EF                     l4745:	
 10383  17EF  307F               	movlw	127
 10384  17F0  00F8               	movwf	??___fldiv
 10385  17F1  0878               	movf	??___fldiv,w
 10386  17F2  05F6               	andwf	___fldiv@b+2,f
 10387  17F3                     l741:	
 10388  17F3  082B               	movf	___fldiv@bexp,w
 10389  17F4  00F8               	movwf	??___fldiv
 10390  17F5  1003               	clrc
 10391  17F6  0C78               	rrf	??___fldiv,w
 10392  17F7  00F9               	movwf	??___fldiv+1
 10393  17F8  0879               	movf	??___fldiv+1,w
 10394  17F9  00F7               	movwf	___fldiv@b+3
 10395  17FA  0824               	movf	___fldiv@sign,w
 10396  17FB  00F8               	movwf	??___fldiv
 10397  17FC  0878               	movf	??___fldiv,w
 10398  17FD  04F7               	iorwf	___fldiv@b+3,f
 10399  17FE  2E91               	goto	l4653
 10400  17FF                     l719:	
 10401  17FF  0008               	return
 10402  1800                     __end_of___fldiv:	
 10403                           
 10404                           	psect	text25
 10405  1BAC                     __ptext25:	
 10406 ;; *************** function ___awmod *****************
 10407 ;; Defined at:
 10408 ;;		line 5 in file "C:\Program Files (x86)\Microchip\xc8\v2.10\pic\sources\c90\common\awmod.c"
 10409 ;; Parameters:    Size  Location     Type
 10410 ;;  divisor         2    0[COMMON] int 
 10411 ;;  dividend        2    2[COMMON] int 
 10412 ;; Auto vars:     Size  Location     Type
 10413 ;;  sign            1    6[COMMON] unsigned char 
 10414 ;;  counter         1    5[COMMON] unsigned char 
 10415 ;; Return value:  Size  Location     Type
 10416 ;;                  2    0[COMMON] int 
 10417 ;; Registers used:
 10418 ;;		wreg, status,2, status,0
 10419 ;; Tracked objects:
 10420 ;;		On entry : 0/0
 10421 ;;		On exit  : 0/0
 10422 ;;		Unchanged: 0/0
 10423 ;; Data sizes:     COMMON   BANK0   BANK1   BANK3   BANK2
 10424 ;;      Params:         4       0       0       0       0
 10425 ;;      Locals:         2       0       0       0       0
 10426 ;;      Temps:          1       0       0       0       0
 10427 ;;      Totals:         7       0       0       0       0
 10428 ;;Total ram usage:        7 bytes
 10429 ;; Hardware stack levels used:    1
 10430 ;; This function calls:
 10431 ;;		Nothing
 10432 ;; This function is called by:
 10433 ;;		_LCD_WRITE_NUM
 10434 ;; This function uses a non-reentrant model
 10435 ;;
 10436                           
 10437                           
 10438                           ;psect for function ___awmod
 10439  1BAC                     ___awmod:	
 10440  1BAC                     l5007:	
 10441                           ;incstack = 0
 10442                           ; Regs used in ___awmod: [wreg+status,2+status,0]
 10443                           
 10444  1BAC  01F6               	clrf	___awmod@sign
 10445  1BAD                     l5009:	
 10446  1BAD  1FF3               	btfss	___awmod@dividend+1,7
 10447  1BAE  2BB0               	goto	u7591
 10448  1BAF  2BB1               	goto	u7590
 10449  1BB0                     u7591:	
 10450  1BB0  2BB8               	goto	l5015
 10451  1BB1                     u7590:	
 10452  1BB1                     l5011:	
 10453  1BB1  09F2               	comf	___awmod@dividend,f
 10454  1BB2  09F3               	comf	___awmod@dividend+1,f
 10455  1BB3  0AF2               	incf	___awmod@dividend,f
 10456  1BB4  1903               	skipnz
 10457  1BB5  0AF3               	incf	___awmod@dividend+1,f
 10458  1BB6                     l5013:	
 10459  1BB6  01F6               	clrf	___awmod@sign
 10460  1BB7  0AF6               	incf	___awmod@sign,f
 10461  1BB8                     l5015:	
 10462  1BB8  1FF1               	btfss	___awmod@divisor+1,7
 10463  1BB9  2BBB               	goto	u7601
 10464  1BBA  2BBC               	goto	u7600
 10465  1BBB                     u7601:	
 10466  1BBB  2BC1               	goto	l5019
 10467  1BBC                     u7600:	
 10468  1BBC                     l5017:	
 10469  1BBC  09F0               	comf	___awmod@divisor,f
 10470  1BBD  09F1               	comf	___awmod@divisor+1,f
 10471  1BBE  0AF0               	incf	___awmod@divisor,f
 10472  1BBF  1903               	skipnz
 10473  1BC0  0AF1               	incf	___awmod@divisor+1,f
 10474  1BC1                     l5019:	
 10475  1BC1  0870               	movf	___awmod@divisor,w
 10476  1BC2  0471               	iorwf	___awmod@divisor+1,w
 10477  1BC3  1903               	btfsc	3,2
 10478  1BC4  2BC6               	goto	u7611
 10479  1BC5  2BC7               	goto	u7610
 10480  1BC6                     u7611:	
 10481  1BC6  2BF6               	goto	l5037
 10482  1BC7                     u7610:	
 10483  1BC7                     l5021:	
 10484  1BC7  01F5               	clrf	___awmod@counter
 10485  1BC8  0AF5               	incf	___awmod@counter,f
 10486  1BC9  2BD5               	goto	l5027
 10487  1BCA                     l5023:	
 10488  1BCA  3001               	movlw	1
 10489  1BCB                     u7625:	
 10490  1BCB  1003               	clrc
 10491  1BCC  0DF0               	rlf	___awmod@divisor,f
 10492  1BCD  0DF1               	rlf	___awmod@divisor+1,f
 10493  1BCE  3EFF               	addlw	-1
 10494  1BCF  1D03               	skipz
 10495  1BD0  2BCB               	goto	u7625
 10496  1BD1                     l5025:	
 10497  1BD1  3001               	movlw	1
 10498  1BD2  00F4               	movwf	??___awmod
 10499  1BD3  0874               	movf	??___awmod,w
 10500  1BD4  07F5               	addwf	___awmod@counter,f
 10501  1BD5                     l5027:	
 10502  1BD5  1FF1               	btfss	___awmod@divisor+1,7
 10503  1BD6  2BD8               	goto	u7631
 10504  1BD7  2BD9               	goto	u7630
 10505  1BD8                     u7631:	
 10506  1BD8  2BCA               	goto	l5023
 10507  1BD9                     u7630:	
 10508  1BD9                     l5029:	
 10509  1BD9  0871               	movf	___awmod@divisor+1,w
 10510  1BDA  0273               	subwf	___awmod@dividend+1,w
 10511  1BDB  1D03               	skipz
 10512  1BDC  2BDF               	goto	u7645
 10513  1BDD  0870               	movf	___awmod@divisor,w
 10514  1BDE  0272               	subwf	___awmod@dividend,w
 10515  1BDF                     u7645:	
 10516  1BDF  1C03               	skipc
 10517  1BE0  2BE2               	goto	u7641
 10518  1BE1  2BE3               	goto	u7640
 10519  1BE2                     u7641:	
 10520  1BE2  2BE9               	goto	l5033
 10521  1BE3                     u7640:	
 10522  1BE3                     l5031:	
 10523  1BE3  0870               	movf	___awmod@divisor,w
 10524  1BE4  02F2               	subwf	___awmod@dividend,f
 10525  1BE5  0871               	movf	___awmod@divisor+1,w
 10526  1BE6  1C03               	skipc
 10527  1BE7  03F3               	decf	___awmod@dividend+1,f
 10528  1BE8  02F3               	subwf	___awmod@dividend+1,f
 10529  1BE9                     l5033:	
 10530  1BE9  3001               	movlw	1
 10531  1BEA                     u7655:	
 10532  1BEA  1003               	clrc
 10533  1BEB  0CF1               	rrf	___awmod@divisor+1,f
 10534  1BEC  0CF0               	rrf	___awmod@divisor,f
 10535  1BED  3EFF               	addlw	-1
 10536  1BEE  1D03               	skipz
 10537  1BEF  2BEA               	goto	u7655
 10538  1BF0                     l5035:	
 10539  1BF0  3001               	movlw	1
 10540  1BF1  02F5               	subwf	___awmod@counter,f
 10541  1BF2  1D03               	btfss	3,2
 10542  1BF3  2BF5               	goto	u7661
 10543  1BF4  2BF6               	goto	u7660
 10544  1BF5                     u7661:	
 10545  1BF5  2BD9               	goto	l5029
 10546  1BF6                     u7660:	
 10547  1BF6                     l5037:	
 10548  1BF6  0876               	movf	___awmod@sign,w
 10549  1BF7  1903               	btfsc	3,2
 10550  1BF8  2BFA               	goto	u7671
 10551  1BF9  2BFB               	goto	u7670
 10552  1BFA                     u7671:	
 10553  1BFA  2C00               	goto	l5041
 10554  1BFB                     u7670:	
 10555  1BFB                     l5039:	
 10556  1BFB  09F2               	comf	___awmod@dividend,f
 10557  1BFC  09F3               	comf	___awmod@dividend+1,f
 10558  1BFD  0AF2               	incf	___awmod@dividend,f
 10559  1BFE  1903               	skipnz
 10560  1BFF  0AF3               	incf	___awmod@dividend+1,f
 10561  1C00                     l5041:	
 10562  1C00  0873               	movf	___awmod@dividend+1,w
 10563  1C01  00F1               	movwf	?___awmod+1
 10564  1C02  0872               	movf	___awmod@dividend,w
 10565  1C03  00F0               	movwf	?___awmod
 10566  1C04                     l534:	
 10567  1C04  0008               	return
 10568  1C05                     __end_of___awmod:	
 10569                           
 10570                           	psect	text26
 10571  0808                     __ptext26:	
 10572 ;; *************** function ___aldiv *****************
 10573 ;; Defined at:
 10574 ;;		line 5 in file "C:\Program Files (x86)\Microchip\xc8\v2.10\pic\sources\c90\common\aldiv.c"
 10575 ;; Parameters:    Size  Location     Type
 10576 ;;  divisor         4    0[COMMON] long 
 10577 ;;  dividend        4    4[COMMON] long 
 10578 ;; Auto vars:     Size  Location     Type
 10579 ;;  quotient        4    2[BANK0 ] long 
 10580 ;;  sign            1    1[BANK0 ] unsigned char 
 10581 ;;  counter         1    0[BANK0 ] unsigned char 
 10582 ;; Return value:  Size  Location     Type
 10583 ;;                  4    0[COMMON] long 
 10584 ;; Registers used:
 10585 ;;		wreg, status,2, status,0
 10586 ;; Tracked objects:
 10587 ;;		On entry : 0/0
 10588 ;;		On exit  : 0/0
 10589 ;;		Unchanged: 0/0
 10590 ;; Data sizes:     COMMON   BANK0   BANK1   BANK3   BANK2
 10591 ;;      Params:         8       0       0       0       0
 10592 ;;      Locals:         0       6       0       0       0
 10593 ;;      Temps:          1       0       0       0       0
 10594 ;;      Totals:         9       6       0       0       0
 10595 ;;Total ram usage:       15 bytes
 10596 ;; Hardware stack levels used:    1
 10597 ;; This function calls:
 10598 ;;		Nothing
 10599 ;; This function is called by:
 10600 ;;		_LCD_WRITE_NUM
 10601 ;; This function uses a non-reentrant model
 10602 ;;
 10603                           
 10604                           
 10605                           ;psect for function ___aldiv
 10606  0808                     ___aldiv:	
 10607  0808                     l4967:	
 10608                           ;incstack = 0
 10609                           ; Regs used in ___aldiv: [wreg+status,2+status,0]
 10610                           
 10611  0808  1283               	bcf	3,5	;RP0=0, select bank0
 10612  0809  1303               	bcf	3,6	;RP1=0, select bank0
 10613  080A  01A1               	clrf	___aldiv@sign
 10614  080B                     l4969:	
 10615  080B  1FF3               	btfss	___aldiv@divisor+3,7
 10616  080C  280E               	goto	u7491
 10617  080D  280F               	goto	u7490
 10618  080E                     u7491:	
 10619  080E  281C               	goto	l433
 10620  080F                     u7490:	
 10621  080F                     l4971:	
 10622  080F  09F0               	comf	___aldiv@divisor,f
 10623  0810  09F1               	comf	___aldiv@divisor+1,f
 10624  0811  09F2               	comf	___aldiv@divisor+2,f
 10625  0812  09F3               	comf	___aldiv@divisor+3,f
 10626  0813  0AF0               	incf	___aldiv@divisor,f
 10627  0814  1903               	skipnz
 10628  0815  0AF1               	incf	___aldiv@divisor+1,f
 10629  0816  1903               	skipnz
 10630  0817  0AF2               	incf	___aldiv@divisor+2,f
 10631  0818  1903               	skipnz
 10632  0819  0AF3               	incf	___aldiv@divisor+3,f
 10633  081A  01A1               	clrf	___aldiv@sign
 10634  081B  0AA1               	incf	___aldiv@sign,f
 10635  081C                     l433:	
 10636  081C  1FF7               	btfss	___aldiv@dividend+3,7
 10637  081D  281F               	goto	u7501
 10638  081E  2820               	goto	u7500
 10639  081F                     u7501:	
 10640  081F  282F               	goto	l4977
 10641  0820                     u7500:	
 10642  0820                     l4973:	
 10643  0820  09F4               	comf	___aldiv@dividend,f
 10644  0821  09F5               	comf	___aldiv@dividend+1,f
 10645  0822  09F6               	comf	___aldiv@dividend+2,f
 10646  0823  09F7               	comf	___aldiv@dividend+3,f
 10647  0824  0AF4               	incf	___aldiv@dividend,f
 10648  0825  1903               	skipnz
 10649  0826  0AF5               	incf	___aldiv@dividend+1,f
 10650  0827  1903               	skipnz
 10651  0828  0AF6               	incf	___aldiv@dividend+2,f
 10652  0829  1903               	skipnz
 10653  082A  0AF7               	incf	___aldiv@dividend+3,f
 10654  082B                     l4975:	
 10655  082B  3001               	movlw	1
 10656  082C  00F8               	movwf	??___aldiv
 10657  082D  0878               	movf	??___aldiv,w
 10658  082E  06A1               	xorwf	___aldiv@sign,f
 10659  082F                     l4977:	
 10660  082F  3000               	movlw	0
 10661  0830  00A5               	movwf	___aldiv@quotient+3
 10662  0831  3000               	movlw	0
 10663  0832  00A4               	movwf	___aldiv@quotient+2
 10664  0833  3000               	movlw	0
 10665  0834  00A3               	movwf	___aldiv@quotient+1
 10666  0835  3000               	movlw	0
 10667  0836  00A2               	movwf	___aldiv@quotient
 10668  0837                     l4979:	
 10669  0837  0873               	movf	___aldiv@divisor+3,w
 10670  0838  0472               	iorwf	___aldiv@divisor+2,w
 10671  0839  0471               	iorwf	___aldiv@divisor+1,w
 10672  083A  0470               	iorwf	___aldiv@divisor,w
 10673  083B  1903               	skipnz
 10674  083C  283E               	goto	u7511
 10675  083D  283F               	goto	u7510
 10676  083E                     u7511:	
 10677  083E  288C               	goto	l4999
 10678  083F                     u7510:	
 10679  083F                     l4981:	
 10680  083F  01A0               	clrf	___aldiv@counter
 10681  0840  0AA0               	incf	___aldiv@counter,f
 10682  0841  284F               	goto	l4985
 10683  0842                     l4983:	
 10684  0842  3001               	movlw	1
 10685  0843  00F8               	movwf	??___aldiv
 10686  0844                     u7525:	
 10687  0844  1003               	clrc
 10688  0845  0DF0               	rlf	___aldiv@divisor,f
 10689  0846  0DF1               	rlf	___aldiv@divisor+1,f
 10690  0847  0DF2               	rlf	___aldiv@divisor+2,f
 10691  0848  0DF3               	rlf	___aldiv@divisor+3,f
 10692  0849  0BF8               	decfsz	??___aldiv,f
 10693  084A  2844               	goto	u7525
 10694  084B  3001               	movlw	1
 10695  084C  00F8               	movwf	??___aldiv
 10696  084D  0878               	movf	??___aldiv,w
 10697  084E  07A0               	addwf	___aldiv@counter,f
 10698  084F                     l4985:	
 10699  084F  1FF3               	btfss	___aldiv@divisor+3,7
 10700  0850  2852               	goto	u7531
 10701  0851  2853               	goto	u7530
 10702  0852                     u7531:	
 10703  0852  2842               	goto	l4983
 10704  0853                     u7530:	
 10705  0853                     l4987:	
 10706  0853  3001               	movlw	1
 10707  0854  00F8               	movwf	??___aldiv
 10708  0855                     u7545:	
 10709  0855  1003               	clrc
 10710  0856  0DA2               	rlf	___aldiv@quotient,f
 10711  0857  0DA3               	rlf	___aldiv@quotient+1,f
 10712  0858  0DA4               	rlf	___aldiv@quotient+2,f
 10713  0859  0DA5               	rlf	___aldiv@quotient+3,f
 10714  085A  0BF8               	decfsz	??___aldiv,f
 10715  085B  2855               	goto	u7545
 10716  085C                     l4989:	
 10717  085C  0873               	movf	___aldiv@divisor+3,w
 10718  085D  0277               	subwf	___aldiv@dividend+3,w
 10719  085E  1D03               	skipz
 10720  085F  286A               	goto	u7555
 10721  0860  0872               	movf	___aldiv@divisor+2,w
 10722  0861  0276               	subwf	___aldiv@dividend+2,w
 10723  0862  1D03               	skipz
 10724  0863  286A               	goto	u7555
 10725  0864  0871               	movf	___aldiv@divisor+1,w
 10726  0865  0275               	subwf	___aldiv@dividend+1,w
 10727  0866  1D03               	skipz
 10728  0867  286A               	goto	u7555
 10729  0868  0870               	movf	___aldiv@divisor,w
 10730  0869  0274               	subwf	___aldiv@dividend,w
 10731  086A                     u7555:	
 10732  086A  1C03               	skipc
 10733  086B  286D               	goto	u7551
 10734  086C  286E               	goto	u7550
 10735  086D                     u7551:	
 10736  086D  287D               	goto	l4995
 10737  086E                     u7550:	
 10738  086E                     l4991:	
 10739  086E  0870               	movf	___aldiv@divisor,w
 10740  086F  02F4               	subwf	___aldiv@dividend,f
 10741  0870  0871               	movf	___aldiv@divisor+1,w
 10742  0871  1C03               	skipc
 10743  0872  0F71               	incfsz	___aldiv@divisor+1,w
 10744  0873  02F5               	subwf	___aldiv@dividend+1,f
 10745  0874  0872               	movf	___aldiv@divisor+2,w
 10746  0875  1C03               	skipc
 10747  0876  0F72               	incfsz	___aldiv@divisor+2,w
 10748  0877  02F6               	subwf	___aldiv@dividend+2,f
 10749  0878  0873               	movf	___aldiv@divisor+3,w
 10750  0879  1C03               	skipc
 10751  087A  0F73               	incfsz	___aldiv@divisor+3,w
 10752  087B  02F7               	subwf	___aldiv@dividend+3,f
 10753  087C                     l4993:	
 10754  087C  1422               	bsf	___aldiv@quotient,0
 10755  087D                     l4995:	
 10756  087D  3001               	movlw	1
 10757  087E                     u7565:	
 10758  087E  1003               	clrc
 10759  087F  0CF3               	rrf	___aldiv@divisor+3,f
 10760  0880  0CF2               	rrf	___aldiv@divisor+2,f
 10761  0881  0CF1               	rrf	___aldiv@divisor+1,f
 10762  0882  0CF0               	rrf	___aldiv@divisor,f
 10763  0883  3EFF               	addlw	-1
 10764  0884  1D03               	skipz
 10765  0885  287E               	goto	u7565
 10766  0886                     l4997:	
 10767  0886  3001               	movlw	1
 10768  0887  02A0               	subwf	___aldiv@counter,f
 10769  0888  1D03               	btfss	3,2
 10770  0889  288B               	goto	u7571
 10771  088A  288C               	goto	u7570
 10772  088B                     u7571:	
 10773  088B  2853               	goto	l4987
 10774  088C                     u7570:	
 10775  088C                     l4999:	
 10776  088C  0821               	movf	___aldiv@sign,w
 10777  088D  1903               	btfsc	3,2
 10778  088E  2890               	goto	u7581
 10779  088F  2891               	goto	u7580
 10780  0890                     u7581:	
 10781  0890  289C               	goto	l5003
 10782  0891                     u7580:	
 10783  0891                     l5001:	
 10784  0891  09A2               	comf	___aldiv@quotient,f
 10785  0892  09A3               	comf	___aldiv@quotient+1,f
 10786  0893  09A4               	comf	___aldiv@quotient+2,f
 10787  0894  09A5               	comf	___aldiv@quotient+3,f
 10788  0895  0AA2               	incf	___aldiv@quotient,f
 10789  0896  1903               	skipnz
 10790  0897  0AA3               	incf	___aldiv@quotient+1,f
 10791  0898  1903               	skipnz
 10792  0899  0AA4               	incf	___aldiv@quotient+2,f
 10793  089A  1903               	skipnz
 10794  089B  0AA5               	incf	___aldiv@quotient+3,f
 10795  089C                     l5003:	
 10796  089C  0825               	movf	___aldiv@quotient+3,w
 10797  089D  00F3               	movwf	?___aldiv+3
 10798  089E  0824               	movf	___aldiv@quotient+2,w
 10799  089F  00F2               	movwf	?___aldiv+2
 10800  08A0  0823               	movf	___aldiv@quotient+1,w
 10801  08A1  00F1               	movwf	?___aldiv+1
 10802  08A2  0822               	movf	___aldiv@quotient,w
 10803  08A3  00F0               	movwf	?___aldiv
 10804  08A4                     l443:	
 10805  08A4  0008               	return
 10806  08A5                     __end_of___aldiv:	
 10807                           
 10808                           	psect	text27
 10809  1B59                     __ptext27:	
 10810 ;; *************** function _LCD_CURSOR *****************
 10811 ;; Defined at:
 10812 ;;		line 35 in file "./libcd.h"
 10813 ;; Parameters:    Size  Location     Type
 10814 ;;  r               1    wreg     unsigned char 
 10815 ;;  c               1    3[COMMON] unsigned char 
 10816 ;; Auto vars:     Size  Location     Type
 10817 ;;  r               1    6[COMMON] unsigned char 
 10818 ;;  temp            1    9[COMMON] unsigned char 
 10819 ;;  low4            1    8[COMMON] unsigned char 
 10820 ;;  high4           1    7[COMMON] unsigned char 
 10821 ;; Return value:  Size  Location     Type
 10822 ;;                  1    wreg      void 
 10823 ;; Registers used:
 10824 ;;		wreg, status,2, status,0, pclath, cstack
 10825 ;; Tracked objects:
 10826 ;;		On entry : 0/0
 10827 ;;		On exit  : 0/0
 10828 ;;		Unchanged: 0/0
 10829 ;; Data sizes:     COMMON   BANK0   BANK1   BANK3   BANK2
 10830 ;;      Params:         1       0       0       0       0
 10831 ;;      Locals:         4       0       0       0       0
 10832 ;;      Temps:          2       0       0       0       0
 10833 ;;      Totals:         7       0       0       0       0
 10834 ;;Total ram usage:        7 bytes
 10835 ;; Hardware stack levels used:    1
 10836 ;; Hardware stack levels required when called:    2
 10837 ;; This function calls:
 10838 ;;		_lcd_cmd
 10839 ;; This function is called by:
 10840 ;;		_disp
 10841 ;;		_reset
 10842 ;;		_main
 10843 ;; This function uses a non-reentrant model
 10844 ;;
 10845                           
 10846                           
 10847                           ;psect for function _LCD_CURSOR
 10848  1B59                     _LCD_CURSOR:	
 10849                           
 10850                           ;incstack = 0
 10851                           ; Regs used in _LCD_CURSOR: [wreg+status,2+status,0+pclath+cstack]
 10852                           ;LCD_CURSOR@r stored from wreg
 10853  1B59  00F6               	movwf	LCD_CURSOR@r
 10854  1B5A                     l5047:	
 10855                           
 10856                           ;./libcd.h: 36:     unsigned char temp,high4,low4;;./libcd.h: 37:     if(r == 1){
 10857  1B5A  0376               	decf	LCD_CURSOR@r,w
 10858  1B5B  1D03               	btfss	3,2
 10859  1B5C  2B5E               	goto	u7681
 10860  1B5D  2B5F               	goto	u7680
 10861  1B5E                     u7681:	
 10862  1B5E  2B82               	goto	l5057
 10863  1B5F                     u7680:	
 10864  1B5F                     l5049:	
 10865                           
 10866                           ;./libcd.h: 38:         temp = 128 + c -1;
 10867  1B5F  0873               	movf	LCD_CURSOR@c,w
 10868  1B60  3E7F               	addlw	127
 10869  1B61  00F4               	movwf	??_LCD_CURSOR
 10870  1B62  0874               	movf	??_LCD_CURSOR,w
 10871  1B63  00F9               	movwf	LCD_CURSOR@temp
 10872                           
 10873                           ;./libcd.h: 39:         high4 = (temp & 0xF0)>>4;
 10874  1B64  0879               	movf	LCD_CURSOR@temp,w
 10875  1B65  00F4               	movwf	??_LCD_CURSOR
 10876  1B66  3004               	movlw	4
 10877  1B67                     u7695:	
 10878  1B67  1003               	clrc
 10879  1B68  0CF4               	rrf	??_LCD_CURSOR,f
 10880  1B69  3EFF               	addlw	-1
 10881  1B6A  1D03               	skipz
 10882  1B6B  2B67               	goto	u7695
 10883  1B6C  0874               	movf	??_LCD_CURSOR,w
 10884  1B6D  390F               	andlw	15
 10885  1B6E  00F5               	movwf	??_LCD_CURSOR+1
 10886  1B6F  0875               	movf	??_LCD_CURSOR+1,w
 10887  1B70  00F7               	movwf	LCD_CURSOR@high4
 10888  1B71                     l5051:	
 10889                           
 10890                           ;./libcd.h: 40:         low4 = (temp & 0x0F);
 10891  1B71  0879               	movf	LCD_CURSOR@temp,w
 10892  1B72  390F               	andlw	15
 10893  1B73  00F4               	movwf	??_LCD_CURSOR
 10894  1B74  0874               	movf	??_LCD_CURSOR,w
 10895  1B75  00F8               	movwf	LCD_CURSOR@low4
 10896  1B76                     l5053:	
 10897                           
 10898                           ;./libcd.h: 41:         lcd_cmd(high4);
 10899  1B76  0877               	movf	LCD_CURSOR@high4,w
 10900  1B77  160A  158A  2141  160A  158A  	fcall	_lcd_cmd
 10901  1B7C                     l5055:	
 10902                           
 10903                           ;./libcd.h: 42:         lcd_cmd(low4);
 10904  1B7C  0878               	movf	LCD_CURSOR@low4,w
 10905  1B7D  160A  158A  2141  160A  158A  	fcall	_lcd_cmd
 10906  1B82                     l5057:	
 10907                           
 10908                           ;./libcd.h: 44:     if(r==2){
 10909  1B82  3002               	movlw	2
 10910  1B83  0676               	xorwf	LCD_CURSOR@r,w
 10911  1B84  1D03               	btfss	3,2
 10912  1B85  2B87               	goto	u7701
 10913  1B86  2B88               	goto	u7700
 10914  1B87                     u7701:	
 10915  1B87  2BAB               	goto	l97
 10916  1B88                     u7700:	
 10917  1B88                     l5059:	
 10918                           
 10919                           ;./libcd.h: 45:     temp = 192 + c -1;
 10920  1B88  0873               	movf	LCD_CURSOR@c,w
 10921  1B89  3EBF               	addlw	191
 10922  1B8A  00F4               	movwf	??_LCD_CURSOR
 10923  1B8B  0874               	movf	??_LCD_CURSOR,w
 10924  1B8C  00F9               	movwf	LCD_CURSOR@temp
 10925                           
 10926                           ;./libcd.h: 46:         high4 = (temp & 0xF0)>>4;
 10927  1B8D  0879               	movf	LCD_CURSOR@temp,w
 10928  1B8E  00F4               	movwf	??_LCD_CURSOR
 10929  1B8F  3004               	movlw	4
 10930  1B90                     u7715:	
 10931  1B90  1003               	clrc
 10932  1B91  0CF4               	rrf	??_LCD_CURSOR,f
 10933  1B92  3EFF               	addlw	-1
 10934  1B93  1D03               	skipz
 10935  1B94  2B90               	goto	u7715
 10936  1B95  0874               	movf	??_LCD_CURSOR,w
 10937  1B96  390F               	andlw	15
 10938  1B97  00F5               	movwf	??_LCD_CURSOR+1
 10939  1B98  0875               	movf	??_LCD_CURSOR+1,w
 10940  1B99  00F7               	movwf	LCD_CURSOR@high4
 10941  1B9A                     l5061:	
 10942                           
 10943                           ;./libcd.h: 47:         low4 = (temp & 0x0F);
 10944  1B9A  0879               	movf	LCD_CURSOR@temp,w
 10945  1B9B  390F               	andlw	15
 10946  1B9C  00F4               	movwf	??_LCD_CURSOR
 10947  1B9D  0874               	movf	??_LCD_CURSOR,w
 10948  1B9E  00F8               	movwf	LCD_CURSOR@low4
 10949  1B9F                     l5063:	
 10950                           
 10951                           ;./libcd.h: 48:         lcd_cmd(high4);
 10952  1B9F  0877               	movf	LCD_CURSOR@high4,w
 10953  1BA0  160A  158A  2141  160A  158A  	fcall	_lcd_cmd
 10954  1BA5                     l5065:	
 10955                           
 10956                           ;./libcd.h: 49:         lcd_cmd(low4);
 10957  1BA5  0878               	movf	LCD_CURSOR@low4,w
 10958  1BA6  160A  158A  2141  160A  158A  	fcall	_lcd_cmd
 10959  1BAB                     l97:	
 10960  1BAB  0008               	return
 10961  1BAC                     __end_of_LCD_CURSOR:	
 10962                           
 10963                           	psect	text28
 10964  1A69                     __ptext28:	
 10965 ;; *************** function _checkPass *****************
 10966 ;; Defined at:
 10967 ;;		line 165 in file "loady.c"
 10968 ;; Parameters:    Size  Location     Type
 10969 ;;  checker         1    wreg     PTR unsigned char 
 10970 ;;		 -> dob(6), pass(6), 
 10971 ;;  start           1    1[COMMON] unsigned char 
 10972 ;; Auto vars:     Size  Location     Type
 10973 ;;  checker         1    3[COMMON] PTR unsigned char 
 10974 ;;		 -> dob(6), pass(6), 
 10975 ;;  k               1    5[COMMON] unsigned char 
 10976 ;;  val             1    4[COMMON] unsigned char 
 10977 ;; Return value:  Size  Location     Type
 10978 ;;                  1    wreg      unsigned char 
 10979 ;; Registers used:
 10980 ;;		wreg, fsr0l, fsr0h, status,2, status,0, pclath, cstack
 10981 ;; Tracked objects:
 10982 ;;		On entry : 0/0
 10983 ;;		On exit  : 0/0
 10984 ;;		Unchanged: 0/0
 10985 ;; Data sizes:     COMMON   BANK0   BANK1   BANK3   BANK2
 10986 ;;      Params:         1       0       0       0       0
 10987 ;;      Locals:         3       0       0       0       0
 10988 ;;      Temps:          1       0       0       0       0
 10989 ;;      Totals:         5       0       0       0       0
 10990 ;;Total ram usage:        5 bytes
 10991 ;; Hardware stack levels used:    1
 10992 ;; Hardware stack levels required when called:    1
 10993 ;; This function calls:
 10994 ;;		_read_eeprom
 10995 ;; This function is called by:
 10996 ;;		_main
 10997 ;; This function uses a non-reentrant model
 10998 ;;
 10999                           
 11000                           
 11001                           ;psect for function _checkPass
 11002  1A69                     _checkPass:	
 11003                           
 11004                           ;incstack = 0
 11005                           ; Regs used in _checkPass: [wreg-fsr0h+status,2+status,0+pclath+cstack]
 11006                           ;checkPass@checker stored from wreg
 11007  1A69  00F3               	movwf	checkPass@checker
 11008  1A6A                     l3827:	
 11009                           
 11010                           ;loady.c: 166:     unsigned char k=0;
 11011  1A6A  01F4               	clrf	checkPass@val
 11012  1A6B                     l3829:	
 11013                           
 11014                           ;loady.c: 167:     while(k<6){
 11015  1A6B  0871               	movf	checkPass@start,w
 11016  1A6C  00F2               	movwf	??_checkPass
 11017  1A6D  0872               	movf	??_checkPass,w
 11018  1A6E  00F5               	movwf	checkPass@k
 11019  1A6F                     l3831:	
 11020  1A6F  3006               	movlw	6
 11021  1A70  0275               	subwf	checkPass@k,w
 11022  1A71  1C03               	skipc
 11023  1A72  2A74               	goto	u5401
 11024  1A73  2A75               	goto	u5400
 11025  1A74                     u5401:	
 11026  1A74  2A76               	goto	l3835
 11027  1A75                     u5400:	
 11028  1A75  2A90               	goto	l3841
 11029  1A76                     l3835:	
 11030                           
 11031                           ;loady.c: 168:      write_eeprom(j,newPass[k]);
 11032  1A76  0874               	movf	checkPass@val,w
 11033  1A77  0773               	addwf	checkPass@checker,w
 11034  1A78  00F2               	movwf	??_checkPass
 11035  1A79  0872               	movf	??_checkPass,w
 11036  1A7A  0084               	movwf	4
 11037  1A7B  0875               	movf	checkPass@k,w
 11038  1A7C  160A  158A  2151  160A  158A  	fcall	_read_eeprom
 11039  1A81  1783               	bsf	3,7	;select IRP bank2
 11040  1A82  0600               	xorwf	0,w
 11041  1A83  1D03               	skipz
 11042  1A84  2A86               	goto	u5411
 11043  1A85  2A87               	goto	u5410
 11044  1A86                     u5411:	
 11045  1A86  2A8B               	goto	l231
 11046  1A87                     u5410:	
 11047  1A87                     l3837:	
 11048                           
 11049                           ;loady.c: 169:      j++;
 11050  1A87  3001               	movlw	1
 11051  1A88  00F2               	movwf	??_checkPass
 11052  1A89  0872               	movf	??_checkPass,w
 11053  1A8A  07F4               	addwf	checkPass@val,f
 11054  1A8B                     l231:	
 11055                           ;loady.c: 170:      k++;
 11056                           
 11057                           
 11058                           ;loady.c: 171:     }
 11059  1A8B  3001               	movlw	1
 11060  1A8C  00F2               	movwf	??_checkPass
 11061  1A8D  0872               	movf	??_checkPass,w
 11062  1A8E  07F5               	addwf	checkPass@k,f
 11063  1A8F  2A6F               	goto	l3831
 11064  1A90                     l3841:	
 11065                           
 11066                           ;loady.c: 172:     write_eeprom(6,1);
 11067  1A90  3006               	movlw	6
 11068  1A91  0674               	xorwf	checkPass@val,w
 11069  1A92  1D03               	btfss	3,2
 11070  1A93  2A95               	goto	u5421
 11071  1A94  2A96               	goto	u5420
 11072  1A95                     u5421:	
 11073  1A95  2A98               	goto	l3849
 11074  1A96                     u5420:	
 11075  1A96                     l3843:	
 11076                           
 11077                           ;loady.c: 173: 
 11078  1A96  3001               	movlw	1
 11079  1A97  2A99               	goto	l233
 11080  1A98                     l3849:	
 11081                           
 11082                           ;loady.c: 175: 
 11083  1A98  3000               	movlw	0
 11084  1A99                     l233:	
 11085  1A99  0008               	return
 11086  1A9A                     __end_of_checkPass:	
 11087                           
 11088                           	psect	text29
 11089  1951                     __ptext29:	
 11090 ;; *************** function _read_eeprom *****************
 11091 ;; Defined at:
 11092 ;;		line 1 in file "./eeprom.h"
 11093 ;; Parameters:    Size  Location     Type
 11094 ;;  addr            1    wreg     unsigned char 
 11095 ;; Auto vars:     Size  Location     Type
 11096 ;;  addr            1    0[COMMON] unsigned char 
 11097 ;; Return value:  Size  Location     Type
 11098 ;;                  1    wreg      unsigned char 
 11099 ;; Registers used:
 11100 ;;		wreg
 11101 ;; Tracked objects:
 11102 ;;		On entry : 0/0
 11103 ;;		On exit  : 0/0
 11104 ;;		Unchanged: 0/0
 11105 ;; Data sizes:     COMMON   BANK0   BANK1   BANK3   BANK2
 11106 ;;      Params:         0       0       0       0       0
 11107 ;;      Locals:         1       0       0       0       0
 11108 ;;      Temps:          0       0       0       0       0
 11109 ;;      Totals:         1       0       0       0       0
 11110 ;;Total ram usage:        1 bytes
 11111 ;; Hardware stack levels used:    1
 11112 ;; This function calls:
 11113 ;;		Nothing
 11114 ;; This function is called by:
 11115 ;;		_checkPass
 11116 ;;		_main
 11117 ;; This function uses a non-reentrant model
 11118 ;;
 11119                           
 11120                           
 11121                           ;psect for function _read_eeprom
 11122  1951                     _read_eeprom:	
 11123                           
 11124                           ;incstack = 0
 11125                           ; Regs used in _read_eeprom: [wreg]
 11126                           ;read_eeprom@addr stored from wreg
 11127  1951  00F0               	movwf	read_eeprom@addr
 11128  1952                     l3485:	
 11129  1952                     l63:	
 11130                           ;./eeprom.h: 2:     while(EECON1bits.RD || EECON1bits.WR);
 11131                           
 11132  1952  1683               	bsf	3,5	;RP0=1, select bank3
 11133  1953  1703               	bsf	3,6	;RP1=1, select bank3
 11134  1954  180C               	btfsc	12,0	;volsfr
 11135  1955  2957               	goto	u4861
 11136  1956  2958               	goto	u4860
 11137  1957                     u4861:	
 11138  1957  2952               	goto	l63
 11139  1958                     u4860:	
 11140  1958                     l3487:	
 11141  1958  188C               	btfsc	12,1	;volsfr
 11142  1959  295B               	goto	u4871
 11143  195A  295C               	goto	u4870
 11144  195B                     u4871:	
 11145  195B  2952               	goto	l63
 11146  195C                     u4870:	
 11147  195C                     l3489:	
 11148                           
 11149                           ;./eeprom.h: 3:     EEADR = addr;
 11150  195C  0870               	movf	read_eeprom@addr,w
 11151  195D  1283               	bcf	3,5	;RP0=0, select bank2
 11152  195E  1703               	bsf	3,6	;RP1=1, select bank2
 11153  195F  008D               	movwf	13	;volatile
 11154  1960                     l3491:	
 11155                           
 11156                           ;./eeprom.h: 4:     EECON1bits.EEPGD = 0;
 11157  1960  1683               	bsf	3,5	;RP0=1, select bank3
 11158  1961  1703               	bsf	3,6	;RP1=1, select bank3
 11159  1962  138C               	bcf	12,7	;volsfr
 11160  1963                     l3493:	
 11161                           
 11162                           ;./eeprom.h: 5:     EECON1bits.RD=1;
 11163  1963  140C               	bsf	12,0	;volsfr
 11164                           
 11165                           ;./eeprom.h: 6:     return EEDATA;
 11166  1964  1283               	bcf	3,5	;RP0=0, select bank2
 11167  1965  1703               	bsf	3,6	;RP1=1, select bank2
 11168  1966  080C               	movf	12,w	;volatile
 11169  1967                     l66:	
 11170  1967  0008               	return
 11171  1968                     __end_of_read_eeprom:	
 11172                           
 11173                           	psect	text30
 11174  1ACE                     __ptext30:	
 11175 ;; *************** function _changePass *****************
 11176 ;; Defined at:
 11177 ;;		line 178 in file "loady.c"
 11178 ;; Parameters:    Size  Location     Type
 11179 ;;  newPass         1    wreg     PTR unsigned char 
 11180 ;;		 -> dob(6), pass(6), 
 11181 ;;  start           1    7[COMMON] unsigned char 
 11182 ;; Auto vars:     Size  Location     Type
 11183 ;;  newPass         1    2[BANK0 ] PTR unsigned char 
 11184 ;;		 -> dob(6), pass(6), 
 11185 ;;  k               1    1[BANK0 ] unsigned char 
 11186 ;;  j               1    0[BANK0 ] unsigned char 
 11187 ;; Return value:  Size  Location     Type
 11188 ;;                  1    wreg      void 
 11189 ;; Registers used:
 11190 ;;		wreg, fsr0l, fsr0h, status,2, status,0, pclath, cstack
 11191 ;; Tracked objects:
 11192 ;;		On entry : 0/0
 11193 ;;		On exit  : 0/0
 11194 ;;		Unchanged: 0/0
 11195 ;; Data sizes:     COMMON   BANK0   BANK1   BANK3   BANK2
 11196 ;;      Params:         1       0       0       0       0
 11197 ;;      Locals:         0       3       0       0       0
 11198 ;;      Temps:          4       0       0       0       0
 11199 ;;      Totals:         5       3       0       0       0
 11200 ;;Total ram usage:        8 bytes
 11201 ;; Hardware stack levels used:    1
 11202 ;; Hardware stack levels required when called:    1
 11203 ;; This function calls:
 11204 ;;		_write_eeprom
 11205 ;; This function is called by:
 11206 ;;		_main
 11207 ;; This function uses a non-reentrant model
 11208 ;;
 11209                           
 11210                           
 11211                           ;psect for function _changePass
 11212  1ACE                     _changePass:	
 11213                           
 11214                           ;incstack = 0
 11215                           ; Regs used in _changePass: [wreg-fsr0h+status,2+status,0+pclath+cstack]
 11216                           ;changePass@newPass stored from wreg
 11217  1ACE  1283               	bcf	3,5	;RP0=0, select bank0
 11218  1ACF  1303               	bcf	3,6	;RP1=0, select bank0
 11219  1AD0  00A2               	movwf	changePass@newPass
 11220  1AD1                     l3853:	
 11221                           
 11222                           ;loady.c: 179:     col=10;
 11223  1AD1  0877               	movf	changePass@start,w
 11224  1AD2  00F8               	movwf	??_changePass
 11225  1AD3  0878               	movf	??_changePass,w
 11226  1AD4  00A0               	movwf	changePass@j
 11227  1AD5                     l3855:	
 11228                           
 11229                           ;loady.c: 180:     row=1;
 11230  1AD5  01A1               	clrf	changePass@k
 11231                           
 11232                           ;loady.c: 181:     LCD_CLR();
 11233  1AD6  2AF7               	goto	l3863
 11234  1AD7                     l3857:	
 11235                           
 11236                           ;loady.c: 182:     LCD_CURSOR(1,1);
 11237  1AD7  0820               	movf	changePass@j,w
 11238  1AD8  00F8               	movwf	??_changePass
 11239  1AD9  01F9               	clrf	??_changePass+1
 11240  1ADA  0878               	movf	??_changePass,w
 11241  1ADB  00F0               	movwf	write_eeprom@addr
 11242  1ADC  0879               	movf	??_changePass+1,w
 11243  1ADD  00F1               	movwf	write_eeprom@addr+1
 11244  1ADE  0821               	movf	changePass@k,w
 11245  1ADF  0722               	addwf	changePass@newPass,w
 11246  1AE0  00FA               	movwf	??_changePass+2
 11247  1AE1  087A               	movf	??_changePass+2,w
 11248  1AE2  0084               	movwf	4
 11249  1AE3  1783               	bsf	3,7	;select IRP bank2
 11250  1AE4  0800               	movf	0,w
 11251  1AE5  00FB               	movwf	??_changePass+3
 11252  1AE6  087B               	movf	??_changePass+3,w
 11253  1AE7  00F2               	movwf	write_eeprom@data
 11254  1AE8  160A  158A  2210  160A  158A  	fcall	_write_eeprom
 11255  1AED                     l3859:	
 11256                           
 11257                           ;loady.c: 183:     LCD_WRITE_STRING("Password:");
 11258  1AED  3001               	movlw	1
 11259  1AEE  00F8               	movwf	??_changePass
 11260  1AEF  0878               	movf	??_changePass,w
 11261  1AF0  1283               	bcf	3,5	;RP0=0, select bank0
 11262  1AF1  1303               	bcf	3,6	;RP1=0, select bank0
 11263  1AF2  07A0               	addwf	changePass@j,f
 11264  1AF3                     l3861:	
 11265                           
 11266                           ;loady.c: 184:     LCD_CURSOR(1,10);
 11267  1AF3  3001               	movlw	1
 11268  1AF4  00F8               	movwf	??_changePass
 11269  1AF5  0878               	movf	??_changePass,w
 11270  1AF6  07A1               	addwf	changePass@k,f
 11271  1AF7                     l3863:	
 11272                           
 11273                           ;loady.c: 181:     LCD_CLR();
 11274  1AF7  3006               	movlw	6
 11275  1AF8  0221               	subwf	changePass@k,w
 11276  1AF9  1C03               	skipc
 11277  1AFA  2AFC               	goto	u5431
 11278  1AFB  2AFD               	goto	u5430
 11279  1AFC                     u5431:	
 11280  1AFC  2AD7               	goto	l3857
 11281  1AFD                     u5430:	
 11282  1AFD                     l3865:	
 11283                           
 11284                           ;loady.c: 186:     safe=0;
 11285  1AFD  3006               	movlw	6
 11286  1AFE  00F0               	movwf	write_eeprom@addr
 11287  1AFF  3000               	movlw	0
 11288  1B00  00F1               	movwf	write_eeprom@addr+1
 11289  1B01  01F2               	clrf	write_eeprom@data
 11290  1B02  0AF2               	incf	write_eeprom@data,f
 11291  1B03  160A  158A  2210  160A  158A  	fcall	_write_eeprom
 11292  1B08                     l240:	
 11293  1B08  0008               	return
 11294  1B09                     __end_of_changePass:	
 11295                           
 11296                           	psect	text31
 11297  1A10                     __ptext31:	
 11298 ;; *************** function _write_eeprom *****************
 11299 ;; Defined at:
 11300 ;;		line 8 in file "./eeprom.h"
 11301 ;; Parameters:    Size  Location     Type
 11302 ;;  addr            2    0[COMMON] unsigned int 
 11303 ;;  data            1    2[COMMON] unsigned char 
 11304 ;; Auto vars:     Size  Location     Type
 11305 ;;  gie_status      2    5[COMMON] int 
 11306 ;; Return value:  Size  Location     Type
 11307 ;;                  1    wreg      void 
 11308 ;; Registers used:
 11309 ;;		wreg, status,0
 11310 ;; Tracked objects:
 11311 ;;		On entry : 0/0
 11312 ;;		On exit  : 0/0
 11313 ;;		Unchanged: 0/0
 11314 ;; Data sizes:     COMMON   BANK0   BANK1   BANK3   BANK2
 11315 ;;      Params:         3       0       0       0       0
 11316 ;;      Locals:         2       0       0       0       0
 11317 ;;      Temps:          2       0       0       0       0
 11318 ;;      Totals:         7       0       0       0       0
 11319 ;;Total ram usage:        7 bytes
 11320 ;; Hardware stack levels used:    1
 11321 ;; This function calls:
 11322 ;;		Nothing
 11323 ;; This function is called by:
 11324 ;;		_changePass
 11325 ;; This function uses a non-reentrant model
 11326 ;;
 11327                           
 11328                           
 11329                           ;psect for function _write_eeprom
 11330  1A10                     _write_eeprom:	
 11331  1A10                     l3497:	
 11332                           ;incstack = 0
 11333                           ; Regs used in _write_eeprom: [wreg+status,0]
 11334                           
 11335  1A10                     l69:	
 11336                           ;./eeprom.h: 9:     int gie_status;;./eeprom.h: 10:     while(EECON1bits.WR);
 11337                           
 11338  1A10  1683               	bsf	3,5	;RP0=1, select bank3
 11339  1A11  1703               	bsf	3,6	;RP1=1, select bank3
 11340  1A12  188C               	btfsc	12,1	;volsfr
 11341  1A13  2A15               	goto	u4881
 11342  1A14  2A16               	goto	u4880
 11343  1A15                     u4881:	
 11344  1A15  2A10               	goto	l69
 11345  1A16                     u4880:	
 11346  1A16                     l3499:	
 11347                           
 11348                           ;./eeprom.h: 11:     EEADR = addr;
 11349  1A16  0870               	movf	write_eeprom@addr,w
 11350  1A17  1283               	bcf	3,5	;RP0=0, select bank2
 11351  1A18  1703               	bsf	3,6	;RP1=1, select bank2
 11352  1A19  008D               	movwf	13	;volatile
 11353                           
 11354                           ;./eeprom.h: 12:     EEDATA = data;
 11355  1A1A  0872               	movf	write_eeprom@data,w
 11356  1A1B  008C               	movwf	12	;volatile
 11357  1A1C                     l3501:	
 11358                           
 11359                           ;./eeprom.h: 13:     EECON1bits.EEPGD=0;
 11360  1A1C  1683               	bsf	3,5	;RP0=1, select bank3
 11361  1A1D  1703               	bsf	3,6	;RP1=1, select bank3
 11362  1A1E  138C               	bcf	12,7	;volsfr
 11363  1A1F                     l3503:	
 11364                           
 11365                           ;./eeprom.h: 14:     WREN=1;
 11366  1A1F  150C               	bsf	12,2	;volsfr
 11367  1A20                     l3505:	
 11368                           
 11369                           ;./eeprom.h: 15:     gie_status = GIE;
 11370  1A20  1003               	clrc
 11371  1A21  1B8B               	btfsc	11,7	;volatile
 11372  1A22  1403               	setc
 11373  1A23  3000               	movlw	0
 11374  1A24  1803               	skipnc
 11375  1A25  3001               	movlw	1
 11376  1A26  00F3               	movwf	??_write_eeprom
 11377  1A27  01F4               	clrf	??_write_eeprom+1
 11378  1A28  0873               	movf	??_write_eeprom,w
 11379  1A29  00F5               	movwf	write_eeprom@gie_status
 11380  1A2A  0874               	movf	??_write_eeprom+1,w
 11381  1A2B  00F6               	movwf	write_eeprom@gie_status+1
 11382  1A2C                     l3507:	
 11383                           
 11384                           ;./eeprom.h: 16:     GIE=0;
 11385  1A2C  138B               	bcf	11,7	;volatile
 11386  1A2D                     l3509:	
 11387                           
 11388                           ;./eeprom.h: 17:     EECON2=0x55;
 11389  1A2D  3055               	movlw	85
 11390  1A2E  008D               	movwf	13	;volsfr
 11391  1A2F                     l3511:	
 11392                           
 11393                           ;./eeprom.h: 18:     EECON2=0xAA;
 11394  1A2F  30AA               	movlw	170
 11395  1A30  008D               	movwf	13	;volsfr
 11396  1A31                     l3513:	
 11397                           
 11398                           ;./eeprom.h: 19:     EECON1bits.WR = 1;
 11399  1A31  148C               	bsf	12,1	;volsfr
 11400  1A32                     l3515:	
 11401                           
 11402                           ;./eeprom.h: 20:     GIE = gie_status;
 11403  1A32  1875               	btfsc	write_eeprom@gie_status,0
 11404  1A33  2A35               	goto	u4891
 11405  1A34  2A37               	goto	u4890
 11406  1A35                     u4891:	
 11407  1A35  178B               	bsf	11,7	;volatile
 11408  1A36  2A38               	goto	u4904
 11409  1A37                     u4890:	
 11410  1A37  138B               	bcf	11,7	;volatile
 11411  1A38                     u4904:	
 11412  1A38                     l3517:	
 11413                           
 11414                           ;./eeprom.h: 21:     WREN=0;
 11415  1A38  1683               	bsf	3,5	;RP0=1, select bank3
 11416  1A39  1703               	bsf	3,6	;RP1=1, select bank3
 11417  1A3A  110C               	bcf	12,2	;volsfr
 11418  1A3B                     l72:	
 11419  1A3B  0008               	return
 11420  1A3C                     __end_of_write_eeprom:	
 11421                           
 11422                           	psect	text32
 11423  1DD4                     __ptext32:	
 11424 ;; *************** function _LCD_SCROLL *****************
 11425 ;; Defined at:
 11426 ;;		line 121 in file "./libcd.h"
 11427 ;; Parameters:    Size  Location     Type
 11428 ;;  dir             1    wreg     unsigned char 
 11429 ;;  spd             1    3[COMMON] unsigned char 
 11430 ;;  ti              2    4[COMMON] int 
 11431 ;; Auto vars:     Size  Location     Type
 11432 ;;  dir             1    9[COMMON] unsigned char 
 11433 ;;  j               1   11[COMMON] unsigned char 
 11434 ;;  i               1   10[COMMON] unsigned char 
 11435 ;; Return value:  Size  Location     Type
 11436 ;;                  1    wreg      void 
 11437 ;; Registers used:
 11438 ;;		wreg, status,2, status,0, pclath, cstack
 11439 ;; Tracked objects:
 11440 ;;		On entry : 0/0
 11441 ;;		On exit  : 0/0
 11442 ;;		Unchanged: 0/0
 11443 ;; Data sizes:     COMMON   BANK0   BANK1   BANK3   BANK2
 11444 ;;      Params:         3       0       0       0       0
 11445 ;;      Locals:         3       0       0       0       0
 11446 ;;      Temps:          3       0       0       0       0
 11447 ;;      Totals:         9       0       0       0       0
 11448 ;;Total ram usage:        9 bytes
 11449 ;; Hardware stack levels used:    1
 11450 ;; Hardware stack levels required when called:    2
 11451 ;; This function calls:
 11452 ;;		_lcd_cmd
 11453 ;; This function is called by:
 11454 ;;		_main
 11455 ;; This function uses a non-reentrant model
 11456 ;;
 11457                           
 11458                           
 11459                           ;psect for function _LCD_SCROLL
 11460  1DD4                     _LCD_SCROLL:	
 11461                           
 11462                           ;incstack = 0
 11463                           ; Regs used in _LCD_SCROLL: [wreg+status,2+status,0+pclath+cstack]
 11464                           ;LCD_SCROLL@dir stored from wreg
 11465  1DD4  00F9               	movwf	LCD_SCROLL@dir
 11466  1DD5                     l5161:	
 11467                           
 11468                           ;./libcd.h: 123:     unsigned char j = 0;
 11469  1DD5  01FB               	clrf	LCD_SCROLL@j
 11470  1DD6                     l5163:	
 11471                           
 11472                           ;./libcd.h: 124:     if(dir == 0){
 11473  1DD6  0879               	movf	LCD_SCROLL@dir,w
 11474  1DD7  1D03               	btfss	3,2
 11475  1DD8  2DDA               	goto	u7761
 11476  1DD9  2DDB               	goto	u7760
 11477  1DDA                     u7761:	
 11478  1DDA  2E20               	goto	l5185
 11479  1DDB                     u7760:	
 11480  1DDB                     l5165:	
 11481                           
 11482                           ;./libcd.h: 125:     for(i=0; i<=ti; i++){
 11483  1DDB  01FA               	clrf	LCD_SCROLL@i
 11484  1DDC  2E12               	goto	l5181
 11485  1DDD                     l5167:	
 11486                           
 11487                           ;./libcd.h: 126:         for(j = 0; j<(10-spd); j++){
 11488  1DDD  01FB               	clrf	LCD_SCROLL@j
 11489  1DDE  2DF0               	goto	l5173
 11490  1DDF                     l5169:	
 11491                           
 11492                           ;./libcd.h: 127:         _delay((unsigned long)((300)*(20000000/4000.0)));
 11493  1DDF  3008               	movlw	8
 11494  1DE0  00F8               	movwf	??_LCD_SCROLL+2
 11495  1DE1  309D               	movlw	157
 11496  1DE2  00F7               	movwf	??_LCD_SCROLL+1
 11497  1DE3  3005               	movlw	5
 11498  1DE4  00F6               	movwf	??_LCD_SCROLL
 11499  1DE5                     u8427:	
 11500  1DE5  0BF6               	decfsz	??_LCD_SCROLL,f
 11501  1DE6  2DE5               	goto	u8427
 11502  1DE7  0BF7               	decfsz	??_LCD_SCROLL+1,f
 11503  1DE8  2DE5               	goto	u8427
 11504  1DE9  0BF8               	decfsz	??_LCD_SCROLL+2,f
 11505  1DEA  2DE5               	goto	u8427
 11506  1DEB  2DEC               	nop2
 11507  1DEC                     l5171:	
 11508                           
 11509                           ;./libcd.h: 128:         }
 11510  1DEC  3001               	movlw	1
 11511  1DED  00F6               	movwf	??_LCD_SCROLL
 11512  1DEE  0876               	movf	??_LCD_SCROLL,w
 11513  1DEF  07FB               	addwf	LCD_SCROLL@j,f
 11514  1DF0                     l5173:	
 11515  1DF0  3000               	movlw	0
 11516  1DF1  00F7               	movwf	??_LCD_SCROLL+1
 11517  1DF2  0873               	movf	LCD_SCROLL@spd,w
 11518  1DF3  3C0A               	sublw	10
 11519  1DF4  00F6               	movwf	??_LCD_SCROLL
 11520  1DF5  1C03               	skipc
 11521  1DF6  03F7               	decf	??_LCD_SCROLL+1,f
 11522  1DF7  0877               	movf	??_LCD_SCROLL+1,w
 11523  1DF8  3A80               	xorlw	128
 11524  1DF9  3C80               	sublw	128
 11525  1DFA  1D03               	skipz
 11526  1DFB  2DFE               	goto	u7775
 11527  1DFC  0876               	movf	??_LCD_SCROLL,w
 11528  1DFD  027B               	subwf	LCD_SCROLL@j,w
 11529  1DFE                     u7775:	
 11530  1DFE  1C03               	skipc
 11531  1DFF  2E01               	goto	u7771
 11532  1E00  2E02               	goto	u7770
 11533  1E01                     u7771:	
 11534  1E01  2DDF               	goto	l5169
 11535  1E02                     u7770:	
 11536  1E02                     l5175:	
 11537                           
 11538                           ;./libcd.h: 129:         lcd_cmd(1);
 11539  1E02  3001               	movlw	1
 11540  1E03  160A  158A  2141  160A  158A  	fcall	_lcd_cmd
 11541                           
 11542                           ;./libcd.h: 130:         lcd_cmd(12);
 11543  1E08  300C               	movlw	12
 11544  1E09  160A  158A  2141  160A  158A  	fcall	_lcd_cmd
 11545  1E0E                     l5177:	
 11546  1E0E                     l5179:	
 11547                           
 11548                           ;./libcd.h: 132:     }
 11549  1E0E  3001               	movlw	1
 11550  1E0F  00F6               	movwf	??_LCD_SCROLL
 11551  1E10  0876               	movf	??_LCD_SCROLL,w
 11552  1E11  07FA               	addwf	LCD_SCROLL@i,f
 11553  1E12                     l5181:	
 11554  1E12  0875               	movf	LCD_SCROLL@ti+1,w
 11555  1E13  3A80               	xorlw	128
 11556  1E14  00F6               	movwf	??_LCD_SCROLL
 11557  1E15  3080               	movlw	128
 11558  1E16  0276               	subwf	??_LCD_SCROLL,w
 11559  1E17  1D03               	skipz
 11560  1E18  2E1B               	goto	u7785
 11561  1E19  087A               	movf	LCD_SCROLL@i,w
 11562  1E1A  0274               	subwf	LCD_SCROLL@ti,w
 11563  1E1B                     u7785:	
 11564  1E1B  1803               	skipnc
 11565  1E1C  2E1E               	goto	u7781
 11566  1E1D  2E1F               	goto	u7780
 11567  1E1E                     u7781:	
 11568  1E1E  2DDD               	goto	l5167
 11569  1E1F                     u7780:	
 11570  1E1F                     l5183:	
 11571                           
 11572                           ;./libcd.h: 134:     }
 11573  1E1F  2E69               	goto	l136
 11574  1E20                     l5185:	
 11575  1E20  0879               	movf	LCD_SCROLL@dir,w
 11576  1E21  1903               	btfsc	3,2
 11577  1E22  2E24               	goto	u7791
 11578  1E23  2E25               	goto	u7790
 11579  1E24                     u7791:	
 11580  1E24  2E69               	goto	l136
 11581  1E25                     u7790:	
 11582  1E25                     l5187:	
 11583                           
 11584                           ;./libcd.h: 136:     for(i = 0; i<=ti; i++){
 11585  1E25  01FA               	clrf	LCD_SCROLL@i
 11586  1E26  2E5C               	goto	l5203
 11587  1E27                     l5189:	
 11588                           
 11589                           ;./libcd.h: 137:         for(j = 0; j<10-spd; j++){
 11590  1E27  01FB               	clrf	LCD_SCROLL@j
 11591  1E28  2E3A               	goto	l5195
 11592  1E29                     l5191:	
 11593                           
 11594                           ;./libcd.h: 138:         _delay((unsigned long)((300)*(20000000/4000.0)));
 11595  1E29  3008               	movlw	8
 11596  1E2A  00F8               	movwf	??_LCD_SCROLL+2
 11597  1E2B  309D               	movlw	157
 11598  1E2C  00F7               	movwf	??_LCD_SCROLL+1
 11599  1E2D  3005               	movlw	5
 11600  1E2E  00F6               	movwf	??_LCD_SCROLL
 11601  1E2F                     u8437:	
 11602  1E2F  0BF6               	decfsz	??_LCD_SCROLL,f
 11603  1E30  2E2F               	goto	u8437
 11604  1E31  0BF7               	decfsz	??_LCD_SCROLL+1,f
 11605  1E32  2E2F               	goto	u8437
 11606  1E33  0BF8               	decfsz	??_LCD_SCROLL+2,f
 11607  1E34  2E2F               	goto	u8437
 11608  1E35  2E36               	nop2
 11609  1E36                     l5193:	
 11610                           
 11611                           ;./libcd.h: 139:         }
 11612  1E36  3001               	movlw	1
 11613  1E37  00F6               	movwf	??_LCD_SCROLL
 11614  1E38  0876               	movf	??_LCD_SCROLL,w
 11615  1E39  07FB               	addwf	LCD_SCROLL@j,f
 11616  1E3A                     l5195:	
 11617  1E3A  3000               	movlw	0
 11618  1E3B  00F7               	movwf	??_LCD_SCROLL+1
 11619  1E3C  0873               	movf	LCD_SCROLL@spd,w
 11620  1E3D  3C0A               	sublw	10
 11621  1E3E  00F6               	movwf	??_LCD_SCROLL
 11622  1E3F  1C03               	skipc
 11623  1E40  03F7               	decf	??_LCD_SCROLL+1,f
 11624  1E41  0877               	movf	??_LCD_SCROLL+1,w
 11625  1E42  3A80               	xorlw	128
 11626  1E43  3C80               	sublw	128
 11627  1E44  1D03               	skipz
 11628  1E45  2E48               	goto	u7805
 11629  1E46  0876               	movf	??_LCD_SCROLL,w
 11630  1E47  027B               	subwf	LCD_SCROLL@j,w
 11631  1E48                     u7805:	
 11632  1E48  1C03               	skipc
 11633  1E49  2E4B               	goto	u7801
 11634  1E4A  2E4C               	goto	u7800
 11635  1E4B                     u7801:	
 11636  1E4B  2E29               	goto	l5191
 11637  1E4C                     u7800:	
 11638  1E4C                     l5197:	
 11639                           
 11640                           ;./libcd.h: 140:         lcd_cmd(1);
 11641  1E4C  3001               	movlw	1
 11642  1E4D  160A  158A  2141  160A  158A  	fcall	_lcd_cmd
 11643                           
 11644                           ;./libcd.h: 141:         lcd_cmd(8);
 11645  1E52  3008               	movlw	8
 11646  1E53  160A  158A  2141  160A  158A  	fcall	_lcd_cmd
 11647  1E58                     l5199:	
 11648  1E58                     l5201:	
 11649                           
 11650                           ;./libcd.h: 143:     }
 11651  1E58  3001               	movlw	1
 11652  1E59  00F6               	movwf	??_LCD_SCROLL
 11653  1E5A  0876               	movf	??_LCD_SCROLL,w
 11654  1E5B  07FA               	addwf	LCD_SCROLL@i,f
 11655  1E5C                     l5203:	
 11656  1E5C  0875               	movf	LCD_SCROLL@ti+1,w
 11657  1E5D  3A80               	xorlw	128
 11658  1E5E  00F6               	movwf	??_LCD_SCROLL
 11659  1E5F  3080               	movlw	128
 11660  1E60  0276               	subwf	??_LCD_SCROLL,w
 11661  1E61  1D03               	skipz
 11662  1E62  2E65               	goto	u7815
 11663  1E63  087A               	movf	LCD_SCROLL@i,w
 11664  1E64  0274               	subwf	LCD_SCROLL@ti,w
 11665  1E65                     u7815:	
 11666  1E65  1803               	skipnc
 11667  1E66  2E68               	goto	u7811
 11668  1E67  2E69               	goto	u7810
 11669  1E68                     u7811:	
 11670  1E68  2E27               	goto	l5189
 11671  1E69                     u7810:	
 11672  1E69                     l136:	
 11673  1E69  0008               	return
 11674  1E6A                     __end_of_LCD_SCROLL:	
 11675                           
 11676                           	psect	text33
 11677  1C61                     __ptext33:	
 11678 ;; *************** function _LCD_INIT *****************
 11679 ;; Defined at:
 11680 ;;		line 52 in file "./libcd.h"
 11681 ;; Parameters:    Size  Location     Type
 11682 ;;		None
 11683 ;; Auto vars:     Size  Location     Type
 11684 ;;		None
 11685 ;; Return value:  Size  Location     Type
 11686 ;;                  1    wreg      void 
 11687 ;; Registers used:
 11688 ;;		wreg, status,2, status,0, pclath, cstack
 11689 ;; Tracked objects:
 11690 ;;		On entry : 0/0
 11691 ;;		On exit  : 0/0
 11692 ;;		Unchanged: 0/0
 11693 ;; Data sizes:     COMMON   BANK0   BANK1   BANK3   BANK2
 11694 ;;      Params:         0       0       0       0       0
 11695 ;;      Locals:         0       0       0       0       0
 11696 ;;      Temps:          2       0       0       0       0
 11697 ;;      Totals:         2       0       0       0       0
 11698 ;;Total ram usage:        2 bytes
 11699 ;; Hardware stack levels used:    1
 11700 ;; Hardware stack levels required when called:    2
 11701 ;; This function calls:
 11702 ;;		_lcd_cmd
 11703 ;;		_lcd_port
 11704 ;; This function is called by:
 11705 ;;		_main
 11706 ;; This function uses a non-reentrant model
 11707 ;;
 11708                           
 11709                           
 11710                           ;psect for function _LCD_INIT
 11711  1C61                     _LCD_INIT:	
 11712  1C61                     l5121:	
 11713                           ;incstack = 0
 11714                           ; Regs used in _LCD_INIT: [wreg+status,2+status,0+pclath+cstack]
 11715                           
 11716                           
 11717                           ;./libcd.h: 53:     TRISD = 0;
 11718  1C61  1683               	bsf	3,5	;RP0=1, select bank1
 11719  1C62  1303               	bcf	3,6	;RP1=0, select bank1
 11720  1C63  0188               	clrf	8	;volatile
 11721  1C64                     l5123:	
 11722                           
 11723                           ;./libcd.h: 54:     TRISD4 = 0;
 11724  1C64  1208               	bcf	8,4	;volatile
 11725  1C65                     l5125:	
 11726                           
 11727                           ;./libcd.h: 55:     TRISD5 = 0;
 11728  1C65  1288               	bcf	8,5	;volatile
 11729  1C66                     l5127:	
 11730                           
 11731                           ;./libcd.h: 56:     lcd_port(0);
 11732  1C66  3000               	movlw	0
 11733  1C67  160A  158A  2181  160A  158A  	fcall	_lcd_port
 11734  1C6C                     l5129:	
 11735                           
 11736                           ;./libcd.h: 57:     _delay((unsigned long)((30)*(20000000/4000.0)));
 11737  1C6C  30C3               	movlw	195
 11738  1C6D  00F4               	movwf	??_LCD_INIT+1
 11739  1C6E  30CD               	movlw	205
 11740  1C6F  00F3               	movwf	??_LCD_INIT
 11741  1C70                     u8447:	
 11742  1C70  0BF3               	decfsz	??_LCD_INIT,f
 11743  1C71  2C70               	goto	u8447
 11744  1C72  0BF4               	decfsz	??_LCD_INIT+1,f
 11745  1C73  2C70               	goto	u8447
 11746  1C74                     l5131:	
 11747                           
 11748                           ;./libcd.h: 58:     _delay((unsigned long)((500)*(20000000/4000000.0)));
 11749  1C74  3004               	movlw	4
 11750  1C75  00F4               	movwf	??_LCD_INIT+1
 11751  1C76  303D               	movlw	61
 11752  1C77  00F3               	movwf	??_LCD_INIT
 11753  1C78                     u8457:	
 11754  1C78  0BF3               	decfsz	??_LCD_INIT,f
 11755  1C79  2C78               	goto	u8457
 11756  1C7A  0BF4               	decfsz	??_LCD_INIT+1,f
 11757  1C7B  2C78               	goto	u8457
 11758  1C7C  2C7D               	nop2
 11759  1C7D                     l5133:	
 11760                           
 11761                           ;./libcd.h: 59:     lcd_cmd(3);
 11762  1C7D  3003               	movlw	3
 11763  1C7E  160A  158A  2141  160A  158A  	fcall	_lcd_cmd
 11764  1C83                     l5135:	
 11765                           
 11766                           ;./libcd.h: 60:     _delay((unsigned long)((5)*(20000000/4000.0)));
 11767  1C83  3021               	movlw	33
 11768  1C84  00F4               	movwf	??_LCD_INIT+1
 11769  1C85  3076               	movlw	118
 11770  1C86  00F3               	movwf	??_LCD_INIT
 11771  1C87                     u8467:	
 11772  1C87  0BF3               	decfsz	??_LCD_INIT,f
 11773  1C88  2C87               	goto	u8467
 11774  1C89  0BF4               	decfsz	??_LCD_INIT+1,f
 11775  1C8A  2C87               	goto	u8467
 11776  1C8B  0000               	nop
 11777  1C8C                     l5137:	
 11778                           
 11779                           ;./libcd.h: 61:     lcd_cmd(3);
 11780  1C8C  3003               	movlw	3
 11781  1C8D  160A  158A  2141  160A  158A  	fcall	_lcd_cmd
 11782  1C92                     l5139:	
 11783                           
 11784                           ;./libcd.h: 62:     _delay((unsigned long)((150)*(20000000/4000000.0)));
 11785  1C92  30F9               	movlw	249
 11786  1C93  00F3               	movwf	??_LCD_INIT
 11787  1C94                     u8477:	
 11788  1C94  0BF3               	decfsz	??_LCD_INIT,f
 11789  1C95  2C94               	goto	u8477
 11790  1C96  2C97               	nop2
 11791  1C97                     l5141:	
 11792                           
 11793                           ;./libcd.h: 63:     lcd_cmd(3);
 11794  1C97  3003               	movlw	3
 11795  1C98  160A  158A  2141  160A  158A  	fcall	_lcd_cmd
 11796  1C9D                     l5143:	
 11797                           
 11798                           ;./libcd.h: 64:     lcd_cmd(2);
 11799  1C9D  3002               	movlw	2
 11800  1C9E  160A  158A  2141  160A  158A  	fcall	_lcd_cmd
 11801  1CA3                     l5145:	
 11802                           
 11803                           ;./libcd.h: 65:     lcd_cmd(2);
 11804  1CA3  3002               	movlw	2
 11805  1CA4  160A  158A  2141  160A  158A  	fcall	_lcd_cmd
 11806  1CA9                     l5147:	
 11807                           
 11808                           ;./libcd.h: 66:     lcd_cmd(8);
 11809  1CA9  3008               	movlw	8
 11810  1CAA  160A  158A  2141  160A  158A  	fcall	_lcd_cmd
 11811  1CAF                     l5149:	
 11812                           
 11813                           ;./libcd.h: 67:     lcd_cmd(0);
 11814  1CAF  3000               	movlw	0
 11815  1CB0  160A  158A  2141  160A  158A  	fcall	_lcd_cmd
 11816  1CB5                     l5151:	
 11817                           
 11818                           ;./libcd.h: 68:     lcd_cmd(8);
 11819  1CB5  3008               	movlw	8
 11820  1CB6  160A  158A  2141  160A  158A  	fcall	_lcd_cmd
 11821  1CBB                     l5153:	
 11822                           
 11823                           ;./libcd.h: 69:     lcd_cmd(0);
 11824  1CBB  3000               	movlw	0
 11825  1CBC  160A  158A  2141  160A  158A  	fcall	_lcd_cmd
 11826  1CC1                     l5155:	
 11827                           
 11828                           ;./libcd.h: 70:     lcd_cmd(12);
 11829  1CC1  300C               	movlw	12
 11830  1CC2  160A  158A  2141  160A  158A  	fcall	_lcd_cmd
 11831  1CC7                     l5157:	
 11832                           
 11833                           ;./libcd.h: 71:     lcd_cmd(0);
 11834  1CC7  3000               	movlw	0
 11835  1CC8  160A  158A  2141  160A  158A  	fcall	_lcd_cmd
 11836  1CCD                     l5159:	
 11837                           
 11838                           ;./libcd.h: 72:     lcd_cmd(6);
 11839  1CCD  3006               	movlw	6
 11840  1CCE  160A  158A  2141  160A  158A  	fcall	_lcd_cmd
 11841  1CD3                     l100:	
 11842  1CD3  0008               	return
 11843  1CD4                     __end_of_LCD_INIT:	
 11844                           
 11845                           	psect	text34
 11846  1941                     __ptext34:	
 11847 ;; *************** function _lcd_cmd *****************
 11848 ;; Defined at:
 11849 ;;		line 26 in file "./libcd.h"
 11850 ;; Parameters:    Size  Location     Type
 11851 ;;  DATA            1    wreg     unsigned char 
 11852 ;; Auto vars:     Size  Location     Type
 11853 ;;  DATA            1    2[COMMON] unsigned char 
 11854 ;; Return value:  Size  Location     Type
 11855 ;;                  1    wreg      void 
 11856 ;; Registers used:
 11857 ;;		wreg, status,2, status,0, pclath, cstack
 11858 ;; Tracked objects:
 11859 ;;		On entry : 0/0
 11860 ;;		On exit  : 0/0
 11861 ;;		Unchanged: 0/0
 11862 ;; Data sizes:     COMMON   BANK0   BANK1   BANK3   BANK2
 11863 ;;      Params:         0       0       0       0       0
 11864 ;;      Locals:         1       0       0       0       0
 11865 ;;      Temps:          0       0       0       0       0
 11866 ;;      Totals:         1       0       0       0       0
 11867 ;;Total ram usage:        1 bytes
 11868 ;; Hardware stack levels used:    1
 11869 ;; Hardware stack levels required when called:    1
 11870 ;; This function calls:
 11871 ;;		_clock
 11872 ;;		_lcd_port
 11873 ;; This function is called by:
 11874 ;;		_LCD_CLR
 11875 ;;		_LCD_CURSOR
 11876 ;;		_LCD_INIT
 11877 ;;		_LCD_SCROLL
 11878 ;; This function uses a non-reentrant model
 11879 ;;
 11880                           
 11881                           
 11882                           ;psect for function _lcd_cmd
 11883  1941                     _lcd_cmd:	
 11884                           
 11885                           ;incstack = 0
 11886                           ; Regs used in _lcd_cmd: [wreg+status,2+status,0+pclath+cstack]
 11887                           ;lcd_cmd@DATA stored from wreg
 11888  1941  00F2               	movwf	lcd_cmd@DATA
 11889  1942                     l4911:	
 11890                           
 11891                           ;./libcd.h: 27:     RD4 = 0;
 11892  1942  1283               	bcf	3,5	;RP0=0, select bank0
 11893  1943  1303               	bcf	3,6	;RP1=0, select bank0
 11894  1944  1208               	bcf	8,4	;volatile
 11895  1945                     l4913:	
 11896                           
 11897                           ;./libcd.h: 28:     lcd_port(DATA);
 11898  1945  0872               	movf	lcd_cmd@DATA,w
 11899  1946  160A  158A  2181  160A  158A  	fcall	_lcd_port
 11900                           
 11901                           ;./libcd.h: 29:     clock();
 11902  194B  160A  158A  2168  160A  158A  	fcall	_clock
 11903  1950                     l89:	
 11904  1950  0008               	return
 11905  1951                     __end_of_lcd_cmd:	
 11906                           
 11907                           	psect	text35
 11908  1981                     __ptext35:	
 11909 ;; *************** function _lcd_port *****************
 11910 ;; Defined at:
 11911 ;;		line 16 in file "./libcd.h"
 11912 ;; Parameters:    Size  Location     Type
 11913 ;;  DATA            1    wreg     unsigned char 
 11914 ;; Auto vars:     Size  Location     Type
 11915 ;;  DATA            1    0[COMMON] unsigned char 
 11916 ;; Return value:  Size  Location     Type
 11917 ;;                  1    wreg      void 
 11918 ;; Registers used:
 11919 ;;		wreg
 11920 ;; Tracked objects:
 11921 ;;		On entry : 0/0
 11922 ;;		On exit  : 0/0
 11923 ;;		Unchanged: 0/0
 11924 ;; Data sizes:     COMMON   BANK0   BANK1   BANK3   BANK2
 11925 ;;      Params:         0       0       0       0       0
 11926 ;;      Locals:         1       0       0       0       0
 11927 ;;      Temps:          0       0       0       0       0
 11928 ;;      Totals:         1       0       0       0       0
 11929 ;;Total ram usage:        1 bytes
 11930 ;; Hardware stack levels used:    1
 11931 ;; This function calls:
 11932 ;;		Nothing
 11933 ;; This function is called by:
 11934 ;;		_lcd_cmd
 11935 ;;		_LCD_INIT
 11936 ;;		_LCD_WRITE_CHAR
 11937 ;;		_LCD_WRITE_NUM
 11938 ;; This function uses a non-reentrant model
 11939 ;;
 11940                           
 11941                           
 11942                           ;psect for function _lcd_port
 11943  1981                     _lcd_port:	
 11944                           
 11945                           ;incstack = 0
 11946                           ; Regs used in _lcd_port: [wreg]
 11947                           ;lcd_port@DATA stored from wreg
 11948  1981  00F0               	movwf	lcd_port@DATA
 11949  1982                     l4833:	
 11950                           
 11951                           ;./libcd.h: 17:     if(DATA & 1) RD0 = 1;
 11952  1982  1C70               	btfss	lcd_port@DATA,0
 11953  1983  2985               	goto	u7281
 11954  1984  2986               	goto	u7280
 11955  1985                     u7281:	
 11956  1985  298A               	goto	l78
 11957  1986                     u7280:	
 11958  1986                     l4835:	
 11959  1986  1283               	bcf	3,5	;RP0=0, select bank0
 11960  1987  1303               	bcf	3,6	;RP1=0, select bank0
 11961  1988  1408               	bsf	8,0	;volatile
 11962  1989  298D               	goto	l79
 11963  198A                     l78:	
 11964                           ;./libcd.h: 18:     else RD0 = 0;
 11965                           
 11966  198A  1283               	bcf	3,5	;RP0=0, select bank0
 11967  198B  1303               	bcf	3,6	;RP1=0, select bank0
 11968  198C  1008               	bcf	8,0	;volatile
 11969  198D                     l79:	
 11970                           
 11971                           ;./libcd.h: 19:     if(DATA & 2) RD1 = 1;
 11972  198D  1CF0               	btfss	lcd_port@DATA,1
 11973  198E  2990               	goto	u7291
 11974  198F  2991               	goto	u7290
 11975  1990                     u7291:	
 11976  1990  2993               	goto	l80
 11977  1991                     u7290:	
 11978  1991                     l4837:	
 11979  1991  1488               	bsf	8,1	;volatile
 11980  1992  2994               	goto	l81
 11981  1993                     l80:	
 11982                           ;./libcd.h: 20:     else RD1 = 0;
 11983                           
 11984  1993  1088               	bcf	8,1	;volatile
 11985  1994                     l81:	
 11986                           
 11987                           ;./libcd.h: 21:     if(DATA & 4) RD2 = 1;
 11988  1994  1D70               	btfss	lcd_port@DATA,2
 11989  1995  2997               	goto	u7301
 11990  1996  2998               	goto	u7300
 11991  1997                     u7301:	
 11992  1997  299A               	goto	l82
 11993  1998                     u7300:	
 11994  1998                     l4839:	
 11995  1998  1508               	bsf	8,2	;volatile
 11996  1999  299B               	goto	l83
 11997  199A                     l82:	
 11998                           ;./libcd.h: 22:     else RD2 = 0;
 11999                           
 12000  199A  1108               	bcf	8,2	;volatile
 12001  199B                     l83:	
 12002                           
 12003                           ;./libcd.h: 23:     if(DATA & 8) RD3 = 1;
 12004  199B  1DF0               	btfss	lcd_port@DATA,3
 12005  199C  299E               	goto	u7311
 12006  199D  299F               	goto	u7310
 12007  199E                     u7311:	
 12008  199E  29A1               	goto	l84
 12009  199F                     u7310:	
 12010  199F                     l4841:	
 12011  199F  1588               	bsf	8,3	;volatile
 12012  19A0  29A2               	goto	l86
 12013  19A1                     l84:	
 12014                           ;./libcd.h: 24:     else RD3 = 0;
 12015                           
 12016  19A1  1188               	bcf	8,3	;volatile
 12017  19A2                     l86:	
 12018  19A2  0008               	return
 12019  19A3                     __end_of_lcd_port:	
 12020                           
 12021                           	psect	text36
 12022  1968                     __ptext36:	
 12023 ;; *************** function _clock *****************
 12024 ;; Defined at:
 12025 ;;		line 9 in file "./libcd.h"
 12026 ;; Parameters:    Size  Location     Type
 12027 ;;		None
 12028 ;; Auto vars:     Size  Location     Type
 12029 ;;		None
 12030 ;; Return value:  Size  Location     Type
 12031 ;;                  1    wreg      void 
 12032 ;; Registers used:
 12033 ;;		wreg
 12034 ;; Tracked objects:
 12035 ;;		On entry : 0/0
 12036 ;;		On exit  : 0/0
 12037 ;;		Unchanged: 0/0
 12038 ;; Data sizes:     COMMON   BANK0   BANK1   BANK3   BANK2
 12039 ;;      Params:         0       0       0       0       0
 12040 ;;      Locals:         0       0       0       0       0
 12041 ;;      Temps:          2       0       0       0       0
 12042 ;;      Totals:         2       0       0       0       0
 12043 ;;Total ram usage:        2 bytes
 12044 ;; Hardware stack levels used:    1
 12045 ;; This function calls:
 12046 ;;		Nothing
 12047 ;; This function is called by:
 12048 ;;		_lcd_cmd
 12049 ;;		_LCD_WRITE_CHAR
 12050 ;;		_LCD_WRITE_NUM
 12051 ;; This function uses a non-reentrant model
 12052 ;;
 12053                           
 12054                           
 12055                           ;psect for function _clock
 12056  1968                     _clock:	
 12057  1968                     l4827:	
 12058                           ;incstack = 0
 12059                           ; Regs used in _clock: [wreg]
 12060                           
 12061                           
 12062                           ;./libcd.h: 10:     RD5 = 1;
 12063  1968  1283               	bcf	3,5	;RP0=0, select bank0
 12064  1969  1303               	bcf	3,6	;RP1=0, select bank0
 12065  196A  1688               	bsf	8,5	;volatile
 12066  196B                     l4829:	
 12067                           
 12068                           ;./libcd.h: 11:     _delay((unsigned long)((5)*(20000000/4000.0)));
 12069  196B  3021               	movlw	33
 12070  196C  00F1               	movwf	??_clock+1
 12071  196D  3076               	movlw	118
 12072  196E  00F0               	movwf	??_clock
 12073  196F                     u8487:	
 12074  196F  0BF0               	decfsz	??_clock,f
 12075  1970  296F               	goto	u8487
 12076  1971  0BF1               	decfsz	??_clock+1,f
 12077  1972  296F               	goto	u8487
 12078  1973  0000               	nop
 12079  1974                     l4831:	
 12080                           
 12081                           ;./libcd.h: 12:     RD5 = 0;
 12082  1974  1283               	bcf	3,5	;RP0=0, select bank0
 12083  1975  1303               	bcf	3,6	;RP1=0, select bank0
 12084  1976  1288               	bcf	8,5	;volatile
 12085                           
 12086                           ;./libcd.h: 13:     _delay((unsigned long)((5)*(20000000/4000.0)));
 12087  1977  3021               	movlw	33
 12088  1978  00F1               	movwf	??_clock+1
 12089  1979  3076               	movlw	118
 12090  197A  00F0               	movwf	??_clock
 12091  197B                     u8497:	
 12092  197B  0BF0               	decfsz	??_clock,f
 12093  197C  297B               	goto	u8497
 12094  197D  0BF1               	decfsz	??_clock+1,f
 12095  197E  297B               	goto	u8497
 12096  197F  0000               	nop
 12097  1980                     l75:	
 12098  1980  0008               	return
 12099  1981                     __end_of_clock:	
 12100  007E                     btemp	set	126	;btemp
 12101  007E                     wtemp0	set	126


Data Sizes:
    Strings     136
    Constant    76
    Data        2
    BSS         17
    Persistent  0
    Stack       0

Auto Spaces:
    Space          Size  Autos    Used
    COMMON           14     14      14
    BANK0            80     80      80
    BANK1            80     77      79
    BANK3            96      0      17
    BANK2            96      0       0

Pointer List with Targets:

    eval_poly@d	PTR const  size(1) Largest target is 40
		 -> log@coeff(CODE[36]), exp@coeff(CODE[40]), 

    frexp@eptr	PTR int  size(1) Largest target is 2
		 -> log@exponent(BANK0[2]), floor@expon(BANK0[2]), 

    changePass@newPass	PTR unsigned char  size(1) Largest target is 6
		 -> dob(BANK3[6]), pass(BANK3[6]), 

    checkPass@checker	PTR unsigned char  size(1) Largest target is 6
		 -> dob(BANK3[6]), pass(BANK3[6]), 

    LCD_WRITE_STRING@stringy	PTR unsigned char  size(1) Largest target is 32
		 -> STR_16(CODE[15]), STR_15(CODE[18]), STR_14(CODE[14]), STR_13(CODE[15]), 
		 -> STR_12(CODE[15]), STR_11(CODE[13]), STR_10(CODE[32]), STR_9(CODE[17]), 
		 -> STR_8(CODE[18]), STR_7(CODE[14]), STR_6(CODE[15]), STR_5(CODE[10]), 
		 -> STR_4(CODE[8]), STR_3(CODE[10]), STR_2(CODE[2]), STR_1(CODE[2]), 


Critical Paths under _main in COMMON

    _reset->_LCD_CURSOR
    _LCD_CLR->_lcd_cmd
    _LCD_WRITE_STRING->_LCD_WRITE_CHAR
    _LCD_WRITE_CHAR->_clock
    _LCD_WRITE_NUM->___xxtofl
    _pow->___xxtofl
    _log->___xxtofl
    _exp->___xxtofl
    _floor->___xxtofl
    ___fleq->___xxtofl
    ___fltol->___xxtofl
    ___flmul->___xxtofl
    ___flsub->___xxtofl
    ___fladd->___xxtofl
    _LCD_CURSOR->_lcd_cmd
    _checkPass->_read_eeprom
    _changePass->_write_eeprom
    _LCD_SCROLL->_lcd_cmd
    _LCD_INIT->_lcd_cmd
    _lcd_cmd->_clock

Critical Paths under _main in BANK0

    _pow->_log
    _log->_eval_poly
    _exp->_log
    _ldexp->_eval_poly
    _floor->___fladd
    _frexp->___fleq
    _eval_poly->___fladd
    ___flmul->_frexp
    ___flsub->___fladd
    ___fladd->___flmul

Critical Paths under _main in BANK1

    _main->_disp
    _disp->_LCD_WRITE_NUM
    _LCD_WRITE_NUM->_pow
    _pow->_exp
    _log->_eval_poly
    _exp->_ldexp
    _ldexp->_eval_poly

Critical Paths under _main in BANK3

    None.

Critical Paths under _main in BANK2

    None.

Call Graph Tables:

 ---------------------------------------------------------------------------------
 (Depth) Function   	        Calls       Base Space   Used Autos Params    Refs
 ---------------------------------------------------------------------------------
 (0) _main                                                 4     4      0   91772
                                             73 BANK1      4     4      0
                            _LCD_CLR
                         _LCD_CURSOR
                           _LCD_INIT
                         _LCD_SCROLL
                   _LCD_WRITE_STRING
                         _changePass
                          _checkPass
                               _disp
                         _keypadscan
                        _read_eeprom
                              _reset
 ---------------------------------------------------------------------------------
 (1) _reset                                                1     1      0    3550
                                             10 COMMON     1     1      0
                            _LCD_CLR
                         _LCD_CURSOR
                   _LCD_WRITE_STRING
 ---------------------------------------------------------------------------------
 (2) _LCD_CLR                                              0     0      0     155
                            _lcd_cmd
 ---------------------------------------------------------------------------------
 (1) _keypadscan                                           4     4      0     391
                                              0 COMMON     4     4      0
 ---------------------------------------------------------------------------------
 (1) _disp                                                 5     5      0   80509
                                             68 BANK1      5     5      0
                         _LCD_CURSOR
                      _LCD_WRITE_NUM
                   _LCD_WRITE_STRING
 ---------------------------------------------------------------------------------
 (2) _LCD_WRITE_STRING                                     3     3      0     960
                                              6 COMMON     3     3      0
                     _LCD_WRITE_CHAR
 ---------------------------------------------------------------------------------
 (3) _LCD_WRITE_CHAR                                       4     4      0     254
                                              2 COMMON     4     4      0
                              _clock
                           _lcd_port
 ---------------------------------------------------------------------------------
 (2) _LCD_WRITE_NUM                                       24    20      4   77083
                                             44 BANK1     24    20      4
                            ___aldiv
                            ___awmod
                            ___fltol
                           ___xxtofl
                              _clock
                           _lcd_port
                                _pow
 ---------------------------------------------------------------------------------
 (3) _pow                                                 22    14      8   73392
                                             22 BANK1     22    14      8
                             ___fleq
                             ___flge
                            ___flmul
                            ___flneg
                            ___fltol
                           ___xxtofl
                                _exp
                                _log
 ---------------------------------------------------------------------------------
 (4) _log                                                  7     3      4   23948
                                             77 BANK0      3     3      0
                                              4 BANK1      4     0      4
                            ___fladd
                             ___fleq
                             ___flge
                            ___flmul
                           ___xxtofl
                          _eval_poly
                              _frexp
 ---------------------------------------------------------------------------------
 (4) _exp                                                 12     8      4   39120
                                             10 BANK1     12     8      4
                            ___fldiv
                             ___fleq
                             ___flge
                            ___flmul
                            ___flneg
                            ___flsub
                            ___fltol
                           ___xxtofl
                          _eval_poly
                              _floor
                              _ldexp
                                _log (ARG)
 ---------------------------------------------------------------------------------
 (5) _ldexp                                                8     2      6    3995
                                             77 BANK0      2     2      0
                                              4 BANK1      6     0      6
                             ___fleq
                             ___flge
                          _eval_poly (ARG)
 ---------------------------------------------------------------------------------
 (5) _floor                                               11     7      4   10061
                                             65 BANK0     11     7      4
                            ___fladd
                             ___flge
                            ___fltol
                           ___xxtofl
                              _frexp
 ---------------------------------------------------------------------------------
 (5) _frexp                                                7     2      5    2252
                                             12 BANK0      7     2      5
                             ___fleq
 ---------------------------------------------------------------------------------
 (6) ___fleq                                              12     4      8    1570
                                              0 BANK0     12     4      8
                           ___xxtofl (ARG)
 ---------------------------------------------------------------------------------
 (5) ___xxtofl                                            14    10      4     926
                                              0 COMMON    14    10      4
 ---------------------------------------------------------------------------------
 (6) ___fltol                                             11     7      4     697
                                              0 BANK0     11     7      4
                           ___xxtofl (ARG)
 ---------------------------------------------------------------------------------
 (5) ___flge                                              12     4      8    1886
                                              0 COMMON    12     4      8
 ---------------------------------------------------------------------------------
 (5) _eval_poly                                           16     9      7    8849
                                             65 BANK0     12     5      7
                                              0 BANK1      4     4      0
                            ___fladd
                            ___flmul
 ---------------------------------------------------------------------------------
 (6) ___flmul                                             26    18      8    4213
                                             19 BANK0     26    18      8
                          __Umul8_16
                           ___xxtofl (ARG)
                              _frexp (ARG)
 ---------------------------------------------------------------------------------
 (7) __Umul8_16                                            9     7      2     980
                                              0 COMMON     9     7      2
 ---------------------------------------------------------------------------------
 (5) ___flsub                                              8     0      8    4087
                                             65 BANK0      8     0      8
                            ___fladd
                           ___xxtofl (ARG)
 ---------------------------------------------------------------------------------
 (6) ___fladd                                             20    12      8    3842
                                             45 BANK0     20    12      8
                            ___flmul (ARG)
                           ___xxtofl (ARG)
                              _frexp (ARG)
 ---------------------------------------------------------------------------------
 (5) ___flneg                                              4     0      4     335
                                              0 COMMON     4     0      4
 ---------------------------------------------------------------------------------
 (5) ___fldiv                                             26    18      8    1863
                                              0 COMMON    13     5      8
                                              0 BANK0     13    13      0
 ---------------------------------------------------------------------------------
 (3) ___awmod                                              7     3      4     613
                                              0 COMMON     7     3      4
 ---------------------------------------------------------------------------------
 (3) ___aldiv                                             15     7      8     805
                                              0 COMMON     9     1      8
                                              0 BANK0      6     6      0
 ---------------------------------------------------------------------------------
 (2) _LCD_CURSOR                                           7     6      1    2435
                                              3 COMMON     7     6      1
                            _lcd_cmd
 ---------------------------------------------------------------------------------
 (1) _checkPass                                            5     4      1     398
                                              1 COMMON     5     4      1
                        _read_eeprom
 ---------------------------------------------------------------------------------
 (1) _read_eeprom                                          1     1      0      22
                                              0 COMMON     1     1      0
 ---------------------------------------------------------------------------------
 (1) _changePass                                           8     7      1    1030
                                              7 COMMON     5     4      1
                                              0 BANK0      3     3      0
                       _write_eeprom
 ---------------------------------------------------------------------------------
 (2) _write_eeprom                                         7     4      3     371
                                              0 COMMON     7     4      3
 ---------------------------------------------------------------------------------
 (1) _LCD_SCROLL                                           9     6      3    1944
                                              3 COMMON     9     6      3
                            _lcd_cmd
 ---------------------------------------------------------------------------------
 (1) _LCD_INIT                                             2     2      0     279
                                              3 COMMON     2     2      0
                            _lcd_cmd
                           _lcd_port
 ---------------------------------------------------------------------------------
 (3) _lcd_cmd                                              1     1      0     155
                                              2 COMMON     1     1      0
                              _clock
                           _lcd_port
 ---------------------------------------------------------------------------------
 (4) _lcd_port                                             1     1      0     124
                                              0 COMMON     1     1      0
 ---------------------------------------------------------------------------------
 (4) _clock                                                2     2      0       0
                                              0 COMMON     2     2      0
 ---------------------------------------------------------------------------------
 Estimated maximum stack depth 7
 ---------------------------------------------------------------------------------

 Call Graph Graphs:

 _main (ROOT)
   _LCD_CLR
     _lcd_cmd
       _clock
       _lcd_port
   _LCD_CURSOR
     _lcd_cmd
       _clock
       _lcd_port
   _LCD_INIT
     _lcd_cmd
       _clock
       _lcd_port
     _lcd_port
   _LCD_SCROLL
     _lcd_cmd
       _clock
       _lcd_port
   _LCD_WRITE_STRING
     _LCD_WRITE_CHAR
       _clock
       _lcd_port
   _changePass
     _write_eeprom
   _checkPass
     _read_eeprom
   _disp
     _LCD_CURSOR
       _lcd_cmd
         _clock
         _lcd_port
     _LCD_WRITE_NUM
       ___aldiv
       ___awmod
       ___fltol
         ___xxtofl (ARG)
       ___xxtofl
       _clock
       _lcd_port
       _pow
         ___fleq
           ___xxtofl (ARG)
         ___flge
         ___flmul
           __Umul8_16
           ___xxtofl (ARG)
           _frexp (ARG)
             ___fleq
               ___xxtofl (ARG)
         ___flneg
         ___fltol
           ___xxtofl (ARG)
         ___xxtofl
         _exp
           ___fldiv
           ___fleq
             ___xxtofl (ARG)
           ___flge
           ___flmul
             __Umul8_16
             ___xxtofl (ARG)
             _frexp (ARG)
               ___fleq
                 ___xxtofl (ARG)
           ___flneg
           ___flsub
             ___fladd
               ___flmul (ARG)
                 __Umul8_16
                 ___xxtofl (ARG)
                 _frexp (ARG)
                   ___fleq
                     ___xxtofl (ARG)
               ___xxtofl (ARG)
               _frexp (ARG)
                 ___fleq
                   ___xxtofl (ARG)
             ___xxtofl (ARG)
           ___fltol
             ___xxtofl (ARG)
           ___xxtofl
           _eval_poly
             ___fladd
               ___flmul (ARG)
                 __Umul8_16
                 ___xxtofl (ARG)
                 _frexp (ARG)
                   ___fleq
                     ___xxtofl (ARG)
               ___xxtofl (ARG)
               _frexp (ARG)
                 ___fleq
                   ___xxtofl (ARG)
             ___flmul
               __Umul8_16
               ___xxtofl (ARG)
               _frexp (ARG)
                 ___fleq
                   ___xxtofl (ARG)
           _floor
             ___fladd
               ___flmul (ARG)
                 __Umul8_16
                 ___xxtofl (ARG)
                 _frexp (ARG)
                   ___fleq
                     ___xxtofl (ARG)
               ___xxtofl (ARG)
               _frexp (ARG)
                 ___fleq
                   ___xxtofl (ARG)
             ___flge
             ___fltol
               ___xxtofl (ARG)
             ___xxtofl
             _frexp
               ___fleq
                 ___xxtofl (ARG)
           _ldexp
             ___fleq
               ___xxtofl (ARG)
             ___flge
             _eval_poly (ARG)
               ___fladd
                 ___flmul (ARG)
                   __Umul8_16
                   ___xxtofl (ARG)
                   _frexp (ARG)
                     ___fleq
                       ___xxtofl (ARG)
                 ___xxtofl (ARG)
                 _frexp (ARG)
                   ___fleq
                     ___xxtofl (ARG)
               ___flmul
                 __Umul8_16
                 ___xxtofl (ARG)
                 _frexp (ARG)
                   ___fleq
                     ___xxtofl (ARG)
           _log (ARG)
             ___fladd
               ___flmul (ARG)
                 __Umul8_16
                 ___xxtofl (ARG)
                 _frexp (ARG)
                   ___fleq
                     ___xxtofl (ARG)
               ___xxtofl (ARG)
               _frexp (ARG)
                 ___fleq
                   ___xxtofl (ARG)
             ___fleq
               ___xxtofl (ARG)
             ___flge
             ___flmul
               __Umul8_16
               ___xxtofl (ARG)
               _frexp (ARG)
                 ___fleq
                   ___xxtofl (ARG)
             ___xxtofl
             _eval_poly
               ___fladd
                 ___flmul (ARG)
                   __Umul8_16
                   ___xxtofl (ARG)
                   _frexp (ARG)
                     ___fleq
                       ___xxtofl (ARG)
                 ___xxtofl (ARG)
                 _frexp (ARG)
                   ___fleq
                     ___xxtofl (ARG)
               ___flmul
                 __Umul8_16
                 ___xxtofl (ARG)
                 _frexp (ARG)
                   ___fleq
                     ___xxtofl (ARG)
             _frexp
               ___fleq
                 ___xxtofl (ARG)
         _log
           ___fladd
             ___flmul (ARG)
               __Umul8_16
               ___xxtofl (ARG)
               _frexp (ARG)
                 ___fleq
                   ___xxtofl (ARG)
             ___xxtofl (ARG)
             _frexp (ARG)
               ___fleq
                 ___xxtofl (ARG)
           ___fleq
             ___xxtofl (ARG)
           ___flge
           ___flmul
             __Umul8_16
             ___xxtofl (ARG)
             _frexp (ARG)
               ___fleq
                 ___xxtofl (ARG)
           ___xxtofl
           _eval_poly
             ___fladd
               ___flmul (ARG)
                 __Umul8_16
                 ___xxtofl (ARG)
                 _frexp (ARG)
                   ___fleq
                     ___xxtofl (ARG)
               ___xxtofl (ARG)
               _frexp (ARG)
                 ___fleq
                   ___xxtofl (ARG)
             ___flmul
               __Umul8_16
               ___xxtofl (ARG)
               _frexp (ARG)
                 ___fleq
                   ___xxtofl (ARG)
           _frexp
             ___fleq
               ___xxtofl (ARG)
     _LCD_WRITE_STRING
       _LCD_WRITE_CHAR
         _clock
         _lcd_port
   _keypadscan
   _read_eeprom
   _reset
     _LCD_CLR
       _lcd_cmd
         _clock
         _lcd_port
     _LCD_CURSOR
       _lcd_cmd
         _clock
         _lcd_port
     _LCD_WRITE_STRING
       _LCD_WRITE_CHAR
         _clock
         _lcd_port

 Address spaces:
Name               Size   Autos  Total    Cost      Usage
BANK3               60      0      11       9       17.7%
BITBANK3            60      0       0       8        0.0%
SFR3                 0      0       0       4        0.0%
BITSFR3              0      0       0       4        0.0%
BANK2               60      0       0      11        0.0%
BITBANK2            60      0       0      10        0.0%
SFR2                 0      0       0       5        0.0%
BITSFR2              0      0       0       5        0.0%
BANK1               50     4D      4F       7       98.8%
BITBANK1            50      0       0       6        0.0%
SFR1                 0      0       0       2        0.0%
BITSFR1              0      0       0       2        0.0%
BANK0               50     50      50       5      100.0%
BITBANK0            50      0       0       4        0.0%
SFR0                 0      0       0       1        0.0%
BITSFR0              0      0       0       1        0.0%
COMMON               E      E       E       1      100.0%
BITCOMMON            E      0       0       0        0.0%
CODE                 0      0       0       0        0.0%
DATA                 0      0      BE      12        0.0%
ABS                  0      0      BE       3        0.0%
NULL                 0      0       0       0        0.0%
STACK                0      0       0       2        0.0%
EEDATA             100      0       0       0        0.0%


Microchip Technology PIC Macro Assembler V2.10 build 88905656 
Symbol Table                                                                                   Tue Mar 31 16:32:49 2020

          ?_LCD_WRITE_CHAR 0070             ?_LCD_WRITE_NUM 00CC                LCD_CURSOR@c 0073  
              LCD_CURSOR@r 0076               ___fldiv@aexp 002C               ___fldiv@bexp 002B  
                        _i 00ED                          pc 0002               ___fldiv@sign 0024  
              __CFG_CP$OFF 0000                         l63 1952                         l80 1993  
                       l72 1A3B                         l81 1994                         l82 199A  
                       l66 1967                         l75 1980                         l83 199B  
                       l84 19A1                         l92 000F                         l69 1A10  
                       l86 19A2                         l78 198A                         l79 198D  
                       l89 1950                         l97 1BAB                         fsr 0004  
              LCD_SCROLL@i 007A                LCD_SCROLL@j 007B          _LCD_WRITE_NUM$900 00D4  
        _LCD_WRITE_NUM$899 00D0        __Umul8_16@word_mpld 0076          ?_LCD_WRITE_STRING 0070  
                      l100 1CD3                        l103 1A68                        l201 0CC2  
                      l212 0D4B                        l204 0CFF                        l109 19C4  
                      l213 0D36                        l205 0CEA                        l118 12C9  
                      l231 1A8B                        l136 1E69                        l240 1B08  
                      l208 0D25                        l160 0B57                        l233 1A99  
                      l217 0D5C                        l209 0D10                        l161 0B42  
                      l226 1DD3                        l155 0B31                        l180 0C17  
                      l172 0BCB                        l164 0B7D                        l156 0B1C  
                      l244 1ACD                        l181 0C02                        l173 0BB6  
                      l165 0B68                        l261 0576                        l159 0D77  
                      l192 0C8B                        l176 0BF1                        l433 081C  
                      l193 0C76                        l185 0C28                        l177 0BDC  
                      l169 0B8E                        l257 050E                        l274 06F0  
                      l443 08A4                        l196 0CB1                        l188 0C65  
                      l197 0C9C                        l189 0C50                        l269 0679  
                      l534 1C04                        l550 1940                        l542 002C  
                      l278 0758                        l703 0FF3                        l704 0FFF  
                      l545 0098                        l561 1D3A                        l801 1ED1  
                      l537 1B27                        l546 00B1                        l554 1D4F  
                      l538 1B43                        l707 19E8                        l539 1B58  
                      l564 1D4F                        l820 148D                        l741 17F3  
                      l733 1771                        l717 1679                        l661 0DDB  
                      l821 161C                        l719 17FF                        l831 1A0F  
                      l808 1EED                        l665 0E82                        l809 1EF9  
                      l825 161C                        l682 0F4D                        l674 0FFF  
                      l739 17E3                        l667 0E59                        l763 037E  
                      l851 0B01                        l692 0F93                        l829 19FD  
                      l757 0412                        l686 0F71                        l695 0FD1  
                      l871 11A9                        l847 0B01                        l769 0406  
                      l795 1E8C                        l867 1C60                        l859 10C5  
                      l797 1F23                        l889 1441                        l899 1FFF  
                      _GIE 005F                        _RB0 0030                        _RD0 0040  
                      _RD1 0041                        _RD2 0042                        _RC4 003C  
                      _RD3 0043                        _RC5 003D                        _RD4 0044  
                      _RC6 003E                        _RD5 0045                        _RC7 003F  
             __CFG_CPD$OFF 0000             LCD_CURSOR@low4 0078                        _dob 0193  
                      _col 01A0                        _key 00EE                        _exp 08A5  
                      _log 12CA             LCD_CURSOR@temp 0079                        _pow 1442  
                      fsr0 0004                        _row 019F         ??_LCD_WRITE_STRING 0076  
                      indf 0000               ___awmod@sign 0076               __CFG_FOSC$HS 0000  
             LCD_SCROLL@ti 0074               ___flmul@aexp 0041               ___flmul@bexp 0046  
             ___flmul@sign 0040               ___flmul@temp 004B               ___flmul@prod 0047  
          __end_of_LCD_CLR 0010               __CFG_LVP$OFF 0000               ___fltol@exp1 002A  
                     l5001 0891                       l4201 0D85                       l4121 1B55  
                     l5003 089C                       l5011 1BB1                       l4211 0D9C  
                     l4203 0D89                       l4131 19F3                       l4123 1B57  
                     l4115 1B09                       l3501 1A1C                       l5021 1BC7  
                     l5013 1BB6                       l4301 0E94                       l4221 0DB2  
                     l4213 0D9D                       l4205 0D8A                       l4133 19F7  
                     l4141 0010                       l4117 1B1F                       l5101 1257  
                     l3511 1A2F                       l3503 1A1F                       l5031 1BE3  
                     l5023 1BCA                       l5015 1BB8                       l5007 1BAC  
                     l4311 0EBE                       l4303 0EAB                       l4231 0DC3  
                     l4223 0DB3                       l4207 0D8F                       l4215 0D9F  
                     l4135 1A06                       l4127 19EA                       l4151 0070  
                     l4143 0024                       l4119 1B3B                       l5111 12B6  
                     l5103 127E                       l5121 1C61                       l5201 1E58  
                     l3513 1A31                       l3505 1A20                       l5041 1C00  
                     l5033 1BE9                       l5025 1BD1                       l5017 1BBC  
                     l5009 1BAD                       l4321 0EE7                       l4313 0EC2  
                     l4305 0EAF                       l4241 0DE1                       l4233 0DC8  
                     l4225 0DB9                       l4217 0DA7                       l4209 0D94  
                     l4137 1A0B                       l4129 19EC                       l4401 00C9  
                     l4153 0074                       l4145 0040                       l4161 1CD4  
                     l5113 12BB                       l5105 129A                       l5131 1C74  
                     l5123 1C64                       l5203 1E5C                       l3515 1A32  
                     l3507 1A2C                       l5051 1B71                       l5035 1BF0  
                     l5027 1BD5                       l5019 1BC1                       l4331 0F55  
                     l4323 0F25                       l4315 0EC3                       l4307 0EB3  
                     l4251 0DF5                       l4243 0DE5                       l4235 0DD0  
                     l4227 0DBD                       l4219 0DAC                       l4411 00E5  
                     l4403 00CE                       l4155 00AE                       l4147 0048  
                     l4171 1D00                       l4163 1CE1                       l5115 12C3  
                     l5107 12AD                       l5211 1D7B                       l5141 1C97  
                     l5133 1C7D                       l5125 1C65                       l3517 1A38  
                     l3509 1A2D                       l5061 1B9A                       l5053 1B76  
                     l5029 1BD9                       l5037 1BF6                       l4341 0F70  
                     l4333 0F5A                       l4325 0F2B                       l4317 0ECC  
                     l4309 0EBC                       l4261 0E09                       l4253 0DF9  
                     l4245 0DE9                       l4237 0DD1                       l4229 0DBE  
                     l4501 0388                       l4421 00FA                       l4413 00EB  
                     l4405 00D6                       l4157 00B0                       l4149 004C  
                     l4173 1D08                       l5109 12B0                       l5221 1DA7  
                     l5213 1D89                       l5205 1D53                       l5045 0003  
                     l5301 04C4                       l5151 1CB5                       l5143 1C9D  
                     l5135 1C83                       l5127 1C66                       l5063 1B9F  
                     l5055 1B7C                       l5047 1B5A                       l5039 1BFB  
                     l4343 0F75                       l4351 0F81                       l4327 0F30  
                     l4319 0ED1                       l4271 0E1D                       l4263 0E0D  
                     l4255 0DFD                       l4247 0DED                       l4239 0DD3  
                     l4511 03C6                       l4503 0396                       l4431 0116  
                     l4423 0102                       l4415 00EF                       l4407 00D8  
                     l4191 1D2F                       l4183 1D16                       l4175 1D0A  
                     l4167 1CEA                       l5071 19B3                       l5223 1DA9  
                     l5215 1D8F                       l5207 1D59                       l3711 0BA5  
                     l3703 0B81                       l5231 1A9A                       l5311 04F4  
                     l5303 04CB                       l5153 1CBB                       l5145 1CA3  
                     l5137 1C8C                       l5129 1C6C                       l5161 1DD5  
                     l5065 1BA5                       l5049 1B5F                       l5057 1B82  
                     l4345 0F78                       l4337 0F63                       l4329 0F3F  
                     l4353 0F85                       l4281 0E5D                       l4273 0E21  
                     l4265 0E11                       l4257 0E01                       l4249 0DF1  
                     l4521 03FA                       l4513 03D1                       l4505 039A  
                     l4441 0159                       l4425 0104                       l4417 00F0  
                     l4409 00E0                       l4193 1D3F                       l4177 1D0E  
                     l4185 1D28                       l4169 1CFF                       l5081 11BE  
                     l5073 19B7                       l5225 1DAB                       l5209 1D6B  
                     l5217 1D98                       l3721 0BE2                       l3713 0BA9  
                     l3705 0B94                       l5241 1AAD                       l5233 1A9D  
                     l5401 0691                       l5321 0526                       l5313 04F7  
                     l5305 04D8                       l5155 1CC1                       l5147 1CA9  
                     l5139 1C92                       l5171 1DEC                       l5163 1DD6  
                     l3491 1960                       l5059 1B88                       l4611 1624  
                     l4371 0FCD                       l4363 0F98                       l4355 0F86  
                     l4347 0F7A                       l4339 0F6C                       l4291 0E76  
                     l4283 0E66                       l4267 0E15                       l4259 0E05  
                     l4275 0E25                       l4603 19C5                       l4523 03FE  
                     l4515 03E0                       l4507 03B3                       l4451 01E2  
                     l4443 0175                       l4435 011F                       l4427 010C  
                     l4419 00F5                       l4195 1D44                       l4531 1E6B  
                     l5091 1212                       l5083 11C1                       l5075 11AA  
                     l5067 19A4                       l5227 1DAF                       l5219 1D9E  
                     l3731 0C1B                       l3715 0BBC                       l5243 1AB5  
                     l5235 1AA0                       l5411 06C0                       l5403 0697  
                     l5331 0546                       l5315 04FF                       l5323 052C  
                     l5307 04DE                       l5251 0413                       l5157 1CC7  
                     l5149 1CAF                       l5173 1DF0                       l5181 1E12  
                     l5165 1DDB                       l3493 1963                       l3485 1952  
                     l4701 1741                       l4621 1639                       l4613 162A  
                     l4381 0FE9                       l4373 0FD6                       l4365 0F9D  
                     l4357 0F8A                       l4349 0F7F                       l4285 0E68  
                     l4293 0E7A                       l4277 0E26                       l4269 0E19  
                     l4197 0D78                       l4605 19C9                       l4525 03FF  
                     l4517 03EA                       l4509 03B9                       l4461 0255  
                     l4453 01F2                       l4445 01A1                       l4437 012F  
                     l4429 0111                       l4533 1E70                       l5093 121A  
                     l5085 11D8                       l5077 11AE                       l5069 19A6  
                     l5229 1DC3                       l3741 0C43                       l3733 0C2E  
                     l3725 0BF5                       l3709 0BA3                       l5245 1ABB  
                     l5237 1AA6                       l5421 06FA                       l5413 06CE  
                     l5405 069E                       l5341 0588                       l5333 054E  
                     l5325 0533                       l5317 0518                       l5309 04EC  
                     l5261 043A                       l5253 041F                       l5159 1CCD  
                     l5191 1E29                       l5183 1E1F                       l5175 1E02  
                     l5167 1DDD                       l3487 1958                       l3831 1A6F  
                     l4711 1756                       l4703 1742                       l4631 1651  
                     l4623 1641                       l4615 162E                       l4383 0FED  
                     l4375 0FDB                       l4367 0FAB                       l4359 0F90  
                     l4295 0E86                       l4287 0E6C                       l4279 0E3D  
                     l4199 0D7F                       l4527 040A                       l4519 03EC  
                     l4471 0302                       l4463 0272                       l4455 020F  
                     l4447 01BD                       l4439 013C                       l4391 00B2  
                     l4551 1EBA                       l4543 1E9D                       l4535 1E74  
                     l5087 11DE                       l5079 11B6                       l3751 0C7C  
                     l3743 0C56                       l3727 0C08                       l3719 0BCF  
                     l5247 1AC5                       l5239 1AA8                       l5431 0716  
                     l5423 0702                       l5415 06D6                       l5407 06AD  
                     l5351 05B7                       l5343 058E                       l5335 055F  
                     l5327 0534                       l5319 0520                       l5271 0468  
                     l5263 0440                       l5255 0421                       l5193 1E36  
                     l5177 1E0E                       l5169 1DDF                       l5185 1E20  
                     l3497 1A10                       l3489 195C                       l3841 1A90  
                     l4721 177B                       l4713 175A                       l4705 174B  
                     l4641 1666                       l4633 1657                       l4625 1642  
                     l4617 162F                       l4609 161D                       l4385 0FEF  
                     l4377 0FE3                       l4369 0FAF                       l4297 0E8B  
                     l4289 0E6D                       l4481 034E                       l4473 032A  
                     l4465 029F                       l4457 021F                       l4449 01D9  
                     l4393 00B9                       l4561 1EF1                       l4553 1EC8  
                     l4545 1EA2                       l4537 1E84                       l5097 121F  
                     l5089 11FD                       l3761 0CB5                       l3745 0C63  
                     l3737 0C3D                       l3681 0B07                       l5249 1ACC  
                     l5441 0749                       l5433 0720                       l5425 0708  
                     l5417 06D9                       l5409 06BA                       l5361 05E9  
                     l5353 05C2                       l5337 0567                       l5345 0594  
                     l5329 053E                       l5281 047E                       l5273 0473  
                     l5265 044E                       l5257 0426                       l5195 1E3A  
                     l5187 1E25                       l5179 1E0E                       l3499 1A16  
                     l3843 1A96                       l3835 1A76                       l3827 1A6A  
                     l4731 17B9                       l4723 1789                       l4715 176E  
                     l4707 1751                       l4651 168D                       l4643 166E  
                     l4635 165B                       l4619 1634                       l4627 1644  
                     l4387 0FFA                       l4379 0FE8                       l4491 0363  
                     l4483 034F                       l4475 0333                       l4467 02AF  
                     l4459 023C                       l4395 00BF                       l4571 1F1B  
                     l4563 1EFB                       l4555 1ED8                       l4547 1EAF  
                     l4539 1E94                       l4811 1167                       l5099 1238  
                     l3771 0CDD                       l3763 0CC8                       l3755 0C8F  
                     l3739 0C3F                       l3691 0B35                       l3683 0B0B  
                     l5451 077E                       l5443 0762                       l5435 0728  
                     l5419 06E1                       l5427 070E                       l5371 0601  
                     l5363 05EC                       l5355 05D0                       l5347 059C  
                     l5339 0580                       l5291 04A0                       l5283 0482  
                     l5267 0456                       l5259 0435                       l5197 1E4C  
                     l5189 1E27                       l3861 1AF3                       l3853 1AD1  
                     l3837 1A87                       l3829 1A6B                       l4741 17E9  
                     l4733 17C7                       l4725 178D                       l4709 1755  
                     l4653 1691                       l4645 166F                       l4637 165C  
                     l4629 164C                       l4389 0FFE                       l4493 0367  
                     l4485 0358                       l4477 0341                       l4469 02DC  
                     l4397 00C3                       l4565 1F11                       l4557 1EE3  
                     l4549 1EB6                       l4821 117D                       l4805 1139  
                     l4901 0AAD                       l3781 0D23                       l3773 0CF0  
                     l3757 0CA2                       l3749 0C69                       l3693 0B48  
                     l3685 0B0F                       l5453 0791                       l5445 076A  
                     l5437 0730                       l5429 0715                       l5381 0630  
                     l5461 07B7                       l5373 0609                       l5365 05EF  
                     l5349 05AF                       l5357 05D5                       l5293 04A7  
                     l5285 0489                       l5269 045C                       l4831 1974  
                     l4911 1942                       l5199 1E58                       l3863 1AF7  
                     l3855 1AD5                       l4743 17ED                       l4735 17D6  
                     l4727 17A6                       l4719 1776                       l4671 16D2  
                     l4663 16A8                       l4639 1661                       l4647 1671  
                     l4495 037B                       l4479 034A                       l4487 035E  
                     l4399 00C4                       l4567 1F16                       l4559 1EE7  
                     l4591 1C60                       l4583 1C31                       l4575 1C05  
                     l4751 1007                       l4823 11A9                       l4807 1146  
                     l4903 0AD4                       l3783 0D23                       l3767 0CD7  
                     l3687 0B22                       l3679 0B02                       l5463 07BC  
                     l5455 0799                       l5447 0770                       l5439 0741  
                     l5391 0659                       l5383 0636                       l5375 060F  
                     l5367 05F3                       l5359 05DD                       l5295 04B1  
                     l5279 0476                       l5287 0490                       l4841 199F  
                     l4833 1982                       l4913 1945                       l3865 1AFD  
                     l3857 1AD7                       l3849 1A98                       l4745 17EF  
                     l4737 17DA                       l4729 17AC                       l4681 16F0  
                     l4673 16D4                       l4665 16BA                       l4649 1681  
                     l4657 169A                       l4489 0362                       l4569 1F1A  
                     l4585 1C4E                       l4577 1C20                       l4761 1044  
                     l4753 101A                       l4817 1172                       l4809 114C  
                     l4921 1A58                       l3793 0D4F                       l3777 0D03  
                     l3769 0CD9                       l3697 0B5B                       l5465 07C4  
                     l5457 07A4                       l5449 0776                       l5393 0662  
                     l5385 0644                       l5369 05FB                       l5377 0620  
                     l5297 04B7                       l5289 049A                       l4827 1968  
                     l4835 1986                       l3859 1AED                       l4739 17E2  
                     l4675 16D9                       l4683 16F9                       l4691 1724  
                     l4667 16C2                       l4659 169F                       l4595 1936  
                     l4499 0383                       l4587 1C5B                       l4579 1C28  
                     l4771 1099                       l4755 1020                       l4907 0ADF  
                     l4851 131F                       l4843 12CA                       l4931 146C  
                     l4923 1A5D                       l4915 1A3D                       l3795 0D62  
                     l3787 0D29                       l3779 0D16                       l3699 0B6E  
                     l5467 07CA                       l5459 07B2                       l5395 066A  
                     l5387 0647                       l5379 0628                       l5299 04BD  
                     ?_exp 00AA                       l4829 196B                       l4837 1991  
                     l4693 172A                       l4685 170B                       l4677 16EB  
                     l4669 16CA                       l4597 193E                       l4781 1F61  
                     l4589 1C5F                       l4757 1039                       l4765 104F  
                     l4861 13DE                       l4845 12E5                       l4933 1487  
                     l4925 1A63                       l4917 1A47                       l3789 0D3C  
                     l5469 07CF                       l5397 0683                       l5389 0651  
                     ?_log 00A4                       l4839 1998                       l4695 1732  
                     l4687 170C                       l4679 16EF                       l4599 1940  
                     l4783 1FDF                       l4775 10BB                       l4767 1058  
                     l4791 10EF                       l4871 08D9                       l4855 1330  
                     l4951 1566                       l4943 14CC                       l4927 1442  
                     l4919 1A4A                       l3799 0D71                       l5399 068B  
                     l4697 1734                       l4689 1720                       l4785 1FE7  
                     l4769 1059                       l4873 08F4                       l4865 08A5  
                     l4857 1399                       l4849 12F6                       l4961 15FF  
                     l4953 156D                       l4945 14E7                       l4937 1498  
                     l4929 1445                       l4971 080F                       l4699 173D  
                     l4779 1F24                       l4795 10FA                       l4891 09AE  
                     l4883 0931                       l4867 08CE                       l4859 13A1  
                     l4963 1604                       l4947 1555                       l4955 1584  
                     l4939 14C1                       l4981 083F                       l4973 0820  
                     l4797 1124                       l4789 10C6                       l4893 09E1  
                     l4885 0953                       l4877 0905                       l4957 159D  
                     l4991 086E                       l4983 0842                       l4975 082B  
                     l4967 0808                       l4799 1128                       l4895 0A08  
                     l4887 0958                       l4879 0920                       l4959 15E8  
                     l4993 087C                       l4985 084F                       l4977 082F  
                     l4969 080B                       l4897 0A56                       l4889 096F  
                     l4995 087D                       l4987 0853                       l4979 0837  
                     l4899 0AA8                       l4997 0886                       l4989 085C  
                     l4999 088C                       ?_pow 00B6                       STR_1 18D8  
                     STR_2 18D6                       STR_3 18B7                       STR_4 18CE  
                     STR_5 18B7                       STR_6 1895                       STR_7 18B3  
                     STR_8 1872                       STR_9 1884                       u5100 0B6E  
                     u5101 0B6D                       u5110 0B81                       u5111 0B80  
                     u6000 0E5D                       u5200 0C2E                       u5120 0B94  
                     u6001 0E5C                       u5201 0C2D                       u5121 0B93  
                     u6010 0E6C                       u5210 0C43                       u5130 0BA9  
                     u5050 0B0F                       u6011 0E6B                       u5211 0C42  
                     u5131 0BA8                       u5051 0B0E                       u5300 0CF0  
                     u5220 0C56                       u5140 0BBC                       u5060 0B22  
                     u5301 0CEF                       u5221 0C55                       u5141 0BBB  
                     u5061 0B21                       u6110 0EE7                       u6030 0E82  
                     u5310 0D03                       u5230 0C69                       u5150 0BCF  
                     u5070 0B35                       u6111 0EE6                       u6031 0E81  
                     u5311 0D02                       u5231 0C68                       u5151 0BCE  
                     u5071 0B34                       u5400 1A75                       u7000 170B  
                     u6200 0F7F                       u6040 0E86                       u5320 0D16  
                     u5240 0C7C                       u5160 0BE2                       u5080 0B48  
                     u5401 1A74                       u7001 170A                       u6201 0F7E  
                     u6121 0EFE                       u6113 0EE3                       u6105 0EC5  
                     u6041 0E85                       u6025 0E6F                       u5321 0D15  
                     u5241 0C7B                       u5161 0BE1                       u5081 0B47  
                     u5410 1A87                       u7010 1720                       u6210 0F85  
                     u6130 0F12                       u6122 0EFF                       u6050 0E8B  
                     u5330 0D29                       u5250 0C8F                       u5170 0BF5  
                     u5090 0B5B                       u5411 1A86                       u6211 0F84  
                     u6131 0F13                       u6123 0F04                       u6051 0E8A  
                     u5331 0D28                       u5251 0C8E                       u5171 0BF4  
                     u5091 0B5A                       u5420 1A96                       u7100 1775  
                     u7020 172A                       u6300 0FDB                       u6220 0F8A  
                     u6140 0F30                       u6132 0F18                       u6124 0F05  
                     u5340 0D3C                       u5260 0CA2                       u5180 0C08  
                     u5421 1A95                       u7101 1774                       u7021 1729  
                     u7005 1707                       u6301 0FDA                       u6221 0F89  
                     u6141 0F2F                       u6133 0F19                       u6125 0F0A  
                     u6061 0E9D                       u5341 0D3B                       u5261 0CA1  
                     u5181 0C07                       u5430 1AFD                       u7110 177B  
                     u7030 1732                       u6310 0FE8                       u6230 0F90  
                     u6150 0F55                       u6126 0F0B                       u6070 0EAF  
                     u6062 0EA4                       u5350 0D4F                       u5270 0CB5  
                     u5190 0C1B                       u5431 1AFC                       u7111 177A  
                     u7031 1731                       u7015 1713                       u6311 0FE7  
                     u6231 0F8F                       u6151 0F54                       u6071 0EAE  
                     u6063 0EAB                       u5351 0D4E                       u5271 0CB4  
                     u5191 0C1A                       u7120 178D                       u7016 1714  
                     u6320 0FED                       u6240 0F97                       u6160 0F5A  
                     u6080 0EB3                       u6400 0111                       u7200 1099  
                     u5360 0D62                       u5280 0CC8                       u8000 06AD  
                     u7121 178C                       u7017 1719                       u6321 0FEC  
                     u6241 0F96                       u6161 0F59                       u6081 0EB2  
                     u6401 0110                       u7201 1098                       u5361 0D61  
                     u5281 0CC7                       u8001 06AC                       u7130 179C  
                     u7050 1741                       u7018 171A                       u6330 0FFE  
                     u6250 0F9D                       u6090 0EC2                       u6410 0116  
                     u5370 0D77                       u5290 0CDD                       u8010 06E1  
                     u7051 1740                       u7019 171F                       u6331 0FFD  
                     u6251 0F9C                       u6091 0EC1                       u6411 0115  
                     u5371 0D76                       u5291 0CDC                       u8011 06E0  
                     u7300 1998                       u7140 17B9                       u6260 0FAF  
                     u6180 0F70                       u5700 1A0B                       u6340 00C3  
                     u8020 0715                       u7301 1997                       u7141 17B8  
                     u7045 1736                       u6261 0FAE                       u6181 0F6F  
                     u5701 1A0A                       u6501 0264                       u6421 0167  
                     u6341 00C2                       u8021 0714                       u7310 199F  
                     u7150 17D6                       u7070 1755                       u6270 0FBE  
                     u6190 0F75                       u6502 026B                       u6422 016E  
                     u6350 00C9                       u7230 1FE7                       u5710 0024  
                     u8030 0749                       u7311 199E                       u7151 17D5  
                     u7135 1797                       u7071 1754                       u6191 0F74  
                     u6175 0F65                       u6511 0291                       u6503 0272  
                     u6431 0183                       u6423 0175                       u6351 00C8  
                     u7231 1FE6                       u7215 1F29                       u5711 0023  
                     u8031 0748                       u4904 1A38                       u7160 17ED  
                     u7080 175A                       u6280 0FCD                       u6512 0298  
                     u6432 018A                       u6360 00CE                       u5720 0040  
                     u5800 1D0E                       u7240 10EF                       u7400 0AAD  
                     u7320 12E5                       u8040 077E                       u7161 17EC  
                     u7145 17B5                       u7081 1759                       u7065 1744  
                     u6281 0FCC                       u6521 02BE                       u6513 029F  
                     u6441 01AF                       u6433 0191                       u6361 00CD  
                     u7225 1F6A                       u5721 003F                       u5801 1D0D  
                     u7241 10EE                       u7401 0AAC                       u7321 12E4  
                     u8041 077D                       u7090 176E                       u6290 0FD6  
                     u6610 0362                       u6530 02E8                       u6522 02C5  
                     u6442 01B6                       u6370 00EF                       u5730 004C  
                     u5810 1D15                       u5650 1B1F                       u7170 1020  
                     u7250 1128                       u7410 0AD4                       u7330 131F  
                     u7155 17D2                       u7091 176D                       u6291 0FD5  
                     u6275 0FB9                       u6611 0361                       u6523 02CC  
                     u6451 01CB                       u6443 01BD                       u6371 00EE  
                     u5731 004B                       u5811 1D14                       u5651 1B1E  
                     u7171 101F                       u7251 1127                       u7411 0AD3  
                     u7331 131E                       u8107 0B28                       u4860 1958  
                     u7500 0820                       u5900 0D94                       u6700 03FE  
                     u6620 0367                       u6452 01D2                       u6380 00F5  
                     u5660 1B3B                       u7180 1039                       u7260 1146  
                     u7340 08CE                       u4861 1957                       u7501 081F  
                     u5901 0D93                       u6701 03FD                       u6621 0366  
                     u6605 0351                       u6541 02F4                       u6453 01D9  
                     u6381 00F4                       u5741 005B                       u5661 1B3A  
                     u7181 1038                       u7261 1145                       u7341 08CD  
                     u8117 0B3B                       u4870 195C                       u7510 083F  
                     u5910 0DB2                       u6630 037B                       u6550 0310  
                     u6542 02FB                       u6390 00FA                       u5750 0074  
                     u5742 005C                       u5830 1D27                       u6710 1E70  
                     u5670 1B55                       u7190 1058                       u7270 1167  
                     u7350 08F4                       u7430 146C                       u4871 195B  
                     u7511 083E                       u5911 0DB1                       u6631 037A  
                     u6543 0302                       u6535 02E3                       u6471 0201  
                     u6391 00F9                       u5751 0073                       u5743 0061  
                     u5831 1D26                       u6711 1E6F                       u5671 1B54  
                     u7191 1057                       u7271 1166                       u7351 08F3  
                     u7431 146B                       u8207 0BE8                       u8127 0B4E  
                     u7280 1986                       u4880 1A16                       u7600 1BBC  
                     u5920 0DBD                       u5680 19F7                       u6640 0382  
                     u6472 0208                       u5744 0062                       u5840 1D2E  
                     u6800 1EED                       u6720 1E74                       u7360 0920  
                     u7440 1487                       u7281 1985                       u4881 1A15  
                     u7601 1BBB                       u5921 0DBC                       u5681 19F6  
                     u6641 0381                       u6561 031C                       u6481 022E  
                     u6473 020F                       u6465 01DB                       u5761 0083  
                     u5745 0067                       u5841 1D2D                       u5825 1D17  
                     u6801 1EEC                       u6721 1E73                       u7265 1142  
                     u7361 091F                       u7441 1486                       u7425 1A4D  
                     u8217 0BFB                       u8137 0B61                       u8057 042E  
                     u7290 1991                       u4890 1A37                       u7530 0853  
                     u7610 1BC7                       u5930 0DC3                       u6650 0388  
                     u6562 0323                       u6482 0235                       u5770 00AE  
                     u5762 0084                       u5746 0068                       u6810 1EF1  
                     u6730 1E94                       u7370 094D                       u7450 14C1  
                     u7291 1990                       u4891 1A35                       u7531 0852  
                     u7611 1BC6                       u5931 0DC2                       u6651 0387  
                     u6563 032A                       u6555 030B                       u6483 023C  
                     u5771 00AD                       u5763 0089                       u6811 1EF0  
                     u6731 1E93                       u5675 1B51                       u7371 094B  
                     u7451 14C0                       u8307 0CA8                       u8227 0C0E  
                     u8147 0B74                       u8067 0448                       u7700 1B88  
                     u6900 165B                       u5940 0DC8                       u6660 039A  
                     u5764 008A                       u5860 1D3F                       u5780 1CE1  
                     u6820 1F06                       u7380 094E                       u7460 14E7  
                     u7701 1B87                       u7525 0844                       u6901 165A  
                     u5941 0DC7                       u6661 0399                       u5765 008F  
                     u5861 1D3E                       u5781 1CE0                       u7461 14E6  
                     u8317 0CBB                       u8237 0C21                       u8157 0B87  
                     u8077 05CA                       u7550 086E                       u7630 1BD9  
                     u6910 1661                       u5950 0DE1                       u6670 03A9  
                     u6590 034E                       u5766 0090                       u5870 1D44  
                     u5790 1CF8                       u6830 1F16                       u6750 1EB5  
                     u7390 0958                       u7470 1555                       u7551 086D  
                     u7631 1BD8                       u6911 1660                       u5951 0DE0  
                     u5695 19FE                       u6591 034D                       u6575 032C  
                     u6495 023E                       u5775 00AA                       u5871 1D43  
                     u5855 1D31                       u6831 1F15                       u6751 1EB4  
                     u7391 0957                       u7471 1554                       u8407 0D68  
                     u8327 0CCE                       u8247 0C34                       u8167 0B9A  
                     u8087 07AC                       u7800 1E4C                       u7640 1BE3  
                     u6920 1666                       u5960 0DE5                       u5880 0D89  
                     u6680 03C6                       u6840 1F1A                       u7480 1604  
                     u7720 19C4                       u7801 1E4B                       u7545 0855  
                     u7641 1BE2                       u7625 1BCB                       u6921 1665  
                     u5961 0DE4                       u5881 0D88                       u6681 03C5  
                     u6585 0343                       u6841 1F19                       u6825 1F01  
                     u6745 1EA7                       u7481 1603                       u7721 19C3  
                     u8417 1D83                       u8337 0CE3                       u8257 0C49  
                     u8177 0BAF                       u8097 0B15                       u7810 1E69  
                     u7570 088C                       u7490 080F                       u6930 1681  
                     u5970 0E3D                       u5890 0D8F                       u6690 03E0  
                     u6770 1ED7                       u6850 1C20                       u7730 11BE  
                     u7811 1E68                       u8427 1DE5                       u7715 1B90  
                     u7571 088B                       u7555 086A                       u7491 080E  
                     u6931 1680                       u5971 0E3C                       u5891 0D8E  
                     u6691 03DF                       u6675 03A4                       u5795 1CF3  
                     u6771 1ED6                       u6851 1C1F                       u7731 11BD  
                     u8347 0CF6                       u8267 0C5C                       u8187 0BC2  
                     u7580 0891                       u7660 1BF6                       u6940 169F  
                     u6860 193E                       u5980 0E48                       u7740 1212  
                     u7820 1D59                       u7900 04CB                       u7805 1E48  
                     u8437 1E2F                       u7581 0890                       u7565 087E  
                     u7661 1BF5                       u7645 1BDF                       u6941 169E  
                     u6861 193D                       u5981 0E46                       u6685 03C2  
                     u6765 1EC9                       u7741 1211                       u7821 1D58  
                     u8357 0D09                       u8277 0C6F                       u8197 0BD5  
                     u7901 04CA                       u7670 1BFB                       u7590 1BB1  
                     u6950 16D9                       u6870 162E                       u5990 0E49  
                     u6790 1EE7                       u7750 121E                       u7830 1D9E  
                     u7910 04FF                       u8447 1C70                       u7815 1E65  
                     u7671 1BFA                       u7655 1BEA                       u7591 1BB0  
                     u6951 16D8                       u6871 162D                       u5975 0E39  
                     u6695 03DC                       u6791 1EE6                       u7751 121D  
                     u7743 120E                       u7831 1D9D                       u8367 0D1C  
                     u8287 0C82                       u7911 04FE                       u7760 1DDB  
                     u7680 1B5F                       u6880 1634                       u7840 1ACC  
                     u7920 0533                       u8457 1C78                       u7761 1DDA  
                     u7681 1B5E                       u6881 1633                       u6785 1EDC  
                     u8377 0D2F                       u8297 0C95                       u7841 1ACB  
                     u7921 0532                       u7770 1E02                       u6890 1639  
                     u7930 0567                       u7850 0473                       u8467 1C87  
                     u7771 1E01                       u6891 1638                       u8387 0D42  
                     u7931 0566                       u7851 0472                       u7780 1E1F  
                     u6980 16EF                       u7940 059C                       u7860 0489  
                     u8477 1C94                       u7781 1E1E                       u6981 16EE  
                     u6965 16DB                       u8397 0D55                       u7941 059B  
                     u7861 0488                       u7790 1E25                       u7950 05DD  
                     u7870 04A0                       u8487 196F                       u7791 1E24  
                     u7775 1DFE                       u7695 1B67                       u6975 16E4  
                     u7951 05DC                       u7871 049F                       u7960 05E9  
                     u7880 04A7                       u8497 197B                       u7785 1E1B  
                     u7961 05E8                       u7881 04A6                       u7970 0628  
                     u7890 04C4                       u6995 16F2                       u7971 0627  
                     u7891 04C3                       u7980 066A                       u7981 0669  
                     u7990 069E                       u7991 069D                       _WREN 0C62  
             __CFG_WRT$OFF 0000            LCD_CURSOR@high4 0077                       _disp 1D50  
                     _main 0413                       _safe 0192                       _pass 0199  
                     btemp 007E                       exp@x 00AA                       log@x 00A4  
                     pow@x 00B6                       pow@y 00BA                       start 0000  
          ___fldiv@new_exp 0025              LCD_SCROLL@dir 0079              LCD_SCROLL@spd 0073  
         __end_of_LCD_INIT 1CD4                      ??_exp 00AE                      ??_log 006D  
                    ??_pow 00BE              ___fltol@sign1 0029            __end_of___aldiv 08A5  
                    ?_disp 0070            __end_of___fladd 1000                      ?_main 0070  
          __end_of___fldiv 1800            __end_of___flneg 1941                      _EEADR 010D  
                    STR_10 1852                      STR_11 18C1                      STR_12 1895  
                    STR_13 1895                      STR_14 18B3                      STR_15 1872  
                    STR_16 18A4              __CFG_WDTE$OFF 0000            __end_of___awmod 1C05  
          __end_of___flmul 0413               lcd_port@DATA 0070            __end_of___flsub 19E9  
          __end_of___fltol 1D50                      _PORTA 0005                      _PORTB 0006  
                    _PORTC 0007                      _PORTD 0008                      _PORTE 0009  
                    _TRISA 0085                      _TRISB 0086                      _TRISC 0087  
                    _TRISD 0088        __size_of_LCD_CURSOR 0053               ?_read_eeprom 0070  
      __size_of_LCD_SCROLL 0096            __end_of_lcd_cmd 1951                      _clock 1968  
                    _floor 1007                      _ldexp 10C6                      _frexp 1C05  
                    _errno 0190                      _reset 1A9A       keypadscan@keypressed 0073  
                    main@j 00EC             __CFG_BOREN$OFF 0000                      pclath 000A  
                    pow@yi 00C8                      status 0003                      wtemp0 007E  
          changePass@start 0077                exp@exponent 00B3            ??_LCD_WRITE_NUM 007E  
              ldexp@newexp 00A8            __initialization 07DB                log@exponent 006E  
             __end_of_disp 1DD4               __end_of_main 07DB      __size_of_write_eeprom 002C  
                   ??_disp 00E4                     ??_main 00E9                  ??_LCD_CLR 0073  
                   ?_clock 0070                     ?_floor 0061                     ?_ldexp 00A4  
                   ?_frexp 002C                     _EEDATA 010C                     _EECON2 018D  
                   ?_reset 0070                     _TRISD4 0444                     _TRISD5 0445  
         __end_of___xxtofl 1F24               _write_eeprom 1A10             __CFG_PWRTE$OFF 0000  
         __end_of_lcd_port 19A3                     ___flge 0010                     ___fleq 1B09  
                ??___aldiv 0078                  ??___fladd 0055                  ??___fldiv 0078  
                ??___flneg 0074                  ??___awmod 0074                  ??___flmul 003B  
                ??___flsub 007E                  ??___fltol 0024            ___awmod@divisor 0070  
          ___awmod@counter 0075                  ??_lcd_cmd 0072                     floor@i 0066  
                   floor@x 0061         __size_of__Umul8_16 0027                 ___flge@ff1 0070  
               ___flge@ff2 0074               ___xxtofl@arg 007A           __end_ofexp@coeff 182E  
                ?_LCD_INIT 0070               ___xxtofl@exp 0079               ___xxtofl@val 0070  
               ___fleq@ff1 0020                 ___fleq@ff2 0024           __end_oflog@coeff 1852  
  __end_of__initialization 07FC                 ___flneg@f1 0070           ??_LCD_WRITE_CHAR 0072  
             ??_LCD_CURSOR 0074               eval_poly@res 00A0                 ___fltol@f1 0020  
             ??_LCD_SCROLL 0076             __pcstackCOMMON 0070               __pidataBANK3 0806  
       __size_of_checkPass 0031              __end_of_clock 1981              __end_of_floor 10C6  
            __end_of_ldexp 11AA              __end_of_frexp 1C61              __end_of_reset 1ACE  
           LCD_WRITE_NUM@i 00CC             LCD_WRITE_NUM@j 00DE             LCD_WRITE_NUM@k 00D8  
           LCD_WRITE_NUM@l 00DA             LCD_WRITE_NUM@m 00DC             LCD_WRITE_NUM@n 00E2  
       __end_of_LCD_CURSOR 1BAC         __end_of_LCD_SCROLL 1E6A                    ??_clock 0070  
                  ??_floor 0065                    ??_ldexp 006D                    ??_frexp 0031  
                  ??_reset 007A       __size_of_read_eeprom 0017                 __pbssBANK1 00ED  
               __pbssBANK3 0190                 _changePass 1ACE        LCD_WRITE_CHAR@High4 0074  
       __size_of_eval_poly 00DC                 ??_LCD_INIT 0073  __size_of_LCD_WRITE_STRING 0022  
        __end_of__Umul8_16 1A10                 __pmaintext 0413                    ?___flge 0070  
                  ?___fleq 0020                    _LCD_CLR 0003                  ?___xxtofl 0070  
         write_eeprom@addr 0070           write_eeprom@data 0072          __end_of_checkPass 1A9A  
                ?_lcd_port 0070                 __stringtab 1800          LCD_WRITE_STRING@j 0077  
               checkPass@k 0075                    ___aldiv 0808            __size_of___flge 00A2  
          __size_of___fleq 0050                    ___fladd 0D78                    ___fldiv 161D  
                  ___flneg 1936                    ___awmod 1BAC                    ___flmul 00B2  
                  ___flsub 19C5                    ___fltol 1CD4                    _exp$903 00AF  
        __end_of_eval_poly 2000                    __ptext1 1A9A                    __ptext2 0003  
                  __ptext3 0B02                    __ptext4 1D50                    __ptext5 19A3  
                  __ptext6 1A3C                    __ptext7 11AA                    __ptext8 1442  
                  __ptext9 12CA                    _lcd_cmd 1941                 _keypadscan 0B02  
                  _pow$901 00BF                    _pow$902 00C3               __size_of_exp 025D  
             __size_of_log 0178               __size_of_pow 01DB                 ??___xxtofl 0074  
         ___awmod@dividend 0072           ___aldiv@dividend 0074                 ??_lcd_port 0070  
     end_of_initialization 07FC             checkPass@start 0071                    exp@sign 00B5  
              ?_changePass 0077                    pow@sign 00C7      __end_of_LCD_WRITE_NUM 12CA  
         ___aldiv@quotient 0022          changePass@newPass 0022    LCD_WRITE_STRING@stringy 0078  
              ___fladd@grs 0060              ___xxtofl@sign 0078                ___fldiv@grs 0027  
              ___fldiv@rem 0020           _LCD_WRITE_STRING 19A3                ___flmul@grs 0042  
        __size_of_LCD_INIT 0073             __end_of___flge 00B2             __end_of___fleq 1B59  
      __size_of_changePass 003B                ?_keypadscan 0070                 floor@expon 006A  
      start_initialization 07DB                 eval_poly@d 0065                 eval_poly@n 0066  
               eval_poly@x 0061                 ldexp@value 00A4                __end_of_exp 0B02  
              __end_of_log 1442                __end_of_pow 161D                 frexp@value 002C  
                 ??___flge 0078                   ??___fleq 0028                  __Umul8_16 19E9  
             checkPass@val 0074                __pdataBANK3 019F                  ___fladd@a 0051  
                ___fladd@b 004D                   ?_LCD_CLR 0070                  ___fldiv@a 0070  
                ___fldiv@b 0074                  ___flmul@a 0037                  ___flmul@b 0033  
                ___flsub@a 0061                  ___flsub@b 0065              ??_read_eeprom 0070  
                ___latbits 0002              __pcstackBANK0 0020              __pcstackBANK1 00A0  
        __size_of___xxtofl 00BA          __size_of_lcd_port 0022                  _checkPass 1A69  
       LCD_WRITE_CHAR@Data 0075         LCD_WRITE_CHAR@Low4 0073        __size_of_keypadscan 0276  
                 ?___aldiv 0070                   ?___fladd 004D                   ?___fldiv 0070  
                 ?___flneg 0070                   ?___awmod 0070                   ?___flmul 0033  
                 ?___flsub 0061                   ?___fltol 0020                 ?__Umul8_16 0070  
  __size_of_LCD_WRITE_CHAR 002D                  __pstrings 1800                   ?_lcd_cmd 0070  
                _eval_poly 1F24             __size_of_clock 0019             __size_of_floor 00BF  
           __size_of_ldexp 00E4             __size_of_frexp 005C             __size_of_reset 0034  
             ??_changePass 0078                   _LCD_INIT 1C61        __end_of_read_eeprom 1968  
          ___aldiv@divisor 0070            ___aldiv@counter 0020                 ?_checkPass 0071  
            ?_write_eeprom 0070            read_eeprom@addr 0070   __end_of_LCD_WRITE_STRING 19C5  
              __stringbase 1805           checkPass@checker 0073         __end_of_changePass 1B09  
               ?_eval_poly 0061           __size_of_LCD_CLR 000D             ??_write_eeprom 0073  
                frexp@eptr 0030                 _EECON1bits 018C                ??__Umul8_16 0072  
         __size_of___aldiv 009D           __size_of___fladd 0288           __size_of___fldiv 01E3  
         __size_of___flneg 000B           __size_of___awmod 0059           __size_of___flmul 0361  
         __size_of___flsub 0024           __size_of___fltol 007C         __end_of__stringtab 1806  
              changePass@j 0020                changePass@k 0021               ??_keypadscan 0070  
         __size_of_lcd_cmd 0010                   ___xxtofl 1E6A                _read_eeprom 1951  
                 __ptext10 08A5                   __ptext11 10C6                   __ptext20 19E9  
                 __ptext12 1007                   __ptext21 19C5                   __ptext13 1C05  
                 __ptext30 1ACE                   __ptext22 0D78                   __ptext14 1B09  
                 __ptext31 1A10                   __ptext23 1936                   __ptext15 1E6A  
                 __ptext32 1DD4                   __ptext24 161D                   __ptext16 1CD4  
                 __ptext33 1C61                   __ptext25 1BAC                   __ptext17 0010  
                 __ptext34 1941                   __ptext26 0808                   __ptext18 1F24  
                 __ptext35 1981                   __ptext27 1B59                   __ptext19 00B2  
                 __ptext36 1968                   __ptext28 1A69                   __ptext29 1951  
   __size_of_LCD_WRITE_NUM 0120                   _lcd_port 1981              __size_of_disp 0084  
            __size_of_main 03C8                ??_checkPass 0072                 _LCD_CURSOR 1B59  
               _LCD_SCROLL 1DD4         __end_of_keypadscan 0D78                   disp@keyp 00E8  
           _LCD_WRITE_CHAR 1A3C                   exp@coeff 1806                   log@coeff 182E  
              ??_eval_poly 0068     write_eeprom@gie_status 0075                  stringcode 1800  
   __end_of_LCD_WRITE_CHAR 1A69              _LCD_WRITE_NUM 11AA     __Umul8_16@multiplicand 0070  
     __end_of_write_eeprom 1A3C                   stringdir 1800                   stringtab 1800  
             ___aldiv@sign 0021              ___fladd@signs 005D               ___fladd@aexp 005E  
             ___fladd@bexp 005F       __Umul8_16@multiplier 0078                ?_LCD_CURSOR 0073  
              lcd_cmd@DATA 0072                ?_LCD_SCROLL 0073          __Umul8_16@product 0074  
